---
triple:          'arm64-apple-darwin'
binary-path:     program
relocations:
  - { offsetInCU: 0x52, offset: 0x52, size: 0x8, addend: 0x0, symName: __ZL3ORD, symObjAddr: 0x6AD30, symBinAddr: 0x100030000, symSize: 0x0 }
  - { offsetInCU: 0x56A2, offset: 0x56A2, size: 0x8, addend: 0x0, symName: __ZNSt3__124__put_character_sequenceB8ue170006IcNS_11char_traitsIcEEEERNS_13basic_ostreamIT_T0_EES7_PKS4_m, symObjAddr: 0x4774, symBinAddr: 0x100007CA8, symSize: 0x1F4 }
  - { offsetInCU: 0x819B, offset: 0x819B, size: 0x8, addend: 0x0, symName: __ZNSt3__1lsB8ue170006INS_11char_traitsIcEEEERNS_13basic_ostreamIcT_EES6_PKc, symObjAddr: 0xBBC, symBinAddr: 0x1000040F0, symSize: 0x48 }
  - { offsetInCU: 0x81E1, offset: 0x81E1, size: 0x8, addend: 0x0, symName: __ZNSt3__17getlineB8ue170006IcNS_11char_traitsIcEENS_9allocatorIcEEEERNS_13basic_istreamIT_T0_EES9_RNS_12basic_stringIS6_S7_T1_EE, symObjAddr: 0xC30, symBinAddr: 0x100004164, symSize: 0x5C }
  - { offsetInCU: 0xDC6E, offset: 0xDC6E, size: 0x8, addend: 0x0, symName: __ZNSt3__1lsB8ue170006IcNS_11char_traitsIcEENS_9allocatorIcEEEERNS_13basic_ostreamIT_T0_EES9_RKNS_12basic_stringIS6_S7_T1_EE, symObjAddr: 0x1C5C, symBinAddr: 0x100005190, symSize: 0x4C }
  - { offsetInCU: 0xDCC6, offset: 0xDCC6, size: 0x8, addend: 0x0, symName: __ZNSt3__14endlB8ue170006IcNS_11char_traitsIcEEEERNS_13basic_ostreamIT_T0_EES7_, symObjAddr: 0x1CD4, symBinAddr: 0x100005208, symSize: 0x58 }
  - { offsetInCU: 0x100C5, offset: 0x100C5, size: 0x8, addend: 0x0, symName: __ZNSt3__1neB8ue170006IPNS_12basic_stringIcNS_11char_traitsIcEENS_9allocatorIcEEEEEEbRKNS_11__wrap_iterIT_EESC_, symObjAddr: 0x1EF8, symBinAddr: 0x10000542C, symSize: 0x34 }
  - { offsetInCU: 0x10E29, offset: 0x10E29, size: 0x8, addend: 0x0, symName: __ZNSt3__1eqB8ue170006IPNS_12basic_stringIcNS_11char_traitsIcEENS_9allocatorIcEEEEEEbRKNS_11__wrap_iterIT_EESC_, symObjAddr: 0x2174, symBinAddr: 0x1000056A8, symSize: 0x48 }
  - { offsetInCU: 0x10E6C, offset: 0x10E6C, size: 0x8, addend: 0x0, symName: __ZNSt3__112__to_addressB8ue170006INS_12basic_stringIcNS_11char_traitsIcEENS_9allocatorIcEEEEEEPT_S8_, symObjAddr: 0x2558, symBinAddr: 0x100005A8C, symSize: 0x14 }
  - { offsetInCU: 0x10EA1, offset: 0x10EA1, size: 0x8, addend: 0x0, symName: __ZNSt3__130__libcpp_is_constant_evaluatedB8ue170006Ev, symObjAddr: 0x2678, symBinAddr: 0x100005BAC, symSize: 0xC }
  - { offsetInCU: 0x10EBE, offset: 0x10EBE, size: 0x8, addend: 0x0, symName: __ZNSt3__119__libcpp_deallocateB8ue170006EPvmm, symObjAddr: 0x2684, symBinAddr: 0x100005BB8, symSize: 0x30 }
  - { offsetInCU: 0x10F06, offset: 0x10F06, size: 0x8, addend: 0x0, symName: __ZNSt3__127__do_deallocate_handle_sizeB8ue170006IJEEEvPvmDpT_, symObjAddr: 0x26B4, symBinAddr: 0x100005BE8, symSize: 0x28 }
  - { offsetInCU: 0x10F44, offset: 0x10F44, size: 0x8, addend: 0x0, symName: __ZNSt3__124__libcpp_operator_deleteB8ue170006IJPvEEEvDpT_, symObjAddr: 0x26DC, symBinAddr: 0x100005C10, symSize: 0x24 }
  - { offsetInCU: 0x10F79, offset: 0x10F79, size: 0x8, addend: 0x0, symName: __ZNSt3__112__to_addressB8ue170006IiEEPT_S2_, symObjAddr: 0x2990, symBinAddr: 0x100005EC4, symSize: 0x14 }
  - { offsetInCU: 0x10FE1, offset: 0x10FE1, size: 0x8, addend: 0x0, symName: __ZNSt3__13maxB8ue170006ImEERKT_S3_S3_, symObjAddr: 0x3294, symBinAddr: 0x1000067C8, symSize: 0x2C }
  - { offsetInCU: 0x11024, offset: 0x11024, size: 0x8, addend: 0x0, symName: __ZNSt3__13minB8ue170006ImEERKT_S3_S3_, symObjAddr: 0x32C0, symBinAddr: 0x1000067F4, symSize: 0x2C }
  - { offsetInCU: 0x11268, offset: 0x11268, size: 0x8, addend: 0x0, symName: __ZNSt3__13minB8ue170006ImNS_6__lessIvvEEEERKT_S5_S5_T0_, symObjAddr: 0x334C, symBinAddr: 0x100006880, symSize: 0x54 }
  - { offsetInCU: 0x11307, offset: 0x11307, size: 0x8, addend: 0x0, symName: __ZNSt3__120__throw_length_errorB8ue170006EPKc, symObjAddr: 0x3428, symBinAddr: 0x10000695C, symSize: 0x64 }
  - { offsetInCU: 0x11331, offset: 0x11331, size: 0x8, addend: 0x0, symName: __ZNSt3__13maxB8ue170006ImNS_6__lessIvvEEEERKT_S5_S5_T0_, symObjAddr: 0x350C, symBinAddr: 0x100006A40, symSize: 0x54 }
  - { offsetInCU: 0x1138B, offset: 0x1138B, size: 0x8, addend: 0x0, symName: __ZNSt3__119__allocate_at_leastB8ue170006INS_9allocatorIiEEEENS_19__allocation_resultINS_16allocator_traitsIT_E7pointerEEERS5_m, symObjAddr: 0x3670, symBinAddr: 0x100006BA4, symSize: 0x40 }
  - { offsetInCU: 0x113CE, offset: 0x113CE, size: 0x8, addend: 0x0, symName: __ZNSt3__117__libcpp_allocateB8ue170006Emm, symObjAddr: 0x383C, symBinAddr: 0x100006D70, symSize: 0x28 }
  - { offsetInCU: 0x1140B, offset: 0x1140B, size: 0x8, addend: 0x0, symName: __ZNSt3__121__libcpp_operator_newB8ue170006IJmEEEPvDpT_, symObjAddr: 0x3864, symBinAddr: 0x100006D98, symSize: 0x24 }
  - { offsetInCU: 0x11444, offset: 0x11444, size: 0x8, addend: 0x0, symName: __ZNSt3__142__uninitialized_allocator_move_if_noexceptB8ue170006INS_9allocatorIiEENS_16reverse_iteratorIPiEES5_ivEET1_RT_T0_S9_S6_, symObjAddr: 0x39A4, symBinAddr: 0x100006ED8, symSize: 0xE8 }
  - { offsetInCU: 0x114C1, offset: 0x114C1, size: 0x8, addend: 0x0, symName: __ZNSt3__14swapB8ue170006IPiEEvRT_S3_, symObjAddr: 0x3AD8, symBinAddr: 0x10000700C, symSize: 0x3C }
  - { offsetInCU: 0x11512, offset: 0x11512, size: 0x8, addend: 0x0, symName: __ZNSt3__1neB8ue170006IPiS1_EEbRKNS_16reverse_iteratorIT_EERKNS2_IT0_EE, symObjAddr: 0x3BC0, symBinAddr: 0x1000070F4, symSize: 0x48 }
  - { offsetInCU: 0x11583, offset: 0x11583, size: 0x8, addend: 0x0, symName: __ZNSt3__114__construct_atB8ue170006IiJiEPiEEPT_S3_DpOT0_, symObjAddr: 0x3C08, symBinAddr: 0x10000713C, symSize: 0x2C }
  - { offsetInCU: 0x115F3, offset: 0x115F3, size: 0x8, addend: 0x0, symName: __ZNSt3__112__to_addressB8ue170006INS_16reverse_iteratorIPiEEvEEu7__decayIDTclsr19__to_address_helperIT_EE6__callclsr3stdE7declvalIRKS4_EEEEES6_, symObjAddr: 0x3C34, symBinAddr: 0x100007168, symSize: 0x24 }
  - { offsetInCU: 0x11629, offset: 0x11629, size: 0x8, addend: 0x0, symName: __ZNSt3__14moveB8ue170006INS_16reverse_iteratorIPiEES3_EET0_T_S5_S4_, symObjAddr: 0x3CA0, symBinAddr: 0x1000071D4, symSize: 0x78 }
  - { offsetInCU: 0x116AC, offset: 0x116AC, size: 0x8, addend: 0x0, symName: __ZNSt3__16__moveB8ue170006INS_17_ClassicAlgPolicyENS_16reverse_iteratorIPiEES4_S4_EENS_4pairIT0_T2_EES6_T1_S7_, symObjAddr: 0x3D88, symBinAddr: 0x1000072BC, symSize: 0x64 }
  - { offsetInCU: 0x11718, offset: 0x11718, size: 0x8, addend: 0x0, symName: __ZNSt3__123__dispatch_copy_or_moveB8ue170006INS_17_ClassicAlgPolicyENS_11__move_loopIS1_EENS_14__move_trivialENS_16reverse_iteratorIPiEES7_S7_EENS_4pairIT2_T4_EES9_T3_SA_, symObjAddr: 0x3DEC, symBinAddr: 0x100007320, symSize: 0x64 }
  - { offsetInCU: 0x11796, offset: 0x11796, size: 0x8, addend: 0x0, symName: __ZNSt3__121__unwrap_and_dispatchB8ue170006INS_10__overloadINS_11__move_loopINS_17_ClassicAlgPolicyEEENS_14__move_trivialEEENS_16reverse_iteratorIPiEES9_S9_Li0EEENS_4pairIT0_T2_EESB_T1_SC_, symObjAddr: 0x3E50, symBinAddr: 0x100007384, symSize: 0x12C }
  - { offsetInCU: 0x11826, offset: 0x11826, size: 0x8, addend: 0x0, symName: __ZNSt3__114__unwrap_rangeB8ue170006INS_16reverse_iteratorIPiEES3_EENS_4pairIT0_S5_EET_S7_, symObjAddr: 0x3F7C, symBinAddr: 0x1000074B0, symSize: 0x84 }
  - { offsetInCU: 0x1197A, offset: 0x1197A, size: 0x8, addend: 0x0, symName: __ZNSt3__113__unwrap_iterB8ue170006INS_16reverse_iteratorIPiEENS_18__unwrap_iter_implIS3_Lb0EEELi0EEEDTclsrT0_8__unwrapclsr3stdE7declvalIT_EEEES7_, symObjAddr: 0x40A0, symBinAddr: 0x1000075D4, symSize: 0x44 }
  - { offsetInCU: 0x119BE, offset: 0x119BE, size: 0x8, addend: 0x0, symName: __ZNSt3__19make_pairB8ue170006INS_16reverse_iteratorIPiEES3_EENS_4pairINS_18__unwrap_ref_decayIT_E4typeENS5_IT0_E4typeEEEOS6_OS9_, symObjAddr: 0x40E4, symBinAddr: 0x100007618, symSize: 0x38 }
  - { offsetInCU: 0x11A0D, offset: 0x11A0D, size: 0x8, addend: 0x0, symName: __ZNSt3__114__rewrap_rangeB8ue170006INS_16reverse_iteratorIPiEES3_EET_S4_T0_, symObjAddr: 0x411C, symBinAddr: 0x100007650, symSize: 0x5C }
  - { offsetInCU: 0x11A59, offset: 0x11A59, size: 0x8, addend: 0x0, symName: __ZNSt3__113__rewrap_iterB8ue170006INS_16reverse_iteratorIPiEES3_NS_18__unwrap_iter_implIS3_Lb0EEEEET_S6_T0_, symObjAddr: 0x4178, symBinAddr: 0x1000076AC, symSize: 0x88 }
  - { offsetInCU: 0x11B60, offset: 0x11B60, size: 0x8, addend: 0x0, symName: __ZNSt3__116__pad_and_outputB8ue170006IcNS_11char_traitsIcEEEENS_19ostreambuf_iteratorIT_T0_EES6_PKS4_S8_S8_RNS_8ios_baseES4_, symObjAddr: 0x49CC, symBinAddr: 0x100007F00, symSize: 0x248 }
  - { offsetInCU: 0x11C2F, offset: 0x11C2F, size: 0x8, addend: 0x0, symName: __ZNSt3__112__to_addressB8ue170006IKcEEPT_S3_, symObjAddr: 0x4F10, symBinAddr: 0x100008444, symSize: 0x14 }
  - { offsetInCU: 0x11C97, offset: 0x11C97, size: 0x8, addend: 0x0, symName: __ZNSt3__19use_facetB8ue170006INS_5ctypeIcEEEERKT_RKNS_6localeE, symObjAddr: 0x5134, symBinAddr: 0x100008668, symSize: 0x2C }
  - { offsetInCU: 0x12164, offset: 0x12164, size: 0x8, addend: 0x0, symName: __ZNSt3__118__constexpr_strlenB8ue170006EPKc, symObjAddr: 0x5198, symBinAddr: 0x1000086CC, symSize: 0x24 }
  - { offsetInCU: 0x12190, offset: 0x12190, size: 0x8, addend: 0x0, symName: __ZNSt3__17getlineB8ue170006IcNS_11char_traitsIcEENS_9allocatorIcEEEERNS_13basic_istreamIT_T0_EES9_RNS_12basic_stringIS6_S7_T1_EES6_, symObjAddr: 0x5598, symBinAddr: 0x100008ACC, symSize: 0x238 }
  - { offsetInCU: 0x12639, offset: 0x12639, size: 0x8, addend: 0x0, symName: __ZSt28__throw_bad_array_new_lengthB8ue170006v, symObjAddr: 0x3808, symBinAddr: 0x100006D3C, symSize: 0x34 }
  - { offsetInCU: 0x127F0, offset: 0x127F0, size: 0x8, addend: 0x0, symName: __ZL3BDL, symObjAddr: 0x6AD48, symBinAddr: 0x100030018, symSize: 0x0 }
  - { offsetInCU: 0x12809, offset: 0x12809, size: 0x8, addend: 0x0, symName: __ZL3SFO, symObjAddr: 0x6AD60, symBinAddr: 0x100030030, symSize: 0x0 }
  - { offsetInCU: 0x12822, offset: 0x12822, size: 0x8, addend: 0x0, symName: __ZL3EWR, symObjAddr: 0x6AD78, symBinAddr: 0x100030048, symSize: 0x0 }
  - { offsetInCU: 0x1283B, offset: 0x1283B, size: 0x8, addend: 0x0, symName: __ZL3IAD, symObjAddr: 0x6AD90, symBinAddr: 0x100030060, symSize: 0x0 }
  - { offsetInCU: 0x12854, offset: 0x12854, size: 0x8, addend: 0x0, symName: __ZL3BOS, symObjAddr: 0x6ADA8, symBinAddr: 0x100030078, symSize: 0x0 }
  - { offsetInCU: 0x1286D, offset: 0x1286D, size: 0x8, addend: 0x0, symName: __ZL3IAH, symObjAddr: 0x6ADC0, symBinAddr: 0x100030090, symSize: 0x0 }
  - { offsetInCU: 0x12C9F, offset: 0x12C9F, size: 0x8, addend: 0x0, symName: __ZNSt3__16vectorIiNS_9allocatorIiEEE26__swap_out_circular_bufferERNS_14__split_bufferIiRS2_EE, symObjAddr: 0x30C8, symBinAddr: 0x1000065FC, symSize: 0x110 }
  - { offsetInCU: 0x15132, offset: 0x15132, size: 0x8, addend: 0x0, symName: __Z10findSpacesRNSt3__112basic_stringIcNS_11char_traitsIcEENS_9allocatorIcEEEERNS_6vectorIiNS3_IiEEEE, symObjAddr: 0x0, symBinAddr: 0x100003534, symSize: 0x98 }
  - { offsetInCU: 0x15186, offset: 0x15186, size: 0x8, addend: 0x0, symName: __ZNSt3__16vectorIiNS_9allocatorIiEEE5clearB8ue170006Ev, symObjAddr: 0x98, symBinAddr: 0x1000035CC, symSize: 0x44 }
  - { offsetInCU: 0x151BB, offset: 0x151BB, size: 0x8, addend: 0x0, symName: __ZNKSt3__112basic_stringIcNS_11char_traitsIcEENS_9allocatorIcEEE4sizeB8ue170006Ev, symObjAddr: 0xDC, symBinAddr: 0x100003610, symSize: 0x54 }
  - { offsetInCU: 0x151E1, offset: 0x151E1, size: 0x8, addend: 0x0, symName: __ZNSt3__112basic_stringIcNS_11char_traitsIcEENS_9allocatorIcEEEixB8ue170006Em, symObjAddr: 0x130, symBinAddr: 0x100003664, symSize: 0x30 }
  - { offsetInCU: 0x15216, offset: 0x15216, size: 0x8, addend: 0x0, symName: __ZNSt3__16vectorIiNS_9allocatorIiEEE9push_backB8ue170006ERKi, symObjAddr: 0x160, symBinAddr: 0x100003694, symSize: 0x6C }
  - { offsetInCU: 0x1524C, offset: 0x1524C, size: 0x8, addend: 0x0, symName: __Z5parseR18ECAirlineSimulator, symObjAddr: 0x1CC, symBinAddr: 0x100003700, symSize: 0x84C }
  - { offsetInCU: 0x1543F, offset: 0x1543F, size: 0x8, addend: 0x0, symName: __ZNSt3__114basic_ifstreamIcNS_11char_traitsIcEEEC1EPKcj, symObjAddr: 0xA18, symBinAddr: 0x100003F4C, symSize: 0x17C }
  - { offsetInCU: 0x15489, offset: 0x15489, size: 0x8, addend: 0x0, symName: __ZNKSt3__19basic_iosIcNS_11char_traitsIcEEEntB8ue170006Ev, symObjAddr: 0xB94, symBinAddr: 0x1000040C8, symSize: 0x28 }
  - { offsetInCU: 0x154AF, offset: 0x154AF, size: 0x8, addend: 0x0, symName: __ZNSt3__112basic_stringIcNS_11char_traitsIcEENS_9allocatorIcEEEC1B8ue170006Ev, symObjAddr: 0xC04, symBinAddr: 0x100004138, symSize: 0x2C }
  - { offsetInCU: 0x154D9, offset: 0x154D9, size: 0x8, addend: 0x0, symName: __ZNKSt3__19basic_iosIcNS_11char_traitsIcEEEcvPvB8ue170006Ev, symObjAddr: 0xC8C, symBinAddr: 0x1000041C0, symSize: 0x4C }
  - { offsetInCU: 0x154FF, offset: 0x154FF, size: 0x8, addend: 0x0, symName: __ZNSt3__16vectorIiNS_9allocatorIiEEEC1B8ue170006Ev, symObjAddr: 0xCD8, symBinAddr: 0x10000420C, symSize: 0x2C }
  - { offsetInCU: 0x15529, offset: 0x15529, size: 0x8, addend: 0x0, symName: __ZNKSt3__112basic_stringIcNS_11char_traitsIcEENS_9allocatorIcEEE6substrB8ue170006Emm, symObjAddr: 0xD04, symBinAddr: 0x100004238, symSize: 0x68 }
  - { offsetInCU: 0x1556D, offset: 0x1556D, size: 0x8, addend: 0x0, symName: __ZNSt3__16vectorIiNS_9allocatorIiEEEixB8ue170006Em, symObjAddr: 0xD6C, symBinAddr: 0x1000042A0, symSize: 0x24 }
  - { offsetInCU: 0x155A4, offset: 0x155A4, size: 0x8, addend: 0x0, symName: __ZNSt3__16vectorIiNS_9allocatorIiEEED1B8ue170006Ev, symObjAddr: 0xD9C, symBinAddr: 0x1000042D0, symSize: 0x2C }
  - { offsetInCU: 0x155D3, offset: 0x155D3, size: 0x8, addend: 0x0, symName: __ZNSt3__114basic_ifstreamIcNS_11char_traitsIcEEED1Ev, symObjAddr: 0xDC8, symBinAddr: 0x1000042FC, symSize: 0x70 }
  - { offsetInCU: 0x15605, offset: 0x15605, size: 0x8, addend: 0x0, symName: __ZNSt3__112basic_stringIcNS_11char_traitsIcEENS_9allocatorIcEEEC1B8ue170006ILi0EEEPKc, symObjAddr: 0xE38, symBinAddr: 0x10000436C, symSize: 0x34 }
  - { offsetInCU: 0x15644, offset: 0x15644, size: 0x8, addend: 0x0, symName: _main, symObjAddr: 0xE6C, symBinAddr: 0x1000043A0, symSize: 0x248 }
  - { offsetInCU: 0x163FF, offset: 0x163FF, size: 0x8, addend: 0x0, symName: __ZN13ECTextViewImp12AddStatusRowERKNSt3__112basic_stringIcNS0_11char_traitsIcEENS0_9allocatorIcEEEES8_b, symObjAddr: 0x10B4, symBinAddr: 0x1000045E8, symSize: 0x4C }
  - { offsetInCU: 0x1644F, offset: 0x1644F, size: 0x8, addend: 0x0, symName: __ZL5Test1R15ECConsoleUIView, symObjAddr: 0x1100, symBinAddr: 0x100004634, symSize: 0xB5C }
  - { offsetInCU: 0x165FD, offset: 0x165FD, size: 0x8, addend: 0x0, symName: __ZNSt3__113basic_ostreamIcNS_11char_traitsIcEEElsB8ue170006EPFRS3_S4_E, symObjAddr: 0x1CA8, symBinAddr: 0x1000051DC, symSize: 0x2C }
  - { offsetInCU: 0x16631, offset: 0x16631, size: 0x8, addend: 0x0, symName: __ZNSt3__114basic_ifstreamIcNS_11char_traitsIcEEED2Ev, symObjAddr: 0x1D2C, symBinAddr: 0x100005260, symSize: 0x9C }
  - { offsetInCU: 0x1666B, offset: 0x1666B, size: 0x8, addend: 0x0, symName: __ZTv0_n24_NSt3__114basic_ifstreamIcNS_11char_traitsIcEEED1Ev, symObjAddr: 0x1DC8, symBinAddr: 0x1000052FC, symSize: 0x28 }
  - { offsetInCU: 0x16F69, offset: 0x16F69, size: 0x8, addend: 0x0, symName: __ZN18ECAirlineSimulator16DoneFlightAddingEv, symObjAddr: 0x1DF0, symBinAddr: 0x100005324, symSize: 0x1C }
  - { offsetInCU: 0x17268, offset: 0x17268, size: 0x8, addend: 0x0, symName: __ZN20ECConsoleUITextLabel12SetHighlightEb, symObjAddr: 0x1E0C, symBinAddr: 0x100005340, symSize: 0x2C }
  - { offsetInCU: 0x1729C, offset: 0x1729C, size: 0x8, addend: 0x0, symName: __ZNSt3__112basic_stringIcNS_11char_traitsIcEENS_9allocatorIcEEEpLB8ue170006Ec, symObjAddr: 0x1E38, symBinAddr: 0x10000536C, symSize: 0x34 }
  - { offsetInCU: 0x172D1, offset: 0x172D1, size: 0x8, addend: 0x0, symName: __ZNSt3__16vectorINS_12basic_stringIcNS_11char_traitsIcEENS_9allocatorIcEEEENS4_IS6_EEEC1B8ue170006Ev, symObjAddr: 0x1E6C, symBinAddr: 0x1000053A0, symSize: 0x2C }
  - { offsetInCU: 0x172FB, offset: 0x172FB, size: 0x8, addend: 0x0, symName: __ZNSt3__16vectorINS_12basic_stringIcNS_11char_traitsIcEENS_9allocatorIcEEEENS4_IS6_EEE5beginB8ue170006Ev, symObjAddr: 0x1E98, symBinAddr: 0x1000053CC, symSize: 0x30 }
  - { offsetInCU: 0x17322, offset: 0x17322, size: 0x8, addend: 0x0, symName: __ZNSt3__16vectorINS_12basic_stringIcNS_11char_traitsIcEENS_9allocatorIcEEEENS4_IS6_EEE3endB8ue170006Ev, symObjAddr: 0x1EC8, symBinAddr: 0x1000053FC, symSize: 0x30 }
  - { offsetInCU: 0x17349, offset: 0x17349, size: 0x8, addend: 0x0, symName: __ZNKSt3__111__wrap_iterIPNS_12basic_stringIcNS_11char_traitsIcEENS_9allocatorIcEEEEEdeB8ue170006Ev, symObjAddr: 0x1F2C, symBinAddr: 0x100005460, symSize: 0x18 }
  - { offsetInCU: 0x1736F, offset: 0x1736F, size: 0x8, addend: 0x0, symName: __ZNSt3__111__wrap_iterIPNS_12basic_stringIcNS_11char_traitsIcEENS_9allocatorIcEEEEEppB8ue170006Ev, symObjAddr: 0x1F44, symBinAddr: 0x100005478, symSize: 0x20 }
  - { offsetInCU: 0x175C8, offset: 0x175C8, size: 0x8, addend: 0x0, symName: __ZN15ECConsoleUIView7GetViewEv, symObjAddr: 0x1F64, symBinAddr: 0x100005498, symSize: 0x18 }
  - { offsetInCU: 0x175EE, offset: 0x175EE, size: 0x8, addend: 0x0, symName: __ZNSt3__16vectorINS_12basic_stringIcNS_11char_traitsIcEENS_9allocatorIcEEEENS4_IS6_EEED1B8ue170006Ev, symObjAddr: 0x1F7C, symBinAddr: 0x1000054B0, symSize: 0x2C }
  - { offsetInCU: 0x17618, offset: 0x17618, size: 0x8, addend: 0x0, symName: __ZNSt3__16vectorINS_12basic_stringIcNS_11char_traitsIcEENS_9allocatorIcEEEENS4_IS6_EEEC2B8ue170006Ev, symObjAddr: 0x1FA8, symBinAddr: 0x1000054DC, symSize: 0x44 }
  - { offsetInCU: 0x1764C, offset: 0x1764C, size: 0x8, addend: 0x0, symName: __ZNSt3__117__compressed_pairIPNS_12basic_stringIcNS_11char_traitsIcEENS_9allocatorIcEEEENS4_IS6_EEEC1B8ue170006IDnNS_18__default_init_tagEEEOT_OT0_, symObjAddr: 0x1FEC, symBinAddr: 0x100005520, symSize: 0x3C }
  - { offsetInCU: 0x176A4, offset: 0x176A4, size: 0x8, addend: 0x0, symName: __ZNSt3__117__compressed_pairIPNS_12basic_stringIcNS_11char_traitsIcEENS_9allocatorIcEEEENS4_IS6_EEEC2B8ue170006IDnNS_18__default_init_tagEEEOT_OT0_, symObjAddr: 0x2028, symBinAddr: 0x10000555C, symSize: 0x40 }
  - { offsetInCU: 0x176FC, offset: 0x176FC, size: 0x8, addend: 0x0, symName: __ZNSt3__122__compressed_pair_elemIPNS_12basic_stringIcNS_11char_traitsIcEENS_9allocatorIcEEEELi0ELb0EEC2B8ue170006IDnvEEOT_, symObjAddr: 0x2068, symBinAddr: 0x10000559C, symSize: 0x1C }
  - { offsetInCU: 0x1773E, offset: 0x1773E, size: 0x8, addend: 0x0, symName: __ZNSt3__122__compressed_pair_elemINS_9allocatorINS_12basic_stringIcNS_11char_traitsIcEENS1_IcEEEEEELi1ELb1EEC2B8ue170006ENS_18__default_init_tagE, symObjAddr: 0x2084, symBinAddr: 0x1000055B8, symSize: 0x2C }
  - { offsetInCU: 0x17773, offset: 0x17773, size: 0x8, addend: 0x0, symName: __ZNSt3__19allocatorINS_12basic_stringIcNS_11char_traitsIcEENS0_IcEEEEEC2B8ue170006Ev, symObjAddr: 0x20B0, symBinAddr: 0x1000055E4, symSize: 0x2C }
  - { offsetInCU: 0x1779D, offset: 0x1779D, size: 0x8, addend: 0x0, symName: __ZNSt3__116__non_trivial_ifILb1ENS_9allocatorINS_12basic_stringIcNS_11char_traitsIcEENS1_IcEEEEEEEC2B8ue170006Ev, symObjAddr: 0x20DC, symBinAddr: 0x100005610, symSize: 0x14 }
  - { offsetInCU: 0x177C7, offset: 0x177C7, size: 0x8, addend: 0x0, symName: __ZNSt3__16vectorINS_12basic_stringIcNS_11char_traitsIcEENS_9allocatorIcEEEENS4_IS6_EEE11__make_iterB8ue170006EPS6_, symObjAddr: 0x20F0, symBinAddr: 0x100005624, symSize: 0x30 }
  - { offsetInCU: 0x177FC, offset: 0x177FC, size: 0x8, addend: 0x0, symName: __ZNSt3__111__wrap_iterIPNS_12basic_stringIcNS_11char_traitsIcEENS_9allocatorIcEEEEEC1B8ue170006ES7_, symObjAddr: 0x2120, symBinAddr: 0x100005654, symSize: 0x34 }
  - { offsetInCU: 0x17834, offset: 0x17834, size: 0x8, addend: 0x0, symName: __ZNSt3__111__wrap_iterIPNS_12basic_stringIcNS_11char_traitsIcEENS_9allocatorIcEEEEEC2B8ue170006ES7_, symObjAddr: 0x2154, symBinAddr: 0x100005688, symSize: 0x20 }
  - { offsetInCU: 0x1786C, offset: 0x1786C, size: 0x8, addend: 0x0, symName: __ZNKSt3__111__wrap_iterIPNS_12basic_stringIcNS_11char_traitsIcEENS_9allocatorIcEEEEE4baseB8ue170006Ev, symObjAddr: 0x21BC, symBinAddr: 0x1000056F0, symSize: 0x18 }
  - { offsetInCU: 0x17892, offset: 0x17892, size: 0x8, addend: 0x0, symName: __ZNSt3__16vectorINS_12basic_stringIcNS_11char_traitsIcEENS_9allocatorIcEEEENS4_IS6_EEED2B8ue170006Ev, symObjAddr: 0x21D4, symBinAddr: 0x100005708, symSize: 0x3C }
  - { offsetInCU: 0x178BC, offset: 0x178BC, size: 0x8, addend: 0x0, symName: __ZNSt3__16vectorINS_12basic_stringIcNS_11char_traitsIcEENS_9allocatorIcEEEENS4_IS6_EEE16__destroy_vectorC1B8ue170006ERS8_, symObjAddr: 0x2210, symBinAddr: 0x100005744, symSize: 0x34 }
  - { offsetInCU: 0x178F5, offset: 0x178F5, size: 0x8, addend: 0x0, symName: __ZNSt3__16vectorINS_12basic_stringIcNS_11char_traitsIcEENS_9allocatorIcEEEENS4_IS6_EEE16__destroy_vectorclB8ue170006Ev, symObjAddr: 0x2244, symBinAddr: 0x100005778, symSize: 0x90 }
  - { offsetInCU: 0x1791B, offset: 0x1791B, size: 0x8, addend: 0x0, symName: __ZNSt3__16vectorINS_12basic_stringIcNS_11char_traitsIcEENS_9allocatorIcEEEENS4_IS6_EEE16__destroy_vectorC2B8ue170006ERS8_, symObjAddr: 0x22D4, symBinAddr: 0x100005808, symSize: 0x20 }
  - { offsetInCU: 0x17954, offset: 0x17954, size: 0x8, addend: 0x0, symName: __ZNSt3__16vectorINS_12basic_stringIcNS_11char_traitsIcEENS_9allocatorIcEEEENS4_IS6_EEE7__clearB8ue170006Ev, symObjAddr: 0x22F4, symBinAddr: 0x100005828, symSize: 0x28 }
  - { offsetInCU: 0x1797A, offset: 0x1797A, size: 0x8, addend: 0x0, symName: __ZNKSt3__16vectorINS_12basic_stringIcNS_11char_traitsIcEENS_9allocatorIcEEEENS4_IS6_EEE17__annotate_deleteB8ue170006Ev, symObjAddr: 0x231C, symBinAddr: 0x100005850, symSize: 0xD4 }
  - { offsetInCU: 0x179A0, offset: 0x179A0, size: 0x8, addend: 0x0, symName: __ZNSt3__116allocator_traitsINS_9allocatorINS_12basic_stringIcNS_11char_traitsIcEENS1_IcEEEEEEE10deallocateB8ue170006ERS7_PS6_m, symObjAddr: 0x23F0, symBinAddr: 0x100005924, symSize: 0x34 }
  - { offsetInCU: 0x179E2, offset: 0x179E2, size: 0x8, addend: 0x0, symName: __ZNSt3__16vectorINS_12basic_stringIcNS_11char_traitsIcEENS_9allocatorIcEEEENS4_IS6_EEE7__allocB8ue170006Ev, symObjAddr: 0x2424, symBinAddr: 0x100005958, symSize: 0x28 }
  - { offsetInCU: 0x17A08, offset: 0x17A08, size: 0x8, addend: 0x0, symName: __ZNKSt3__16vectorINS_12basic_stringIcNS_11char_traitsIcEENS_9allocatorIcEEEENS4_IS6_EEE8capacityB8ue170006Ev, symObjAddr: 0x244C, symBinAddr: 0x100005980, symSize: 0x40 }
  - { offsetInCU: 0x17A2E, offset: 0x17A2E, size: 0x8, addend: 0x0, symName: __ZNSt3__16vectorINS_12basic_stringIcNS_11char_traitsIcEENS_9allocatorIcEEEENS4_IS6_EEE22__base_destruct_at_endB8ue170006EPS6_, symObjAddr: 0x248C, symBinAddr: 0x1000059C0, symSize: 0xA0 }
  - { offsetInCU: 0x17A72, offset: 0x17A72, size: 0x8, addend: 0x0, symName: __ZNSt3__116allocator_traitsINS_9allocatorINS_12basic_stringIcNS_11char_traitsIcEENS1_IcEEEEEEE7destroyB8ue170006IS6_vEEvRS7_PT_, symObjAddr: 0x252C, symBinAddr: 0x100005A60, symSize: 0x2C }
  - { offsetInCU: 0x17AAF, offset: 0x17AAF, size: 0x8, addend: 0x0, symName: __ZNSt3__19allocatorINS_12basic_stringIcNS_11char_traitsIcEENS0_IcEEEEE7destroyB8ue170006EPS5_, symObjAddr: 0x256C, symBinAddr: 0x100005AA0, symSize: 0x28 }
  - { offsetInCU: 0x17AE3, offset: 0x17AE3, size: 0x8, addend: 0x0, symName: __ZNKSt3__16vectorINS_12basic_stringIcNS_11char_traitsIcEENS_9allocatorIcEEEENS4_IS6_EEE31__annotate_contiguous_containerB8ue170006EPKvSA_SA_SA_, symObjAddr: 0x2594, symBinAddr: 0x100005AC8, symSize: 0x20 }
  - { offsetInCU: 0x17B35, offset: 0x17B35, size: 0x8, addend: 0x0, symName: __ZNKSt3__16vectorINS_12basic_stringIcNS_11char_traitsIcEENS_9allocatorIcEEEENS4_IS6_EEE4dataB8ue170006Ev, symObjAddr: 0x25B4, symBinAddr: 0x100005AE8, symSize: 0x28 }
  - { offsetInCU: 0x17B5B, offset: 0x17B5B, size: 0x8, addend: 0x0, symName: __ZNKSt3__16vectorINS_12basic_stringIcNS_11char_traitsIcEENS_9allocatorIcEEEENS4_IS6_EEE4sizeB8ue170006Ev, symObjAddr: 0x25DC, symBinAddr: 0x100005B10, symSize: 0x28 }
  - { offsetInCU: 0x17B81, offset: 0x17B81, size: 0x8, addend: 0x0, symName: __ZNSt3__19allocatorINS_12basic_stringIcNS_11char_traitsIcEENS0_IcEEEEE10deallocateB8ue170006EPS5_m, symObjAddr: 0x2604, symBinAddr: 0x100005B38, symSize: 0x74 }
  - { offsetInCU: 0x17BC3, offset: 0x17BC3, size: 0x8, addend: 0x0, symName: __ZNSt3__117__compressed_pairIPNS_12basic_stringIcNS_11char_traitsIcEENS_9allocatorIcEEEENS4_IS6_EEE6secondB8ue170006Ev, symObjAddr: 0x2700, symBinAddr: 0x100005C34, symSize: 0x24 }
  - { offsetInCU: 0x17BE9, offset: 0x17BE9, size: 0x8, addend: 0x0, symName: __ZNSt3__122__compressed_pair_elemINS_9allocatorINS_12basic_stringIcNS_11char_traitsIcEENS1_IcEEEEEELi1ELb1EE5__getB8ue170006Ev, symObjAddr: 0x2724, symBinAddr: 0x100005C58, symSize: 0x14 }
  - { offsetInCU: 0x17C0F, offset: 0x17C0F, size: 0x8, addend: 0x0, symName: __ZNKSt3__16vectorINS_12basic_stringIcNS_11char_traitsIcEENS_9allocatorIcEEEENS4_IS6_EEE9__end_capB8ue170006Ev, symObjAddr: 0x2738, symBinAddr: 0x100005C6C, symSize: 0x28 }
  - { offsetInCU: 0x17C35, offset: 0x17C35, size: 0x8, addend: 0x0, symName: __ZNKSt3__117__compressed_pairIPNS_12basic_stringIcNS_11char_traitsIcEENS_9allocatorIcEEEENS4_IS6_EEE5firstB8ue170006Ev, symObjAddr: 0x2760, symBinAddr: 0x100005C94, symSize: 0x24 }
  - { offsetInCU: 0x17C5B, offset: 0x17C5B, size: 0x8, addend: 0x0, symName: __ZNKSt3__122__compressed_pair_elemIPNS_12basic_stringIcNS_11char_traitsIcEENS_9allocatorIcEEEELi0ELb0EE5__getB8ue170006Ev, symObjAddr: 0x2784, symBinAddr: 0x100005CB8, symSize: 0x14 }
  - { offsetInCU: 0x17C81, offset: 0x17C81, size: 0x8, addend: 0x0, symName: __ZNKSt3__16vectorIiNS_9allocatorIiEEE4sizeB8ue170006Ev, symObjAddr: 0x2798, symBinAddr: 0x100005CCC, symSize: 0x28 }
  - { offsetInCU: 0x17CA7, offset: 0x17CA7, size: 0x8, addend: 0x0, symName: __ZNSt3__16vectorIiNS_9allocatorIiEEE7__clearB8ue170006Ev, symObjAddr: 0x27C0, symBinAddr: 0x100005CF4, symSize: 0x28 }
  - { offsetInCU: 0x17CCD, offset: 0x17CCD, size: 0x8, addend: 0x0, symName: __ZNKSt3__16vectorIiNS_9allocatorIiEEE17__annotate_shrinkB8ue170006Em, symObjAddr: 0x27E8, symBinAddr: 0x100005D1C, symSize: 0xB4 }
  - { offsetInCU: 0x17D02, offset: 0x17D02, size: 0x8, addend: 0x0, symName: __ZNSt3__16vectorIiNS_9allocatorIiEEE22__base_destruct_at_endB8ue170006EPi, symObjAddr: 0x289C, symBinAddr: 0x100005DD0, symSize: 0xA0 }
  - { offsetInCU: 0x17D46, offset: 0x17D46, size: 0x8, addend: 0x0, symName: __ZNSt3__116allocator_traitsINS_9allocatorIiEEE7destroyB8ue170006IivEEvRS2_PT_, symObjAddr: 0x293C, symBinAddr: 0x100005E70, symSize: 0x2C }
  - { offsetInCU: 0x17D83, offset: 0x17D83, size: 0x8, addend: 0x0, symName: __ZNSt3__16vectorIiNS_9allocatorIiEEE7__allocB8ue170006Ev, symObjAddr: 0x2968, symBinAddr: 0x100005E9C, symSize: 0x28 }
  - { offsetInCU: 0x17DA9, offset: 0x17DA9, size: 0x8, addend: 0x0, symName: __ZNSt3__19allocatorIiE7destroyB8ue170006EPi, symObjAddr: 0x29A4, symBinAddr: 0x100005ED8, symSize: 0x14 }
  - { offsetInCU: 0x17DDD, offset: 0x17DDD, size: 0x8, addend: 0x0, symName: __ZNSt3__117__compressed_pairIPiNS_9allocatorIiEEE6secondB8ue170006Ev, symObjAddr: 0x29B8, symBinAddr: 0x100005EEC, symSize: 0x24 }
  - { offsetInCU: 0x17E03, offset: 0x17E03, size: 0x8, addend: 0x0, symName: __ZNSt3__122__compressed_pair_elemINS_9allocatorIiEELi1ELb1EE5__getB8ue170006Ev, symObjAddr: 0x29DC, symBinAddr: 0x100005F10, symSize: 0x14 }
  - { offsetInCU: 0x17E29, offset: 0x17E29, size: 0x8, addend: 0x0, symName: __ZNKSt3__16vectorIiNS_9allocatorIiEEE31__annotate_contiguous_containerB8ue170006EPKvS5_S5_S5_, symObjAddr: 0x29F0, symBinAddr: 0x100005F24, symSize: 0x20 }
  - { offsetInCU: 0x17E7B, offset: 0x17E7B, size: 0x8, addend: 0x0, symName: __ZNKSt3__16vectorIiNS_9allocatorIiEEE4dataB8ue170006Ev, symObjAddr: 0x2A10, symBinAddr: 0x100005F44, symSize: 0x28 }
  - { offsetInCU: 0x17EA1, offset: 0x17EA1, size: 0x8, addend: 0x0, symName: __ZNKSt3__16vectorIiNS_9allocatorIiEEE8capacityB8ue170006Ev, symObjAddr: 0x2A38, symBinAddr: 0x100005F6C, symSize: 0x40 }
  - { offsetInCU: 0x17EC7, offset: 0x17EC7, size: 0x8, addend: 0x0, symName: __ZNKSt3__16vectorIiNS_9allocatorIiEEE9__end_capB8ue170006Ev, symObjAddr: 0x2A78, symBinAddr: 0x100005FAC, symSize: 0x28 }
  - { offsetInCU: 0x17EED, offset: 0x17EED, size: 0x8, addend: 0x0, symName: __ZNKSt3__117__compressed_pairIPiNS_9allocatorIiEEE5firstB8ue170006Ev, symObjAddr: 0x2AA0, symBinAddr: 0x100005FD4, symSize: 0x24 }
  - { offsetInCU: 0x17F13, offset: 0x17F13, size: 0x8, addend: 0x0, symName: __ZNKSt3__122__compressed_pair_elemIPiLi0ELb0EE5__getB8ue170006Ev, symObjAddr: 0x2AC4, symBinAddr: 0x100005FF8, symSize: 0x14 }
  - { offsetInCU: 0x17F39, offset: 0x17F39, size: 0x8, addend: 0x0, symName: __ZNKSt3__112basic_stringIcNS_11char_traitsIcEENS_9allocatorIcEEE9__is_longB8ue170006Ev, symObjAddr: 0x2AD8, symBinAddr: 0x10000600C, symSize: 0x74 }
  - { offsetInCU: 0x17F5F, offset: 0x17F5F, size: 0x8, addend: 0x0, symName: __ZNKSt3__112basic_stringIcNS_11char_traitsIcEENS_9allocatorIcEEE15__get_long_sizeB8ue170006Ev, symObjAddr: 0x2B4C, symBinAddr: 0x100006080, symSize: 0x28 }
  - { offsetInCU: 0x17F85, offset: 0x17F85, size: 0x8, addend: 0x0, symName: __ZNKSt3__112basic_stringIcNS_11char_traitsIcEENS_9allocatorIcEEE16__get_short_sizeB8ue170006Ev, symObjAddr: 0x2B74, symBinAddr: 0x1000060A8, symSize: 0x34 }
  - { offsetInCU: 0x17FAB, offset: 0x17FAB, size: 0x8, addend: 0x0, symName: __ZNKSt3__117__compressed_pairINS_12basic_stringIcNS_11char_traitsIcEENS_9allocatorIcEEE5__repES5_E5firstB8ue170006Ev, symObjAddr: 0x2BA8, symBinAddr: 0x1000060DC, symSize: 0x24 }
  - { offsetInCU: 0x17FD1, offset: 0x17FD1, size: 0x8, addend: 0x0, symName: __ZNKSt3__122__compressed_pair_elemINS_12basic_stringIcNS_11char_traitsIcEENS_9allocatorIcEEE5__repELi0ELb0EE5__getB8ue170006Ev, symObjAddr: 0x2BCC, symBinAddr: 0x100006100, symSize: 0x14 }
  - { offsetInCU: 0x17FF7, offset: 0x17FF7, size: 0x8, addend: 0x0, symName: __ZNSt3__112basic_stringIcNS_11char_traitsIcEENS_9allocatorIcEEE13__get_pointerB8ue170006Ev, symObjAddr: 0x2BE0, symBinAddr: 0x100006114, symSize: 0x54 }
  - { offsetInCU: 0x1801D, offset: 0x1801D, size: 0x8, addend: 0x0, symName: __ZNSt3__112basic_stringIcNS_11char_traitsIcEENS_9allocatorIcEEE18__get_long_pointerB8ue170006Ev, symObjAddr: 0x2C34, symBinAddr: 0x100006168, symSize: 0x28 }
  - { offsetInCU: 0x18043, offset: 0x18043, size: 0x8, addend: 0x0, symName: __ZNSt3__112basic_stringIcNS_11char_traitsIcEENS_9allocatorIcEEE19__get_short_pointerB8ue170006Ev, symObjAddr: 0x2C5C, symBinAddr: 0x100006190, symSize: 0x28 }
  - { offsetInCU: 0x18069, offset: 0x18069, size: 0x8, addend: 0x0, symName: __ZNSt3__117__compressed_pairINS_12basic_stringIcNS_11char_traitsIcEENS_9allocatorIcEEE5__repES5_E5firstB8ue170006Ev, symObjAddr: 0x2C84, symBinAddr: 0x1000061B8, symSize: 0x24 }
  - { offsetInCU: 0x1808F, offset: 0x1808F, size: 0x8, addend: 0x0, symName: __ZNSt3__122__compressed_pair_elemINS_12basic_stringIcNS_11char_traitsIcEENS_9allocatorIcEEE5__repELi0ELb0EE5__getB8ue170006Ev, symObjAddr: 0x2CA8, symBinAddr: 0x1000061DC, symSize: 0x14 }
  - { offsetInCU: 0x180B5, offset: 0x180B5, size: 0x8, addend: 0x0, symName: __ZNSt3__114pointer_traitsIPcE10pointer_toB8ue170006ERc, symObjAddr: 0x2CBC, symBinAddr: 0x1000061F0, symSize: 0x14 }
  - { offsetInCU: 0x180D8, offset: 0x180D8, size: 0x8, addend: 0x0, symName: __ZNSt3__16vectorIiNS_9allocatorIiEEE9__end_capB8ue170006Ev, symObjAddr: 0x2CD0, symBinAddr: 0x100006204, symSize: 0x28 }
  - { offsetInCU: 0x180FE, offset: 0x180FE, size: 0x8, addend: 0x0, symName: __ZNSt3__16vectorIiNS_9allocatorIiEEE22__construct_one_at_endB8ue170006IJRKiEEEvDpOT_, symObjAddr: 0x2CF8, symBinAddr: 0x10000622C, symSize: 0x98 }
  - { offsetInCU: 0x1814D, offset: 0x1814D, size: 0x8, addend: 0x0, symName: __ZNSt3__16vectorIiNS_9allocatorIiEEE21__push_back_slow_pathIRKiEEvOT_, symObjAddr: 0x2D90, symBinAddr: 0x1000062C4, symSize: 0xE0 }
  - { offsetInCU: 0x181AA, offset: 0x181AA, size: 0x8, addend: 0x0, symName: __ZNSt3__117__compressed_pairIPiNS_9allocatorIiEEE5firstB8ue170006Ev, symObjAddr: 0x2E70, symBinAddr: 0x1000063A4, symSize: 0x24 }
  - { offsetInCU: 0x181D0, offset: 0x181D0, size: 0x8, addend: 0x0, symName: __ZNSt3__122__compressed_pair_elemIPiLi0ELb0EE5__getB8ue170006Ev, symObjAddr: 0x2E94, symBinAddr: 0x1000063C8, symSize: 0x14 }
  - { offsetInCU: 0x1820F, offset: 0x1820F, size: 0x8, addend: 0x0, symName: __ZNSt3__16vectorIiNS_9allocatorIiEEE21_ConstructTransactionC1B8ue170006ERS3_m, symObjAddr: 0x2EA8, symBinAddr: 0x1000063DC, symSize: 0x3C }
  - { offsetInCU: 0x18257, offset: 0x18257, size: 0x8, addend: 0x0, symName: __ZNSt3__116allocator_traitsINS_9allocatorIiEEE9constructB8ue170006IiJRKiEvEEvRS2_PT_DpOT0_, symObjAddr: 0x2EE4, symBinAddr: 0x100006418, symSize: 0x34 }
  - { offsetInCU: 0x182AE, offset: 0x182AE, size: 0x8, addend: 0x0, symName: __ZNSt3__16vectorIiNS_9allocatorIiEEE21_ConstructTransactionD1B8ue170006Ev, symObjAddr: 0x2F18, symBinAddr: 0x10000644C, symSize: 0x2C }
  - { offsetInCU: 0x182D8, offset: 0x182D8, size: 0x8, addend: 0x0, symName: __ZNSt3__16vectorIiNS_9allocatorIiEEE21_ConstructTransactionC2B8ue170006ERS3_m, symObjAddr: 0x2F44, symBinAddr: 0x100006478, symSize: 0x44 }
  - { offsetInCU: 0x18320, offset: 0x18320, size: 0x8, addend: 0x0, symName: __ZNSt3__19allocatorIiE9constructB8ue170006IiJRKiEEEvPT_DpOT0_, symObjAddr: 0x2F88, symBinAddr: 0x1000064BC, symSize: 0x28 }
  - { offsetInCU: 0x18376, offset: 0x18376, size: 0x8, addend: 0x0, symName: __ZNSt3__16vectorIiNS_9allocatorIiEEE21_ConstructTransactionD2B8ue170006Ev, symObjAddr: 0x2FB0, symBinAddr: 0x1000064E4, symSize: 0x20 }
  - { offsetInCU: 0x183A0, offset: 0x183A0, size: 0x8, addend: 0x0, symName: __ZNKSt3__16vectorIiNS_9allocatorIiEEE11__recommendB8ue170006Em, symObjAddr: 0x2FD0, symBinAddr: 0x100006504, symSize: 0xB4 }
  - { offsetInCU: 0x183F4, offset: 0x183F4, size: 0x8, addend: 0x0, symName: __ZNSt3__114__split_bufferIiRNS_9allocatorIiEEEC1EmmS3_, symObjAddr: 0x3084, symBinAddr: 0x1000065B8, symSize: 0x44 }
  - { offsetInCU: 0x1844A, offset: 0x1844A, size: 0x8, addend: 0x0, symName: __ZNSt3__114__split_bufferIiRNS_9allocatorIiEEED1Ev, symObjAddr: 0x31D8, symBinAddr: 0x10000670C, symSize: 0x2C }
  - { offsetInCU: 0x18476, offset: 0x18476, size: 0x8, addend: 0x0, symName: __ZNKSt3__16vectorIiNS_9allocatorIiEEE8max_sizeEv, symObjAddr: 0x3204, symBinAddr: 0x100006738, symSize: 0x74 }
  - { offsetInCU: 0x1849D, offset: 0x1849D, size: 0x8, addend: 0x0, symName: __ZNKSt3__16vectorIiNS_9allocatorIiEEE20__throw_length_errorB8ue170006Ev, symObjAddr: 0x3278, symBinAddr: 0x1000067AC, symSize: 0x1C }
  - { offsetInCU: 0x184CD, offset: 0x184CD, size: 0x8, addend: 0x0, symName: __ZNSt3__116allocator_traitsINS_9allocatorIiEEE8max_sizeB8ue170006IS2_vEEmRKS2_, symObjAddr: 0x32EC, symBinAddr: 0x100006820, symSize: 0x24 }
  - { offsetInCU: 0x184FB, offset: 0x184FB, size: 0x8, addend: 0x0, symName: __ZNKSt3__16vectorIiNS_9allocatorIiEEE7__allocB8ue170006Ev, symObjAddr: 0x3310, symBinAddr: 0x100006844, symSize: 0x28 }
  - { offsetInCU: 0x18521, offset: 0x18521, size: 0x8, addend: 0x0, symName: __ZNSt3__114numeric_limitsIlE3maxB8ue170006Ev, symObjAddr: 0x3338, symBinAddr: 0x10000686C, symSize: 0x14 }
  - { offsetInCU: 0x1853F, offset: 0x1853F, size: 0x8, addend: 0x0, symName: __ZNKSt3__16__lessIvvEclB8ue170006ImmEEbRKT_RKT0_, symObjAddr: 0x33A0, symBinAddr: 0x1000068D4, symSize: 0x34 }
  - { offsetInCU: 0x18593, offset: 0x18593, size: 0x8, addend: 0x0, symName: __ZNKSt3__19allocatorIiE8max_sizeB8ue170006Ev, symObjAddr: 0x33D4, symBinAddr: 0x100006908, symSize: 0x14 }
  - { offsetInCU: 0x185B9, offset: 0x185B9, size: 0x8, addend: 0x0, symName: __ZNKSt3__117__compressed_pairIPiNS_9allocatorIiEEE6secondB8ue170006Ev, symObjAddr: 0x33E8, symBinAddr: 0x10000691C, symSize: 0x24 }
  - { offsetInCU: 0x185DF, offset: 0x185DF, size: 0x8, addend: 0x0, symName: __ZNKSt3__122__compressed_pair_elemINS_9allocatorIiEELi1ELb1EE5__getB8ue170006Ev, symObjAddr: 0x340C, symBinAddr: 0x100006940, symSize: 0x14 }
  - { offsetInCU: 0x18605, offset: 0x18605, size: 0x8, addend: 0x0, symName: __ZNSt3__123__libcpp_numeric_limitsIlLb1EE3maxB8ue170006Ev, symObjAddr: 0x3420, symBinAddr: 0x100006954, symSize: 0x8 }
  - { offsetInCU: 0x18619, offset: 0x18619, size: 0x8, addend: 0x0, symName: __ZNSt12length_errorC1B8ue170006EPKc, symObjAddr: 0x348C, symBinAddr: 0x1000069C0, symSize: 0x34 }
  - { offsetInCU: 0x18651, offset: 0x18651, size: 0x8, addend: 0x0, symName: __ZNSt12length_errorC2B8ue170006EPKc, symObjAddr: 0x34C0, symBinAddr: 0x1000069F4, symSize: 0x4C }
  - { offsetInCU: 0x18689, offset: 0x18689, size: 0x8, addend: 0x0, symName: __ZNSt3__114__split_bufferIiRNS_9allocatorIiEEEC2EmmS3_, symObjAddr: 0x3560, symBinAddr: 0x100006A94, symSize: 0xD4 }
  - { offsetInCU: 0x186FD, offset: 0x186FD, size: 0x8, addend: 0x0, symName: __ZNSt3__117__compressed_pairIPiRNS_9allocatorIiEEEC1B8ue170006IDnS4_EEOT_OT0_, symObjAddr: 0x3634, symBinAddr: 0x100006B68, symSize: 0x3C }
  - { offsetInCU: 0x18755, offset: 0x18755, size: 0x8, addend: 0x0, symName: __ZNSt3__114__split_bufferIiRNS_9allocatorIiEEE7__allocB8ue170006Ev, symObjAddr: 0x36B0, symBinAddr: 0x100006BE4, symSize: 0x28 }
  - { offsetInCU: 0x1877B, offset: 0x1877B, size: 0x8, addend: 0x0, symName: __ZNSt3__114__split_bufferIiRNS_9allocatorIiEEE9__end_capB8ue170006Ev, symObjAddr: 0x36D8, symBinAddr: 0x100006C0C, symSize: 0x28 }
  - { offsetInCU: 0x187A1, offset: 0x187A1, size: 0x8, addend: 0x0, symName: __ZNSt3__117__compressed_pairIPiRNS_9allocatorIiEEEC2B8ue170006IDnS4_EEOT_OT0_, symObjAddr: 0x3700, symBinAddr: 0x100006C34, symSize: 0x48 }
  - { offsetInCU: 0x187F9, offset: 0x187F9, size: 0x8, addend: 0x0, symName: __ZNSt3__122__compressed_pair_elemIPiLi0ELb0EEC2B8ue170006IDnvEEOT_, symObjAddr: 0x3748, symBinAddr: 0x100006C7C, symSize: 0x1C }
  - { offsetInCU: 0x1883B, offset: 0x1883B, size: 0x8, addend: 0x0, symName: __ZNSt3__122__compressed_pair_elemIRNS_9allocatorIiEELi1ELb0EEC2B8ue170006IS3_vEEOT_, symObjAddr: 0x3764, symBinAddr: 0x100006C98, symSize: 0x20 }
  - { offsetInCU: 0x1887D, offset: 0x1887D, size: 0x8, addend: 0x0, symName: __ZNSt3__19allocatorIiE8allocateB8ue170006Em, symObjAddr: 0x3784, symBinAddr: 0x100006CB8, symSize: 0x84 }
  - { offsetInCU: 0x188B1, offset: 0x188B1, size: 0x8, addend: 0x0, symName: __ZNSt3__117__compressed_pairIPiRNS_9allocatorIiEEE6secondB8ue170006Ev, symObjAddr: 0x3888, symBinAddr: 0x100006DBC, symSize: 0x28 }
  - { offsetInCU: 0x188D7, offset: 0x188D7, size: 0x8, addend: 0x0, symName: __ZNSt3__122__compressed_pair_elemIRNS_9allocatorIiEELi1ELb0EE5__getB8ue170006Ev, symObjAddr: 0x38B0, symBinAddr: 0x100006DE4, symSize: 0x18 }
  - { offsetInCU: 0x188FD, offset: 0x188FD, size: 0x8, addend: 0x0, symName: __ZNSt3__117__compressed_pairIPiRNS_9allocatorIiEEE5firstB8ue170006Ev, symObjAddr: 0x38C8, symBinAddr: 0x100006DFC, symSize: 0x24 }
  - { offsetInCU: 0x18923, offset: 0x18923, size: 0x8, addend: 0x0, symName: __ZNKSt3__16vectorIiNS_9allocatorIiEEE17__annotate_deleteB8ue170006Ev, symObjAddr: 0x38EC, symBinAddr: 0x100006E20, symSize: 0xB8 }
  - { offsetInCU: 0x18949, offset: 0x18949, size: 0x8, addend: 0x0, symName: __ZNSt3__116reverse_iteratorIPiEC1B8ue170006ES1_, symObjAddr: 0x3A8C, symBinAddr: 0x100006FC0, symSize: 0x34 }
  - { offsetInCU: 0x18981, offset: 0x18981, size: 0x8, addend: 0x0, symName: __ZNKSt3__116reverse_iteratorIPiE4baseB8ue170006Ev, symObjAddr: 0x3AC0, symBinAddr: 0x100006FF4, symSize: 0x18 }
  - { offsetInCU: 0x189A7, offset: 0x189A7, size: 0x8, addend: 0x0, symName: __ZNKSt3__16vectorIiNS_9allocatorIiEEE14__annotate_newB8ue170006Em, symObjAddr: 0x3B14, symBinAddr: 0x100007048, symSize: 0xAC }
  - { offsetInCU: 0x189DC, offset: 0x189DC, size: 0x8, addend: 0x0, symName: __ZNKSt3__116reverse_iteratorIPiEdeB8ue170006Ev, symObjAddr: 0x3C58, symBinAddr: 0x10000718C, symSize: 0x28 }
  - { offsetInCU: 0x18A10, offset: 0x18A10, size: 0x8, addend: 0x0, symName: __ZNSt3__116reverse_iteratorIPiEppB8ue170006Ev, symObjAddr: 0x3C80, symBinAddr: 0x1000071B4, symSize: 0x20 }
  - { offsetInCU: 0x18A3B, offset: 0x18A3B, size: 0x8, addend: 0x0, symName: __ZNSt3__119__to_address_helperINS_16reverse_iteratorIPiEEvE6__callB8ue170006ERKS3_, symObjAddr: 0x3D18, symBinAddr: 0x10000724C, symSize: 0x4C }
  - { offsetInCU: 0x18A5E, offset: 0x18A5E, size: 0x8, addend: 0x0, symName: __ZNKSt3__116reverse_iteratorIPiEptB8ue170006Ev, symObjAddr: 0x3D64, symBinAddr: 0x100007298, symSize: 0x24 }
  - { offsetInCU: 0x18AA7, offset: 0x18AA7, size: 0x8, addend: 0x0, symName: __ZNKSt3__111__move_loopINS_17_ClassicAlgPolicyEEclB8ue170006INS_16reverse_iteratorIPiEES6_S6_EENS_4pairIT_T1_EES8_T0_S9_, symObjAddr: 0x4000, symBinAddr: 0x100007534, symSize: 0xA0 }
  - { offsetInCU: 0x18B17, offset: 0x18B17, size: 0x8, addend: 0x0, symName: __ZNSt3__18_IterOpsINS_17_ClassicAlgPolicyEE11__iter_moveB8ue170006IRNS_16reverse_iteratorIPiEEEENS_9enable_ifIXsr12is_referenceIDTdeclsr3stdE7declvalIRT_EEEEE5valueEDTclsr3stdE4movedeclsr3stdE7declvalISA_EEEEE4typeEOS9_, symObjAddr: 0x4200, symBinAddr: 0x100007734, symSize: 0x28 }
  - { offsetInCU: 0x18B43, offset: 0x18B43, size: 0x8, addend: 0x0, symName: __ZNSt3__18_IterOpsINS_17_ClassicAlgPolicyEE25__validate_iter_referenceB8ue170006IRNS_16reverse_iteratorIPiEEEEvv, symObjAddr: 0x4228, symBinAddr: 0x10000775C, symSize: 0x4 }
  - { offsetInCU: 0x18B61, offset: 0x18B61, size: 0x8, addend: 0x0, symName: __ZNSt3__118__unwrap_iter_implINS_16reverse_iteratorIPiEELb0EE8__unwrapB8ue170006ES3_, symObjAddr: 0x422C, symBinAddr: 0x100007760, symSize: 0x24 }
  - { offsetInCU: 0x18B84, offset: 0x18B84, size: 0x8, addend: 0x0, symName: __ZNSt3__14pairINS_16reverse_iteratorIPiEES3_EC1B8ue170006ERKS3_S6_, symObjAddr: 0x4250, symBinAddr: 0x100007784, symSize: 0x3C }
  - { offsetInCU: 0x18BCA, offset: 0x18BCA, size: 0x8, addend: 0x0, symName: __ZNSt3__14pairINS_16reverse_iteratorIPiEES3_EC2B8ue170006ERKS3_S6_, symObjAddr: 0x428C, symBinAddr: 0x1000077C0, symSize: 0x34 }
  - { offsetInCU: 0x18C10, offset: 0x18C10, size: 0x8, addend: 0x0, symName: __ZNSt3__118__unwrap_iter_implINS_16reverse_iteratorIPiEELb0EE8__rewrapB8ue170006ES3_S3_, symObjAddr: 0x42C0, symBinAddr: 0x1000077F4, symSize: 0x2C }
  - { offsetInCU: 0x18C3E, offset: 0x18C3E, size: 0x8, addend: 0x0, symName: __ZNSt3__116reverse_iteratorIPiEC2B8ue170006ES1_, symObjAddr: 0x42EC, symBinAddr: 0x100007820, symSize: 0x28 }
  - { offsetInCU: 0x18C76, offset: 0x18C76, size: 0x8, addend: 0x0, symName: __ZNSt3__114__split_bufferIiRNS_9allocatorIiEEED2Ev, symObjAddr: 0x4314, symBinAddr: 0x100007848, symSize: 0x80 }
  - { offsetInCU: 0x18CA2, offset: 0x18CA2, size: 0x8, addend: 0x0, symName: __ZNSt3__114__split_bufferIiRNS_9allocatorIiEEE5clearB8ue170006Ev, symObjAddr: 0x4394, symBinAddr: 0x1000078C8, symSize: 0x28 }
  - { offsetInCU: 0x18CC8, offset: 0x18CC8, size: 0x8, addend: 0x0, symName: __ZNSt3__116allocator_traitsINS_9allocatorIiEEE10deallocateB8ue170006ERS2_Pim, symObjAddr: 0x43BC, symBinAddr: 0x1000078F0, symSize: 0x34 }
  - { offsetInCU: 0x18D0A, offset: 0x18D0A, size: 0x8, addend: 0x0, symName: __ZNKSt3__114__split_bufferIiRNS_9allocatorIiEEE8capacityB8ue170006Ev, symObjAddr: 0x43F0, symBinAddr: 0x100007924, symSize: 0x40 }
  - { offsetInCU: 0x18D30, offset: 0x18D30, size: 0x8, addend: 0x0, symName: __ZNSt3__114__split_bufferIiRNS_9allocatorIiEEE17__destruct_at_endB8ue170006EPi, symObjAddr: 0x4430, symBinAddr: 0x100007964, symSize: 0x2C }
  - { offsetInCU: 0x18D64, offset: 0x18D64, size: 0x8, addend: 0x0, symName: __ZNSt3__114__split_bufferIiRNS_9allocatorIiEEE17__destruct_at_endB8ue170006EPiNS_17integral_constantIbLb0EEE, symObjAddr: 0x445C, symBinAddr: 0x100007990, symSize: 0x94 }
  - { offsetInCU: 0x18DA4, offset: 0x18DA4, size: 0x8, addend: 0x0, symName: __ZNSt3__19allocatorIiE10deallocateB8ue170006EPim, symObjAddr: 0x44F0, symBinAddr: 0x100007A24, symSize: 0x70 }
  - { offsetInCU: 0x18DE6, offset: 0x18DE6, size: 0x8, addend: 0x0, symName: __ZNKSt3__114__split_bufferIiRNS_9allocatorIiEEE9__end_capB8ue170006Ev, symObjAddr: 0x4560, symBinAddr: 0x100007A94, symSize: 0x28 }
  - { offsetInCU: 0x18E0C, offset: 0x18E0C, size: 0x8, addend: 0x0, symName: __ZNKSt3__117__compressed_pairIPiRNS_9allocatorIiEEE5firstB8ue170006Ev, symObjAddr: 0x4588, symBinAddr: 0x100007ABC, symSize: 0x24 }
  - { offsetInCU: 0x18E32, offset: 0x18E32, size: 0x8, addend: 0x0, symName: __ZNSt3__19basic_iosIcNS_11char_traitsIcEEEC2B8ue170006Ev, symObjAddr: 0x45AC, symBinAddr: 0x100007AE0, symSize: 0x44 }
  - { offsetInCU: 0x18E5C, offset: 0x18E5C, size: 0x8, addend: 0x0, symName: __ZNSt3__113basic_istreamIcNS_11char_traitsIcEEEC2B8ue170006EPNS_15basic_streambufIcS2_EE, symObjAddr: 0x45F0, symBinAddr: 0x100007B24, symSize: 0x64 }
  - { offsetInCU: 0x18EA1, offset: 0x18EA1, size: 0x8, addend: 0x0, symName: __ZNSt3__19basic_iosIcNS_11char_traitsIcEEE8setstateB8ue170006Ej, symObjAddr: 0x4654, symBinAddr: 0x100007B88, symSize: 0x2C }
  - { offsetInCU: 0x18ED6, offset: 0x18ED6, size: 0x8, addend: 0x0, symName: __ZNSt3__18ios_baseC2B8ue170006Ev, symObjAddr: 0x4680, symBinAddr: 0x100007BB4, symSize: 0x24 }
  - { offsetInCU: 0x18F00, offset: 0x18F00, size: 0x8, addend: 0x0, symName: __ZNSt3__19basic_iosIcNS_11char_traitsIcEEE4initB8ue170006EPNS_15basic_streambufIcS2_EE, symObjAddr: 0x46A4, symBinAddr: 0x100007BD8, symSize: 0x44 }
  - { offsetInCU: 0x18F36, offset: 0x18F36, size: 0x8, addend: 0x0, symName: __ZNSt3__111char_traitsIcE3eofB8ue170006Ev, symObjAddr: 0x46E8, symBinAddr: 0x100007C1C, symSize: 0x8 }
  - { offsetInCU: 0x18F4A, offset: 0x18F4A, size: 0x8, addend: 0x0, symName: __ZNSt3__18ios_base8setstateB8ue170006Ej, symObjAddr: 0x46F0, symBinAddr: 0x100007C24, symSize: 0x34 }
  - { offsetInCU: 0x18F80, offset: 0x18F80, size: 0x8, addend: 0x0, symName: __ZNKSt3__19basic_iosIcNS_11char_traitsIcEEE4failB8ue170006Ev, symObjAddr: 0x4724, symBinAddr: 0x100007C58, symSize: 0x28 }
  - { offsetInCU: 0x18FA6, offset: 0x18FA6, size: 0x8, addend: 0x0, symName: __ZNKSt3__18ios_base4failB8ue170006Ev, symObjAddr: 0x474C, symBinAddr: 0x100007C80, symSize: 0x28 }
  - { offsetInCU: 0x18FCE, offset: 0x18FCE, size: 0x8, addend: 0x0, symName: __ZNSt3__111char_traitsIcE6lengthB8ue170006EPKc, symObjAddr: 0x4968, symBinAddr: 0x100007E9C, symSize: 0x48 }
  - { offsetInCU: 0x1900F, offset: 0x1900F, size: 0x8, addend: 0x0, symName: __ZNKSt3__113basic_ostreamIcNS_11char_traitsIcEEE6sentrycvbB8ue170006Ev, symObjAddr: 0x49B0, symBinAddr: 0x100007EE4, symSize: 0x1C }
  - { offsetInCU: 0x19035, offset: 0x19035, size: 0x8, addend: 0x0, symName: __ZNSt3__119ostreambuf_iteratorIcNS_11char_traitsIcEEEC1B8ue170006ERNS_13basic_ostreamIcS2_EE, symObjAddr: 0x4C14, symBinAddr: 0x100008148, symSize: 0x34 }
  - { offsetInCU: 0x1906D, offset: 0x1906D, size: 0x8, addend: 0x0, symName: __ZNKSt3__18ios_base5flagsB8ue170006Ev, symObjAddr: 0x4C48, symBinAddr: 0x10000817C, symSize: 0x18 }
  - { offsetInCU: 0x19095, offset: 0x19095, size: 0x8, addend: 0x0, symName: __ZNKSt3__19basic_iosIcNS_11char_traitsIcEEE4fillB8ue170006Ev, symObjAddr: 0x4C60, symBinAddr: 0x100008194, symSize: 0x64 }
  - { offsetInCU: 0x190BC, offset: 0x190BC, size: 0x8, addend: 0x0, symName: __ZNKSt3__119ostreambuf_iteratorIcNS_11char_traitsIcEEE6failedB8ue170006Ev, symObjAddr: 0x4CC4, symBinAddr: 0x1000081F8, symSize: 0x24 }
  - { offsetInCU: 0x190E2, offset: 0x190E2, size: 0x8, addend: 0x0, symName: __ZNKSt3__18ios_base5widthB8ue170006Ev, symObjAddr: 0x4CE8, symBinAddr: 0x10000821C, symSize: 0x18 }
  - { offsetInCU: 0x1910A, offset: 0x1910A, size: 0x8, addend: 0x0, symName: __ZNSt3__115basic_streambufIcNS_11char_traitsIcEEE5sputnB8ue170006EPKcl, symObjAddr: 0x4D00, symBinAddr: 0x100008234, symSize: 0x3C }
  - { offsetInCU: 0x1914C, offset: 0x1914C, size: 0x8, addend: 0x0, symName: __ZNSt3__112basic_stringIcNS_11char_traitsIcEENS_9allocatorIcEEEC1B8ue170006Emc, symObjAddr: 0x4D3C, symBinAddr: 0x100008270, symSize: 0x3C }
  - { offsetInCU: 0x19194, offset: 0x19194, size: 0x8, addend: 0x0, symName: __ZNKSt3__112basic_stringIcNS_11char_traitsIcEENS_9allocatorIcEEE4dataB8ue170006Ev, symObjAddr: 0x4D78, symBinAddr: 0x1000082AC, symSize: 0x28 }
  - { offsetInCU: 0x191BA, offset: 0x191BA, size: 0x8, addend: 0x0, symName: __ZNSt3__18ios_base5widthB8ue170006El, symObjAddr: 0x4DA0, symBinAddr: 0x1000082D4, symSize: 0x2C }
  - { offsetInCU: 0x19200, offset: 0x19200, size: 0x8, addend: 0x0, symName: __ZNSt3__112basic_stringIcNS_11char_traitsIcEENS_9allocatorIcEEEC2B8ue170006Emc, symObjAddr: 0x4DCC, symBinAddr: 0x100008300, symSize: 0x4C }
  - { offsetInCU: 0x19248, offset: 0x19248, size: 0x8, addend: 0x0, symName: __ZNSt3__117__compressed_pairINS_12basic_stringIcNS_11char_traitsIcEENS_9allocatorIcEEE5__repES5_EC1B8ue170006INS_18__default_init_tagESA_EEOT_OT0_, symObjAddr: 0x4E18, symBinAddr: 0x10000834C, symSize: 0x3C }
  - { offsetInCU: 0x192A0, offset: 0x192A0, size: 0x8, addend: 0x0, symName: __ZNSt3__117__compressed_pairINS_12basic_stringIcNS_11char_traitsIcEENS_9allocatorIcEEE5__repES5_EC2B8ue170006INS_18__default_init_tagESA_EEOT_OT0_, symObjAddr: 0x4E54, symBinAddr: 0x100008388, symSize: 0x3C }
  - { offsetInCU: 0x192F8, offset: 0x192F8, size: 0x8, addend: 0x0, symName: __ZNSt3__122__compressed_pair_elemINS_12basic_stringIcNS_11char_traitsIcEENS_9allocatorIcEEE5__repELi0ELb0EEC2B8ue170006ENS_18__default_init_tagE, symObjAddr: 0x4E90, symBinAddr: 0x1000083C4, symSize: 0x14 }
  - { offsetInCU: 0x1932D, offset: 0x1932D, size: 0x8, addend: 0x0, symName: __ZNSt3__122__compressed_pair_elemINS_9allocatorIcEELi1ELb1EEC2B8ue170006ENS_18__default_init_tagE, symObjAddr: 0x4EA4, symBinAddr: 0x1000083D8, symSize: 0x2C }
  - { offsetInCU: 0x19362, offset: 0x19362, size: 0x8, addend: 0x0, symName: __ZNSt3__19allocatorIcEC2B8ue170006Ev, symObjAddr: 0x4ED0, symBinAddr: 0x100008404, symSize: 0x2C }
  - { offsetInCU: 0x1938C, offset: 0x1938C, size: 0x8, addend: 0x0, symName: __ZNSt3__116__non_trivial_ifILb1ENS_9allocatorIcEEEC2B8ue170006Ev, symObjAddr: 0x4EFC, symBinAddr: 0x100008430, symSize: 0x14 }
  - { offsetInCU: 0x193B6, offset: 0x193B6, size: 0x8, addend: 0x0, symName: __ZNKSt3__112basic_stringIcNS_11char_traitsIcEENS_9allocatorIcEEE13__get_pointerB8ue170006Ev, symObjAddr: 0x4F24, symBinAddr: 0x100008458, symSize: 0x54 }
  - { offsetInCU: 0x193DC, offset: 0x193DC, size: 0x8, addend: 0x0, symName: __ZNKSt3__112basic_stringIcNS_11char_traitsIcEENS_9allocatorIcEEE18__get_long_pointerB8ue170006Ev, symObjAddr: 0x4F78, symBinAddr: 0x1000084AC, symSize: 0x28 }
  - { offsetInCU: 0x19402, offset: 0x19402, size: 0x8, addend: 0x0, symName: __ZNKSt3__112basic_stringIcNS_11char_traitsIcEENS_9allocatorIcEEE19__get_short_pointerB8ue170006Ev, symObjAddr: 0x4FA0, symBinAddr: 0x1000084D4, symSize: 0x28 }
  - { offsetInCU: 0x19428, offset: 0x19428, size: 0x8, addend: 0x0, symName: __ZNSt3__114pointer_traitsIPKcE10pointer_toB8ue170006ERS1_, symObjAddr: 0x4FC8, symBinAddr: 0x1000084FC, symSize: 0x14 }
  - { offsetInCU: 0x1944B, offset: 0x1944B, size: 0x8, addend: 0x0, symName: __ZNSt3__119ostreambuf_iteratorIcNS_11char_traitsIcEEEC2B8ue170006ERNS_13basic_ostreamIcS2_EE, symObjAddr: 0x4FDC, symBinAddr: 0x100008510, symSize: 0x68 }
  - { offsetInCU: 0x19483, offset: 0x19483, size: 0x8, addend: 0x0, symName: __ZNKSt3__19basic_iosIcNS_11char_traitsIcEEE5rdbufB8ue170006Ev, symObjAddr: 0x5044, symBinAddr: 0x100008578, symSize: 0x24 }
  - { offsetInCU: 0x194AA, offset: 0x194AA, size: 0x8, addend: 0x0, symName: __ZNKSt3__18ios_base5rdbufB8ue170006Ev, symObjAddr: 0x5068, symBinAddr: 0x10000859C, symSize: 0x18 }
  - { offsetInCU: 0x194D0, offset: 0x194D0, size: 0x8, addend: 0x0, symName: __ZNSt3__111char_traitsIcE11eq_int_typeB8ue170006Eii, symObjAddr: 0x5080, symBinAddr: 0x1000085B4, symSize: 0x28 }
  - { offsetInCU: 0x19503, offset: 0x19503, size: 0x8, addend: 0x0, symName: __ZNKSt3__19basic_iosIcNS_11char_traitsIcEEE5widenB8ue170006Ec, symObjAddr: 0x50A8, symBinAddr: 0x1000085DC, symSize: 0x8C }
  - { offsetInCU: 0x19570, offset: 0x19570, size: 0x8, addend: 0x0, symName: __ZNKSt3__15ctypeIcE5widenB8ue170006Ec, symObjAddr: 0x5160, symBinAddr: 0x100008694, symSize: 0x38 }
  - { offsetInCU: 0x195A5, offset: 0x195A5, size: 0x8, addend: 0x0, symName: __ZNSt3__112basic_stringIcNS_11char_traitsIcEENS_9allocatorIcEEEC2B8ue170006Ev, symObjAddr: 0x51BC, symBinAddr: 0x1000086F0, symSize: 0x3C }
  - { offsetInCU: 0x195CF, offset: 0x195CF, size: 0x8, addend: 0x0, symName: __ZNSt3__112basic_stringIcNS_11char_traitsIcEENS_9allocatorIcEEE14__default_initB8ue170006Ev, symObjAddr: 0x51F8, symBinAddr: 0x10000872C, symSize: 0xB0 }
  - { offsetInCU: 0x19622, offset: 0x19622, size: 0x8, addend: 0x0, symName: __ZNSt3__112basic_stringIcNS_11char_traitsIcEENS_9allocatorIcEEE11__recommendB8ue170006Em, symObjAddr: 0x52A8, symBinAddr: 0x1000087DC, symSize: 0x9C }
  - { offsetInCU: 0x19655, offset: 0x19655, size: 0x8, addend: 0x0, symName: __ZNSt3__116allocator_traitsINS_9allocatorIcEEE8allocateB8ue170006ERS2_m, symObjAddr: 0x5344, symBinAddr: 0x100008878, symSize: 0x2C }
  - { offsetInCU: 0x19688, offset: 0x19688, size: 0x8, addend: 0x0, symName: __ZNSt3__112basic_stringIcNS_11char_traitsIcEENS_9allocatorIcEEE7__allocB8ue170006Ev, symObjAddr: 0x5370, symBinAddr: 0x1000088A4, symSize: 0x24 }
  - { offsetInCU: 0x196AE, offset: 0x196AE, size: 0x8, addend: 0x0, symName: __ZNSt3__112basic_stringIcNS_11char_traitsIcEENS_9allocatorIcEEE16__begin_lifetimeB8ue170006EPcm, symObjAddr: 0x5394, symBinAddr: 0x1000088C8, symSize: 0x14 }
  - { offsetInCU: 0x196E1, offset: 0x196E1, size: 0x8, addend: 0x0, symName: __ZNSt3__112basic_stringIcNS_11char_traitsIcEENS_9allocatorIcEEE18__set_long_pointerB8ue170006EPc, symObjAddr: 0x53A8, symBinAddr: 0x1000088DC, symSize: 0x38 }
  - { offsetInCU: 0x19716, offset: 0x19716, size: 0x8, addend: 0x0, symName: __ZNSt3__112basic_stringIcNS_11char_traitsIcEENS_9allocatorIcEEE14__set_long_capB8ue170006Em, symObjAddr: 0x53E0, symBinAddr: 0x100008914, symSize: 0x70 }
  - { offsetInCU: 0x1974B, offset: 0x1974B, size: 0x8, addend: 0x0, symName: __ZNSt3__112basic_stringIcNS_11char_traitsIcEENS_9allocatorIcEEE15__set_long_sizeB8ue170006Em, symObjAddr: 0x5450, symBinAddr: 0x100008984, symSize: 0x38 }
  - { offsetInCU: 0x19780, offset: 0x19780, size: 0x8, addend: 0x0, symName: __ZNSt3__112basic_stringIcNS_11char_traitsIcEENS_9allocatorIcEEE10__align_itB8ue170006ILm16EEEmm, symObjAddr: 0x5488, symBinAddr: 0x1000089BC, symSize: 0x1C }
  - { offsetInCU: 0x197AE, offset: 0x197AE, size: 0x8, addend: 0x0, symName: __ZNSt3__19allocatorIcE8allocateB8ue170006Em, symObjAddr: 0x54A4, symBinAddr: 0x1000089D8, symSize: 0x84 }
  - { offsetInCU: 0x197EC, offset: 0x197EC, size: 0x8, addend: 0x0, symName: __ZNSt3__116allocator_traitsINS_9allocatorIcEEE8max_sizeB8ue170006IS2_vEEmRKS2_, symObjAddr: 0x5528, symBinAddr: 0x100008A5C, symSize: 0x24 }
  - { offsetInCU: 0x1981A, offset: 0x1981A, size: 0x8, addend: 0x0, symName: __ZNKSt3__19allocatorIcE8max_sizeB8ue170006Ev, symObjAddr: 0x554C, symBinAddr: 0x100008A80, symSize: 0x14 }
  - { offsetInCU: 0x19840, offset: 0x19840, size: 0x8, addend: 0x0, symName: __ZNSt3__117__compressed_pairINS_12basic_stringIcNS_11char_traitsIcEENS_9allocatorIcEEE5__repES5_E6secondB8ue170006Ev, symObjAddr: 0x5560, symBinAddr: 0x100008A94, symSize: 0x24 }
  - { offsetInCU: 0x19866, offset: 0x19866, size: 0x8, addend: 0x0, symName: __ZNSt3__122__compressed_pair_elemINS_9allocatorIcEELi1ELb1EE5__getB8ue170006Ev, symObjAddr: 0x5584, symBinAddr: 0x100008AB8, symSize: 0x14 }
  - { offsetInCU: 0x198AA, offset: 0x198AA, size: 0x8, addend: 0x0, symName: __ZNKSt3__113basic_istreamIcNS_11char_traitsIcEEE6sentrycvbB8ue170006Ev, symObjAddr: 0x57D0, symBinAddr: 0x100008D04, symSize: 0x1C }
  - { offsetInCU: 0x198D0, offset: 0x198D0, size: 0x8, addend: 0x0, symName: __ZNSt3__112basic_stringIcNS_11char_traitsIcEENS_9allocatorIcEEE5clearB8ue170006Ev, symObjAddr: 0x57EC, symBinAddr: 0x100008D20, symSize: 0x78 }
  - { offsetInCU: 0x198F7, offset: 0x198F7, size: 0x8, addend: 0x0, symName: __ZNSt3__115basic_streambufIcNS_11char_traitsIcEEE6sbumpcB8ue170006Ev, symObjAddr: 0x5864, symBinAddr: 0x100008D98, symSize: 0x78 }
  - { offsetInCU: 0x1991D, offset: 0x1991D, size: 0x8, addend: 0x0, symName: __ZNSt3__111char_traitsIcE12to_char_typeB8ue170006Ei, symObjAddr: 0x58DC, symBinAddr: 0x100008E10, symSize: 0x18 }
  - { offsetInCU: 0x19940, offset: 0x19940, size: 0x8, addend: 0x0, symName: __ZNSt3__111char_traitsIcE2eqEcc, symObjAddr: 0x58F4, symBinAddr: 0x100008E28, symSize: 0x28 }
  - { offsetInCU: 0x19971, offset: 0x19971, size: 0x8, addend: 0x0, symName: __ZNKSt3__112basic_stringIcNS_11char_traitsIcEENS_9allocatorIcEEE8max_sizeB8ue170006Ev, symObjAddr: 0x591C, symBinAddr: 0x100008E50, symSize: 0xAC }
  - { offsetInCU: 0x199C4, offset: 0x199C4, size: 0x8, addend: 0x0, symName: __ZNSt3__18ios_base18__setstate_nothrowB8ue170006Ej, symObjAddr: 0x59C8, symBinAddr: 0x100008EFC, symSize: 0x64 }
  - { offsetInCU: 0x199F9, offset: 0x199F9, size: 0x8, addend: 0x0, symName: __ZNKSt3__19basic_iosIcNS_11char_traitsIcEEE10exceptionsB8ue170006Ev, symObjAddr: 0x5A2C, symBinAddr: 0x100008F60, symSize: 0x24 }
  - { offsetInCU: 0x19A1F, offset: 0x19A1F, size: 0x8, addend: 0x0, symName: __ZNSt3__111char_traitsIcE6assignB8ue170006ERcRKc, symObjAddr: 0x5A50, symBinAddr: 0x100008F84, symSize: 0x24 }
  - { offsetInCU: 0x19A50, offset: 0x19A50, size: 0x8, addend: 0x0, symName: __ZNSt3__112basic_stringIcNS_11char_traitsIcEENS_9allocatorIcEEE16__set_short_sizeB8ue170006Em, symObjAddr: 0x5A74, symBinAddr: 0x100008FA8, symSize: 0x78 }
  - { offsetInCU: 0x19A85, offset: 0x19A85, size: 0x8, addend: 0x0, symName: __ZNSt3__111char_traitsIcE11to_int_typeB8ue170006Ec, symObjAddr: 0x5AEC, symBinAddr: 0x100009020, symSize: 0x14 }
  - { offsetInCU: 0x19AA9, offset: 0x19AA9, size: 0x8, addend: 0x0, symName: __ZNKSt3__112basic_stringIcNS_11char_traitsIcEENS_9allocatorIcEEE7__allocB8ue170006Ev, symObjAddr: 0x5B00, symBinAddr: 0x100009034, symSize: 0x24 }
  - { offsetInCU: 0x19ACF, offset: 0x19ACF, size: 0x8, addend: 0x0, symName: __ZNSt3__114numeric_limitsImE3maxB8ue170006Ev, symObjAddr: 0x5B24, symBinAddr: 0x100009058, symSize: 0x14 }
  - { offsetInCU: 0x19AE3, offset: 0x19AE3, size: 0x8, addend: 0x0, symName: __ZNKSt3__117__compressed_pairINS_12basic_stringIcNS_11char_traitsIcEENS_9allocatorIcEEE5__repES5_E6secondB8ue170006Ev, symObjAddr: 0x5B38, symBinAddr: 0x10000906C, symSize: 0x24 }
  - { offsetInCU: 0x19B09, offset: 0x19B09, size: 0x8, addend: 0x0, symName: __ZNKSt3__122__compressed_pair_elemINS_9allocatorIcEELi1ELb1EE5__getB8ue170006Ev, symObjAddr: 0x5B5C, symBinAddr: 0x100009090, symSize: 0x14 }
  - { offsetInCU: 0x19B2F, offset: 0x19B2F, size: 0x8, addend: 0x0, symName: __ZNSt3__123__libcpp_numeric_limitsImLb1EE3maxB8ue170006Ev, symObjAddr: 0x5B70, symBinAddr: 0x1000090A4, symSize: 0x8 }
  - { offsetInCU: 0x19B43, offset: 0x19B43, size: 0x8, addend: 0x0, symName: __ZNKSt3__18ios_base10exceptionsB8ue170006Ev, symObjAddr: 0x5B78, symBinAddr: 0x1000090AC, symSize: 0x18 }
  - { offsetInCU: 0x19B6B, offset: 0x19B6B, size: 0x8, addend: 0x0, symName: __ZNSt3__16vectorIiNS_9allocatorIiEEEC2B8ue170006Ev, symObjAddr: 0x5B90, symBinAddr: 0x1000090C4, symSize: 0x44 }
  - { offsetInCU: 0x19B95, offset: 0x19B95, size: 0x8, addend: 0x0, symName: __ZNSt3__117__compressed_pairIPiNS_9allocatorIiEEEC1B8ue170006IDnNS_18__default_init_tagEEEOT_OT0_, symObjAddr: 0x5BD4, symBinAddr: 0x100009108, symSize: 0x3C }
  - { offsetInCU: 0x19BED, offset: 0x19BED, size: 0x8, addend: 0x0, symName: __ZNSt3__117__compressed_pairIPiNS_9allocatorIiEEEC2B8ue170006IDnNS_18__default_init_tagEEEOT_OT0_, symObjAddr: 0x5C10, symBinAddr: 0x100009144, symSize: 0x40 }
  - { offsetInCU: 0x19C45, offset: 0x19C45, size: 0x8, addend: 0x0, symName: __ZNSt3__122__compressed_pair_elemINS_9allocatorIiEELi1ELb1EEC2B8ue170006ENS_18__default_init_tagE, symObjAddr: 0x5C50, symBinAddr: 0x100009184, symSize: 0x2C }
  - { offsetInCU: 0x19C7A, offset: 0x19C7A, size: 0x8, addend: 0x0, symName: __ZNSt3__19allocatorIiEC2B8ue170006Ev, symObjAddr: 0x5C7C, symBinAddr: 0x1000091B0, symSize: 0x2C }
  - { offsetInCU: 0x19CA4, offset: 0x19CA4, size: 0x8, addend: 0x0, symName: __ZNSt3__116__non_trivial_ifILb1ENS_9allocatorIiEEEC2B8ue170006Ev, symObjAddr: 0x5CA8, symBinAddr: 0x1000091DC, symSize: 0x14 }
  - { offsetInCU: 0x19CCE, offset: 0x19CCE, size: 0x8, addend: 0x0, symName: __ZNSt3__16vectorIiNS_9allocatorIiEEED2B8ue170006Ev, symObjAddr: 0x5CBC, symBinAddr: 0x1000091F0, symSize: 0x3C }
  - { offsetInCU: 0x19CF8, offset: 0x19CF8, size: 0x8, addend: 0x0, symName: __ZNSt3__16vectorIiNS_9allocatorIiEEE16__destroy_vectorC1B8ue170006ERS3_, symObjAddr: 0x5CF8, symBinAddr: 0x10000922C, symSize: 0x34 }
  - { offsetInCU: 0x19D31, offset: 0x19D31, size: 0x8, addend: 0x0, symName: __ZNSt3__16vectorIiNS_9allocatorIiEEE16__destroy_vectorclB8ue170006Ev, symObjAddr: 0x5D2C, symBinAddr: 0x100009260, symSize: 0x90 }
  - { offsetInCU: 0x19D57, offset: 0x19D57, size: 0x8, addend: 0x0, symName: __ZNSt3__16vectorIiNS_9allocatorIiEEE16__destroy_vectorC2B8ue170006ERS3_, symObjAddr: 0x5DBC, symBinAddr: 0x1000092F0, symSize: 0x20 }
  - { offsetInCU: 0x19D90, offset: 0x19D90, size: 0x8, addend: 0x0, symName: __ZNSt3__19allocatorIcEC1B8ue170006Ev, symObjAddr: 0x5DDC, symBinAddr: 0x100009310, symSize: 0x2C }
  - { offsetInCU: 0x19DBA, offset: 0x19DBA, size: 0x8, addend: 0x0, symName: __ZNSt3__112basic_stringIcNS_11char_traitsIcEENS_9allocatorIcEEEC2B8ue170006ILi0EEEPKc, symObjAddr: 0x5E08, symBinAddr: 0x10000933C, symSize: 0x58 }
  - { offsetInCU: 0x26, offset: 0x1A477, size: 0x8, addend: 0x0, symName: __ZN18ECAirlineFinancial14CalculatePriceER17ECFlightItinerary, symObjAddr: 0x0, symBinAddr: 0x1000095B8, symSize: 0xB4 }
  - { offsetInCU: 0x56AA, offset: 0x1FAFB, size: 0x8, addend: 0x0, symName: __ZN18ECAirlineFinancial14CalculatePriceER17ECFlightItinerary, symObjAddr: 0x0, symBinAddr: 0x1000095B8, symSize: 0xB4 }
  - { offsetInCU: 0x6306, offset: 0x25E67, size: 0x8, addend: 0x0, symName: __ZNSt3__1eqB8ue170006INS_9allocatorIcEEEEbRKNS_12basic_stringIcNS_11char_traitsIcEET_EES9_, symObjAddr: 0x65C, symBinAddr: 0x100009CBC, symSize: 0x148 }
  - { offsetInCU: 0x63AC, offset: 0x25F0D, size: 0x8, addend: 0x0, symName: __ZNSt3__112__to_addressB8ue170006IP8ECFlightEEPT_S4_, symObjAddr: 0x1028, symBinAddr: 0x10000A688, symSize: 0x14 }
  - { offsetInCU: 0x646E, offset: 0x25FCF, size: 0x8, addend: 0x0, symName: __ZNSt3__112__to_addressB8ue170006I8ECFlightEEPT_S3_, symObjAddr: 0x18C4, symBinAddr: 0x10000AE9C, symSize: 0x14 }
  - { offsetInCU: 0x64A3, offset: 0x26004, size: 0x8, addend: 0x0, symName: __ZNSt3__119__allocate_at_leastB8ue170006INS_9allocatorIP8ECFlightEEEENS_19__allocation_resultINS_16allocator_traitsIT_E7pointerEEERS7_m, symObjAddr: 0x25C4, symBinAddr: 0x10000B968, symSize: 0x40 }
  - { offsetInCU: 0x64E6, offset: 0x26047, size: 0x8, addend: 0x0, symName: __ZNSt3__142__uninitialized_allocator_move_if_noexceptB8ue170006INS_9allocatorIP8ECFlightEENS_16reverse_iteratorIPS3_EES7_S3_vEET1_RT_T0_SB_S8_, symObjAddr: 0x2824, symBinAddr: 0x10000BB48, symSize: 0xE8 }
  - { offsetInCU: 0x6563, offset: 0x260C4, size: 0x8, addend: 0x0, symName: __ZNSt3__14swapB8ue170006IPP8ECFlightEEvRT_S5_, symObjAddr: 0x2958, symBinAddr: 0x10000BC7C, symSize: 0x3C }
  - { offsetInCU: 0x65B4, offset: 0x26115, size: 0x8, addend: 0x0, symName: __ZNSt3__1neB8ue170006IPP8ECFlightS3_EEbRKNS_16reverse_iteratorIT_EERKNS4_IT0_EE, symObjAddr: 0x2A40, symBinAddr: 0x10000BD64, symSize: 0x48 }
  - { offsetInCU: 0x6625, offset: 0x26186, size: 0x8, addend: 0x0, symName: __ZNSt3__114__construct_atB8ue170006IP8ECFlightJS2_EPS2_EEPT_S5_DpOT0_, symObjAddr: 0x2A88, symBinAddr: 0x10000BDAC, symSize: 0x2C }
  - { offsetInCU: 0x6695, offset: 0x261F6, size: 0x8, addend: 0x0, symName: __ZNSt3__112__to_addressB8ue170006INS_16reverse_iteratorIPP8ECFlightEEvEEu7__decayIDTclsr19__to_address_helperIT_EE6__callclsr3stdE7declvalIRKS6_EEEEES8_, symObjAddr: 0x2AB4, symBinAddr: 0x10000BDD8, symSize: 0x24 }
  - { offsetInCU: 0x66CB, offset: 0x2622C, size: 0x8, addend: 0x0, symName: __ZNSt3__14moveB8ue170006INS_16reverse_iteratorIPP8ECFlightEES5_EET0_T_S7_S6_, symObjAddr: 0x2B20, symBinAddr: 0x10000BE44, symSize: 0x78 }
  - { offsetInCU: 0x674E, offset: 0x262AF, size: 0x8, addend: 0x0, symName: __ZNSt3__16__moveB8ue170006INS_17_ClassicAlgPolicyENS_16reverse_iteratorIPP8ECFlightEES6_S6_EENS_4pairIT0_T2_EES8_T1_S9_, symObjAddr: 0x2C08, symBinAddr: 0x10000BF2C, symSize: 0x64 }
  - { offsetInCU: 0x67BA, offset: 0x2631B, size: 0x8, addend: 0x0, symName: __ZNSt3__123__dispatch_copy_or_moveB8ue170006INS_17_ClassicAlgPolicyENS_11__move_loopIS1_EENS_14__move_trivialENS_16reverse_iteratorIPP8ECFlightEES9_S9_EENS_4pairIT2_T4_EESB_T3_SC_, symObjAddr: 0x2C6C, symBinAddr: 0x10000BF90, symSize: 0x64 }
  - { offsetInCU: 0x6838, offset: 0x26399, size: 0x8, addend: 0x0, symName: __ZNSt3__121__unwrap_and_dispatchB8ue170006INS_10__overloadINS_11__move_loopINS_17_ClassicAlgPolicyEEENS_14__move_trivialEEENS_16reverse_iteratorIPP8ECFlightEESB_SB_Li0EEENS_4pairIT0_T2_EESD_T1_SE_, symObjAddr: 0x2CD0, symBinAddr: 0x10000BFF4, symSize: 0x12C }
  - { offsetInCU: 0x68C8, offset: 0x26429, size: 0x8, addend: 0x0, symName: __ZNSt3__114__unwrap_rangeB8ue170006INS_16reverse_iteratorIPP8ECFlightEES5_EENS_4pairIT0_S7_EET_S9_, symObjAddr: 0x2DFC, symBinAddr: 0x10000C120, symSize: 0x84 }
  - { offsetInCU: 0x6A13, offset: 0x26574, size: 0x8, addend: 0x0, symName: __ZNSt3__113__unwrap_iterB8ue170006INS_16reverse_iteratorIPP8ECFlightEENS_18__unwrap_iter_implIS5_Lb0EEELi0EEEDTclsrT0_8__unwrapclsr3stdE7declvalIT_EEEES9_, symObjAddr: 0x2F20, symBinAddr: 0x10000C244, symSize: 0x44 }
  - { offsetInCU: 0x6A57, offset: 0x265B8, size: 0x8, addend: 0x0, symName: __ZNSt3__19make_pairB8ue170006INS_16reverse_iteratorIPP8ECFlightEES5_EENS_4pairINS_18__unwrap_ref_decayIT_E4typeENS7_IT0_E4typeEEEOS8_OSB_, symObjAddr: 0x2F64, symBinAddr: 0x10000C288, symSize: 0x38 }
  - { offsetInCU: 0x6AA6, offset: 0x26607, size: 0x8, addend: 0x0, symName: __ZNSt3__114__rewrap_rangeB8ue170006INS_16reverse_iteratorIPP8ECFlightEES5_EET_S6_T0_, symObjAddr: 0x2F9C, symBinAddr: 0x10000C2C0, symSize: 0x5C }
  - { offsetInCU: 0x6AF2, offset: 0x26653, size: 0x8, addend: 0x0, symName: __ZNSt3__113__rewrap_iterB8ue170006INS_16reverse_iteratorIPP8ECFlightEES5_NS_18__unwrap_iter_implIS5_Lb0EEEEET_S8_T0_, symObjAddr: 0x2FF8, symBinAddr: 0x10000C31C, symSize: 0x88 }
  - { offsetInCU: 0x733F, offset: 0x26EA0, size: 0x8, addend: 0x0, symName: __ZNSt3__16vectorIP8ECFlightNS_9allocatorIS2_EEE26__swap_out_circular_bufferERNS_14__split_bufferIS2_RS4_EE, symObjAddr: 0x201C, symBinAddr: 0x10000B5F4, symSize: 0x110 }
  - { offsetInCU: 0x934B, offset: 0x28EAC, size: 0x8, addend: 0x0, symName: __ZN18ECAirlineOperationC2Ev, symObjAddr: 0x0, symBinAddr: 0x10000966C, symSize: 0xA8 }
  - { offsetInCU: 0x9377, offset: 0x28ED8, size: 0x8, addend: 0x0, symName: __ZNSt3__16vectorIP8ECFlightNS_9allocatorIS2_EEEC1B8ue170006Ev, symObjAddr: 0xA8, symBinAddr: 0x100009714, symSize: 0x2C }
  - { offsetInCU: 0x93A1, offset: 0x28F02, size: 0x8, addend: 0x0, symName: __ZNSt3__13mapINS_12basic_stringIcNS_11char_traitsIcEENS_9allocatorIcEEEENS_6vectorI8ECFlightNS4_IS8_EEEENS_4lessIS6_EENS4_INS_4pairIKS6_SA_EEEEEC1B8ue170006Ev, symObjAddr: 0xD4, symBinAddr: 0x100009740, symSize: 0x2C }
  - { offsetInCU: 0x93CB, offset: 0x28F2C, size: 0x8, addend: 0x0, symName: __ZNSt3__13mapINS_12basic_stringIcNS_11char_traitsIcEENS_9allocatorIcEEEENS_6vectorI8ECFlightNS4_IS8_EEEENS_4lessIS6_EENS4_INS_4pairIKS6_SA_EEEEED1B8ue170006Ev, symObjAddr: 0x100, symBinAddr: 0x10000976C, symSize: 0x2C }
  - { offsetInCU: 0x93F5, offset: 0x28F56, size: 0x8, addend: 0x0, symName: __ZNSt3__16vectorIP8ECFlightNS_9allocatorIS2_EEED1B8ue170006Ev, symObjAddr: 0x138, symBinAddr: 0x100009798, symSize: 0x2C }
  - { offsetInCU: 0x941F, offset: 0x28F80, size: 0x8, addend: 0x0, symName: __ZN18ECAirlineOperationC1Ev, symObjAddr: 0x164, symBinAddr: 0x1000097C4, symSize: 0x2C }
  - { offsetInCU: 0x944B, offset: 0x28FAC, size: 0x8, addend: 0x0, symName: __ZN18ECAirlineOperationD2Ev, symObjAddr: 0x190, symBinAddr: 0x1000097F0, symSize: 0x13C }
  - { offsetInCU: 0x9493, offset: 0x28FF4, size: 0x8, addend: 0x0, symName: __ZNKSt3__16vectorIP8ECFlightNS_9allocatorIS2_EEE4sizeB8ue170006Ev, symObjAddr: 0x2CC, symBinAddr: 0x10000992C, symSize: 0x28 }
  - { offsetInCU: 0x94BA, offset: 0x2901B, size: 0x8, addend: 0x0, symName: __ZNSt3__16vectorIP8ECFlightNS_9allocatorIS2_EEEixB8ue170006Em, symObjAddr: 0x2F4, symBinAddr: 0x100009954, symSize: 0x24 }
  - { offsetInCU: 0x94F1, offset: 0x29052, size: 0x8, addend: 0x0, symName: __ZNSt3__16vectorIP8ECFlightNS_9allocatorIS2_EEE5clearB8ue170006Ev, symObjAddr: 0x318, symBinAddr: 0x100009978, symSize: 0x44 }
  - { offsetInCU: 0x9525, offset: 0x29086, size: 0x8, addend: 0x0, symName: __ZN18ECAirlineOperationD1Ev, symObjAddr: 0x35C, symBinAddr: 0x1000099BC, symSize: 0x2C }
  - { offsetInCU: 0x9551, offset: 0x290B2, size: 0x8, addend: 0x0, symName: __ZN18ECAirlineOperation9AddFlightERKNSt3__112basic_stringIcNS0_11char_traitsIcEENS0_9allocatorIcEEEES8_did, symObjAddr: 0x388, symBinAddr: 0x1000099E8, symSize: 0x94 }
  - { offsetInCU: 0x95CC, offset: 0x2912D, size: 0x8, addend: 0x0, symName: __ZNSt3__16vectorIP8ECFlightNS_9allocatorIS2_EEE9push_backB8ue170006ERKS2_, symObjAddr: 0x41C, symBinAddr: 0x100009A7C, symSize: 0x6C }
  - { offsetInCU: 0x9603, offset: 0x29164, size: 0x8, addend: 0x0, symName: __ZN18ECAirlineOperation10AddAirportERKNSt3__112basic_stringIcNS0_11char_traitsIcEENS0_9allocatorIcEEEES8_, symObjAddr: 0x488, symBinAddr: 0x100009AE8, symSize: 0x34 }
  - { offsetInCU: 0x9647, offset: 0x291A8, size: 0x8, addend: 0x0, symName: __ZN18ECAirlineOperation15PostFlightSetupEv, symObjAddr: 0x4BC, symBinAddr: 0x100009B1C, symSize: 0x10 }
  - { offsetInCU: 0x966F, offset: 0x291D0, size: 0x8, addend: 0x0, symName: __ZN18ECAirlineOperation18SetDistBtwAirportsERKNSt3__112basic_stringIcNS0_11char_traitsIcEENS0_9allocatorIcEEEES8_i, symObjAddr: 0x4CC, symBinAddr: 0x100009B2C, symSize: 0x3C }
  - { offsetInCU: 0x96C1, offset: 0x29222, size: 0x8, addend: 0x0, symName: __ZN18ECAirlineOperation14GetFlightsFromERKNSt3__112basic_stringIcNS0_11char_traitsIcEENS0_9allocatorIcEEEE, symObjAddr: 0x508, symBinAddr: 0x100009B68, symSize: 0x154 }
  - { offsetInCU: 0x971A, offset: 0x2927B, size: 0x8, addend: 0x0, symName: __ZN18ECAirlineOperation11GetAirportsERNSt3__16vectorINS0_12basic_stringIcNS0_11char_traitsIcEENS0_9allocatorIcEEEENS5_IS7_EEEE, symObjAddr: 0x7A4, symBinAddr: 0x100009E04, symSize: 0x2C }
  - { offsetInCU: 0x974F, offset: 0x292B0, size: 0x8, addend: 0x0, symName: __ZNSt3__16vectorIP8ECFlightNS_9allocatorIS2_EEEC2B8ue170006Ev, symObjAddr: 0x7D0, symBinAddr: 0x100009E30, symSize: 0x44 }
  - { offsetInCU: 0x9783, offset: 0x292E4, size: 0x8, addend: 0x0, symName: __ZNSt3__117__compressed_pairIPP8ECFlightNS_9allocatorIS2_EEEC1B8ue170006IDnNS_18__default_init_tagEEEOT_OT0_, symObjAddr: 0x814, symBinAddr: 0x100009E74, symSize: 0x3C }
  - { offsetInCU: 0x97DB, offset: 0x2933C, size: 0x8, addend: 0x0, symName: __ZNSt3__117__compressed_pairIPP8ECFlightNS_9allocatorIS2_EEEC2B8ue170006IDnNS_18__default_init_tagEEEOT_OT0_, symObjAddr: 0x850, symBinAddr: 0x100009EB0, symSize: 0x40 }
  - { offsetInCU: 0x9834, offset: 0x29395, size: 0x8, addend: 0x0, symName: __ZNSt3__122__compressed_pair_elemIPP8ECFlightLi0ELb0EEC2B8ue170006IDnvEEOT_, symObjAddr: 0x890, symBinAddr: 0x100009EF0, symSize: 0x1C }
  - { offsetInCU: 0x9875, offset: 0x293D6, size: 0x8, addend: 0x0, symName: __ZNSt3__122__compressed_pair_elemINS_9allocatorIP8ECFlightEELi1ELb1EEC2B8ue170006ENS_18__default_init_tagE, symObjAddr: 0x8AC, symBinAddr: 0x100009F0C, symSize: 0x2C }
  - { offsetInCU: 0x98AA, offset: 0x2940B, size: 0x8, addend: 0x0, symName: __ZNSt3__19allocatorIP8ECFlightEC2B8ue170006Ev, symObjAddr: 0x8D8, symBinAddr: 0x100009F38, symSize: 0x2C }
  - { offsetInCU: 0x98D5, offset: 0x29436, size: 0x8, addend: 0x0, symName: __ZNSt3__116__non_trivial_ifILb1ENS_9allocatorIP8ECFlightEEEC2B8ue170006Ev, symObjAddr: 0x904, symBinAddr: 0x100009F64, symSize: 0x14 }
  - { offsetInCU: 0x98FE, offset: 0x2945F, size: 0x8, addend: 0x0, symName: __ZNSt3__13mapINS_12basic_stringIcNS_11char_traitsIcEENS_9allocatorIcEEEENS_6vectorI8ECFlightNS4_IS8_EEEENS_4lessIS6_EENS4_INS_4pairIKS6_SA_EEEEEC2B8ue170006Ev, symObjAddr: 0x918, symBinAddr: 0x100009F78, symSize: 0x40 }
  - { offsetInCU: 0x9928, offset: 0x29489, size: 0x8, addend: 0x0, symName: __ZNSt3__119__map_value_compareINS_12basic_stringIcNS_11char_traitsIcEENS_9allocatorIcEEEENS_12__value_typeIS6_NS_6vectorI8ECFlightNS4_IS9_EEEEEENS_4lessIS6_EELb1EEC1B8ue170006ESE_, symObjAddr: 0x958, symBinAddr: 0x100009FB8, symSize: 0x2C }
  - { offsetInCU: 0x9962, offset: 0x294C3, size: 0x8, addend: 0x0, symName: __ZNSt3__16__treeINS_12__value_typeINS_12basic_stringIcNS_11char_traitsIcEENS_9allocatorIcEEEENS_6vectorI8ECFlightNS5_IS9_EEEEEENS_19__map_value_compareIS7_SC_NS_4lessIS7_EELb1EEENS5_ISC_EEEC1ERKSG_, symObjAddr: 0x984, symBinAddr: 0x100009FE4, symSize: 0x34 }
  - { offsetInCU: 0x999D, offset: 0x294FE, size: 0x8, addend: 0x0, symName: __ZNSt3__119__map_value_compareINS_12basic_stringIcNS_11char_traitsIcEENS_9allocatorIcEEEENS_12__value_typeIS6_NS_6vectorI8ECFlightNS4_IS9_EEEEEENS_4lessIS6_EELb1EEC2B8ue170006ESE_, symObjAddr: 0x9B8, symBinAddr: 0x10000A018, symSize: 0x14 }
  - { offsetInCU: 0x99D6, offset: 0x29537, size: 0x8, addend: 0x0, symName: __ZNSt3__16__treeINS_12__value_typeINS_12basic_stringIcNS_11char_traitsIcEENS_9allocatorIcEEEENS_6vectorI8ECFlightNS5_IS9_EEEEEENS_19__map_value_compareIS7_SC_NS_4lessIS7_EELb1EEENS5_ISC_EEEC2ERKSG_, symObjAddr: 0x9CC, symBinAddr: 0x10000A02C, symSize: 0x70 }
  - { offsetInCU: 0x9A10, offset: 0x29571, size: 0x8, addend: 0x0, symName: __ZNSt3__117__compressed_pairINS_15__tree_end_nodeIPNS_16__tree_node_baseIPvEEEENS_9allocatorINS_11__tree_nodeINS_12__value_typeINS_12basic_stringIcNS_11char_traitsIcEENS7_IcEEEENS_6vectorI8ECFlightNS7_ISG_EEEEEES3_EEEEEC1B8ue170006ILb1EvEEv, symObjAddr: 0xA3C, symBinAddr: 0x10000A09C, symSize: 0x2C }
  - { offsetInCU: 0x9A4A, offset: 0x295AB, size: 0x8, addend: 0x0, symName: __ZNSt3__117__compressed_pairImNS_19__map_value_compareINS_12basic_stringIcNS_11char_traitsIcEENS_9allocatorIcEEEENS_12__value_typeIS7_NS_6vectorI8ECFlightNS5_ISA_EEEEEENS_4lessIS7_EELb1EEEEC1B8ue170006IiRKSG_EEOT_OT0_, symObjAddr: 0xA68, symBinAddr: 0x10000A0C8, symSize: 0x3C }
  - { offsetInCU: 0x9AA3, offset: 0x29604, size: 0x8, addend: 0x0, symName: __ZNSt3__16__treeINS_12__value_typeINS_12basic_stringIcNS_11char_traitsIcEENS_9allocatorIcEEEENS_6vectorI8ECFlightNS5_IS9_EEEEEENS_19__map_value_compareIS7_SC_NS_4lessIS7_EELb1EEENS5_ISC_EEE10__end_nodeB8ue170006Ev, symObjAddr: 0xAA4, symBinAddr: 0x10000A104, symSize: 0x2C }
  - { offsetInCU: 0x9AC8, offset: 0x29629, size: 0x8, addend: 0x0, symName: __ZNSt3__16__treeINS_12__value_typeINS_12basic_stringIcNS_11char_traitsIcEENS_9allocatorIcEEEENS_6vectorI8ECFlightNS5_IS9_EEEEEENS_19__map_value_compareIS7_SC_NS_4lessIS7_EELb1EEENS5_ISC_EEE12__begin_nodeB8ue170006Ev, symObjAddr: 0xAD0, symBinAddr: 0x10000A130, symSize: 0x14 }
  - { offsetInCU: 0x9AEE, offset: 0x2964F, size: 0x8, addend: 0x0, symName: __ZNSt3__117__compressed_pairINS_15__tree_end_nodeIPNS_16__tree_node_baseIPvEEEENS_9allocatorINS_11__tree_nodeINS_12__value_typeINS_12basic_stringIcNS_11char_traitsIcEENS7_IcEEEENS_6vectorI8ECFlightNS7_ISG_EEEEEES3_EEEEEC2B8ue170006ILb1EvEEv, symObjAddr: 0xAE4, symBinAddr: 0x10000A144, symSize: 0x34 }
  - { offsetInCU: 0x9B23, offset: 0x29684, size: 0x8, addend: 0x0, symName: __ZNSt3__122__compressed_pair_elemINS_15__tree_end_nodeIPNS_16__tree_node_baseIPvEEEELi0ELb0EEC2B8ue170006ENS_16__value_init_tagE, symObjAddr: 0xB18, symBinAddr: 0x10000A178, symSize: 0x2C }
  - { offsetInCU: 0x9B58, offset: 0x296B9, size: 0x8, addend: 0x0, symName: __ZNSt3__122__compressed_pair_elemINS_9allocatorINS_11__tree_nodeINS_12__value_typeINS_12basic_stringIcNS_11char_traitsIcEENS1_IcEEEENS_6vectorI8ECFlightNS1_ISA_EEEEEEPvEEEELi1ELb1EEC2B8ue170006ENS_16__value_init_tagE, symObjAddr: 0xB44, symBinAddr: 0x10000A1A4, symSize: 0x2C }
  - { offsetInCU: 0x9B8D, offset: 0x296EE, size: 0x8, addend: 0x0, symName: __ZNSt3__115__tree_end_nodeIPNS_16__tree_node_baseIPvEEEC1B8ue170006Ev, symObjAddr: 0xB70, symBinAddr: 0x10000A1D0, symSize: 0x2C }
  - { offsetInCU: 0x9BB8, offset: 0x29719, size: 0x8, addend: 0x0, symName: __ZNSt3__115__tree_end_nodeIPNS_16__tree_node_baseIPvEEEC2B8ue170006Ev, symObjAddr: 0xB9C, symBinAddr: 0x10000A1FC, symSize: 0x18 }
  - { offsetInCU: 0x9BE1, offset: 0x29742, size: 0x8, addend: 0x0, symName: __ZNSt3__19allocatorINS_11__tree_nodeINS_12__value_typeINS_12basic_stringIcNS_11char_traitsIcEENS0_IcEEEENS_6vectorI8ECFlightNS0_IS9_EEEEEEPvEEEC2B8ue170006Ev, symObjAddr: 0xBB4, symBinAddr: 0x10000A214, symSize: 0x2C }
  - { offsetInCU: 0x9C0C, offset: 0x2976D, size: 0x8, addend: 0x0, symName: __ZNSt3__116__non_trivial_ifILb1ENS_9allocatorINS_11__tree_nodeINS_12__value_typeINS_12basic_stringIcNS_11char_traitsIcEENS1_IcEEEENS_6vectorI8ECFlightNS1_ISA_EEEEEEPvEEEEEC2B8ue170006Ev, symObjAddr: 0xBE0, symBinAddr: 0x10000A240, symSize: 0x14 }
  - { offsetInCU: 0x9C35, offset: 0x29796, size: 0x8, addend: 0x0, symName: __ZNSt3__117__compressed_pairImNS_19__map_value_compareINS_12basic_stringIcNS_11char_traitsIcEENS_9allocatorIcEEEENS_12__value_typeIS7_NS_6vectorI8ECFlightNS5_ISA_EEEEEENS_4lessIS7_EELb1EEEEC2B8ue170006IiRKSG_EEOT_OT0_, symObjAddr: 0xBF4, symBinAddr: 0x10000A254, symSize: 0x44 }
  - { offsetInCU: 0x9C8E, offset: 0x297EF, size: 0x8, addend: 0x0, symName: __ZNSt3__122__compressed_pair_elemImLi0ELb0EEC2B8ue170006IivEEOT_, symObjAddr: 0xC38, symBinAddr: 0x10000A298, symSize: 0x24 }
  - { offsetInCU: 0x9CD0, offset: 0x29831, size: 0x8, addend: 0x0, symName: __ZNSt3__122__compressed_pair_elemINS_19__map_value_compareINS_12basic_stringIcNS_11char_traitsIcEENS_9allocatorIcEEEENS_12__value_typeIS7_NS_6vectorI8ECFlightNS5_ISA_EEEEEENS_4lessIS7_EELb1EEELi1ELb1EEC2B8ue170006IRKSG_vEEOT_, symObjAddr: 0xC5C, symBinAddr: 0x10000A2BC, symSize: 0x18 }
  - { offsetInCU: 0x9D12, offset: 0x29873, size: 0x8, addend: 0x0, symName: __ZNSt3__114pointer_traitsIPNS_15__tree_end_nodeIPNS_16__tree_node_baseIPvEEEEE10pointer_toB8ue170006ERS6_, symObjAddr: 0xC74, symBinAddr: 0x10000A2D4, symSize: 0x14 }
  - { offsetInCU: 0x9D35, offset: 0x29896, size: 0x8, addend: 0x0, symName: __ZNSt3__117__compressed_pairINS_15__tree_end_nodeIPNS_16__tree_node_baseIPvEEEENS_9allocatorINS_11__tree_nodeINS_12__value_typeINS_12basic_stringIcNS_11char_traitsIcEENS7_IcEEEENS_6vectorI8ECFlightNS7_ISG_EEEEEES3_EEEEE5firstB8ue170006Ev, symObjAddr: 0xC88, symBinAddr: 0x10000A2E8, symSize: 0x24 }
  - { offsetInCU: 0x9D5A, offset: 0x298BB, size: 0x8, addend: 0x0, symName: __ZNSt3__122__compressed_pair_elemINS_15__tree_end_nodeIPNS_16__tree_node_baseIPvEEEELi0ELb0EE5__getB8ue170006Ev, symObjAddr: 0xCAC, symBinAddr: 0x10000A30C, symSize: 0x14 }
  - { offsetInCU: 0x9D80, offset: 0x298E1, size: 0x8, addend: 0x0, symName: __ZNSt3__16vectorIP8ECFlightNS_9allocatorIS2_EEED2B8ue170006Ev, symObjAddr: 0xCC0, symBinAddr: 0x10000A320, symSize: 0x3C }
  - { offsetInCU: 0x9DAA, offset: 0x2990B, size: 0x8, addend: 0x0, symName: __ZNSt3__16vectorIP8ECFlightNS_9allocatorIS2_EEE16__destroy_vectorC1B8ue170006ERS5_, symObjAddr: 0xCFC, symBinAddr: 0x10000A35C, symSize: 0x34 }
  - { offsetInCU: 0x9DE4, offset: 0x29945, size: 0x8, addend: 0x0, symName: __ZNSt3__16vectorIP8ECFlightNS_9allocatorIS2_EEE16__destroy_vectorclB8ue170006Ev, symObjAddr: 0xD30, symBinAddr: 0x10000A390, symSize: 0x90 }
  - { offsetInCU: 0x9E0A, offset: 0x2996B, size: 0x8, addend: 0x0, symName: __ZNSt3__16vectorIP8ECFlightNS_9allocatorIS2_EEE16__destroy_vectorC2B8ue170006ERS5_, symObjAddr: 0xDC0, symBinAddr: 0x10000A420, symSize: 0x20 }
  - { offsetInCU: 0x9E43, offset: 0x299A4, size: 0x8, addend: 0x0, symName: __ZNSt3__16vectorIP8ECFlightNS_9allocatorIS2_EEE7__clearB8ue170006Ev, symObjAddr: 0xDE0, symBinAddr: 0x10000A440, symSize: 0x28 }
  - { offsetInCU: 0x9E69, offset: 0x299CA, size: 0x8, addend: 0x0, symName: __ZNKSt3__16vectorIP8ECFlightNS_9allocatorIS2_EEE17__annotate_deleteB8ue170006Ev, symObjAddr: 0xE08, symBinAddr: 0x10000A468, symSize: 0xB8 }
  - { offsetInCU: 0x9E8F, offset: 0x299F0, size: 0x8, addend: 0x0, symName: __ZNSt3__116allocator_traitsINS_9allocatorIP8ECFlightEEE10deallocateB8ue170006ERS4_PS3_m, symObjAddr: 0xEC0, symBinAddr: 0x10000A520, symSize: 0x34 }
  - { offsetInCU: 0x9ED1, offset: 0x29A32, size: 0x8, addend: 0x0, symName: __ZNSt3__16vectorIP8ECFlightNS_9allocatorIS2_EEE7__allocB8ue170006Ev, symObjAddr: 0xEF4, symBinAddr: 0x10000A554, symSize: 0x28 }
  - { offsetInCU: 0x9EF7, offset: 0x29A58, size: 0x8, addend: 0x0, symName: __ZNKSt3__16vectorIP8ECFlightNS_9allocatorIS2_EEE8capacityB8ue170006Ev, symObjAddr: 0xF1C, symBinAddr: 0x10000A57C, symSize: 0x40 }
  - { offsetInCU: 0x9F1D, offset: 0x29A7E, size: 0x8, addend: 0x0, symName: __ZNSt3__16vectorIP8ECFlightNS_9allocatorIS2_EEE22__base_destruct_at_endB8ue170006EPS2_, symObjAddr: 0xF5C, symBinAddr: 0x10000A5BC, symSize: 0xA0 }
  - { offsetInCU: 0x9F61, offset: 0x29AC2, size: 0x8, addend: 0x0, symName: __ZNSt3__116allocator_traitsINS_9allocatorIP8ECFlightEEE7destroyB8ue170006IS3_vEEvRS4_PT_, symObjAddr: 0xFFC, symBinAddr: 0x10000A65C, symSize: 0x2C }
  - { offsetInCU: 0x9F9D, offset: 0x29AFE, size: 0x8, addend: 0x0, symName: __ZNSt3__19allocatorIP8ECFlightE7destroyB8ue170006EPS2_, symObjAddr: 0x103C, symBinAddr: 0x10000A69C, symSize: 0x14 }
  - { offsetInCU: 0x9FD1, offset: 0x29B32, size: 0x8, addend: 0x0, symName: __ZNKSt3__16vectorIP8ECFlightNS_9allocatorIS2_EEE31__annotate_contiguous_containerB8ue170006EPKvS7_S7_S7_, symObjAddr: 0x1050, symBinAddr: 0x10000A6B0, symSize: 0x20 }
  - { offsetInCU: 0xA024, offset: 0x29B85, size: 0x8, addend: 0x0, symName: __ZNKSt3__16vectorIP8ECFlightNS_9allocatorIS2_EEE4dataB8ue170006Ev, symObjAddr: 0x1070, symBinAddr: 0x10000A6D0, symSize: 0x28 }
  - { offsetInCU: 0xA04A, offset: 0x29BAB, size: 0x8, addend: 0x0, symName: __ZNSt3__19allocatorIP8ECFlightE10deallocateB8ue170006EPS2_m, symObjAddr: 0x1098, symBinAddr: 0x10000A6F8, symSize: 0x70 }
  - { offsetInCU: 0xA08C, offset: 0x29BED, size: 0x8, addend: 0x0, symName: __ZNSt3__117__compressed_pairIPP8ECFlightNS_9allocatorIS2_EEE6secondB8ue170006Ev, symObjAddr: 0x1190, symBinAddr: 0x10000A768, symSize: 0x24 }
  - { offsetInCU: 0xA0B1, offset: 0x29C12, size: 0x8, addend: 0x0, symName: __ZNSt3__122__compressed_pair_elemINS_9allocatorIP8ECFlightEELi1ELb1EE5__getB8ue170006Ev, symObjAddr: 0x11B4, symBinAddr: 0x10000A78C, symSize: 0x14 }
  - { offsetInCU: 0xA0D8, offset: 0x29C39, size: 0x8, addend: 0x0, symName: __ZNKSt3__16vectorIP8ECFlightNS_9allocatorIS2_EEE9__end_capB8ue170006Ev, symObjAddr: 0x11C8, symBinAddr: 0x10000A7A0, symSize: 0x28 }
  - { offsetInCU: 0xA0FE, offset: 0x29C5F, size: 0x8, addend: 0x0, symName: __ZNKSt3__117__compressed_pairIPP8ECFlightNS_9allocatorIS2_EEE5firstB8ue170006Ev, symObjAddr: 0x11F0, symBinAddr: 0x10000A7C8, symSize: 0x24 }
  - { offsetInCU: 0xA123, offset: 0x29C84, size: 0x8, addend: 0x0, symName: __ZNKSt3__122__compressed_pair_elemIPP8ECFlightLi0ELb0EE5__getB8ue170006Ev, symObjAddr: 0x1214, symBinAddr: 0x10000A7EC, symSize: 0x14 }
  - { offsetInCU: 0xA149, offset: 0x29CAA, size: 0x8, addend: 0x0, symName: __ZNSt3__13mapINS_12basic_stringIcNS_11char_traitsIcEENS_9allocatorIcEEEENS_6vectorI8ECFlightNS4_IS8_EEEENS_4lessIS6_EENS4_INS_4pairIKS6_SA_EEEEED2B8ue170006Ev, symObjAddr: 0x1228, symBinAddr: 0x10000A800, symSize: 0x2C }
  - { offsetInCU: 0xA174, offset: 0x29CD5, size: 0x8, addend: 0x0, symName: __ZNSt3__16__treeINS_12__value_typeINS_12basic_stringIcNS_11char_traitsIcEENS_9allocatorIcEEEENS_6vectorI8ECFlightNS5_IS9_EEEEEENS_19__map_value_compareIS7_SC_NS_4lessIS7_EELb1EEENS5_ISC_EEED1Ev, symObjAddr: 0x1254, symBinAddr: 0x10000A82C, symSize: 0x2C }
  - { offsetInCU: 0xA1A0, offset: 0x29D01, size: 0x8, addend: 0x0, symName: __ZNSt3__16__treeINS_12__value_typeINS_12basic_stringIcNS_11char_traitsIcEENS_9allocatorIcEEEENS_6vectorI8ECFlightNS5_IS9_EEEEEENS_19__map_value_compareIS7_SC_NS_4lessIS7_EELb1EEENS5_ISC_EEED2Ev, symObjAddr: 0x1280, symBinAddr: 0x10000A858, symSize: 0x38 }
  - { offsetInCU: 0xA1CB, offset: 0x29D2C, size: 0x8, addend: 0x0, symName: __ZNSt3__16__treeINS_12__value_typeINS_12basic_stringIcNS_11char_traitsIcEENS_9allocatorIcEEEENS_6vectorI8ECFlightNS5_IS9_EEEEEENS_19__map_value_compareIS7_SC_NS_4lessIS7_EELb1EEENS5_ISC_EEE7destroyEPNS_11__tree_nodeISC_PvEE, symObjAddr: 0x12B8, symBinAddr: 0x10000A890, symSize: 0xC0 }
  - { offsetInCU: 0xA220, offset: 0x29D81, size: 0x8, addend: 0x0, symName: __ZNKSt3__16__treeINS_12__value_typeINS_12basic_stringIcNS_11char_traitsIcEENS_9allocatorIcEEEENS_6vectorI8ECFlightNS5_IS9_EEEEEENS_19__map_value_compareIS7_SC_NS_4lessIS7_EELb1EEENS5_ISC_EEE6__rootB8ue170006Ev, symObjAddr: 0x1378, symBinAddr: 0x10000A950, symSize: 0x28 }
  - { offsetInCU: 0xA246, offset: 0x29DA7, size: 0x8, addend: 0x0, symName: __ZNSt3__16__treeINS_12__value_typeINS_12basic_stringIcNS_11char_traitsIcEENS_9allocatorIcEEEENS_6vectorI8ECFlightNS5_IS9_EEEEEENS_19__map_value_compareIS7_SC_NS_4lessIS7_EELb1EEENS5_ISC_EEE12__node_allocB8ue170006Ev, symObjAddr: 0x13A0, symBinAddr: 0x10000A978, symSize: 0x28 }
  - { offsetInCU: 0xA271, offset: 0x29DD2, size: 0x8, addend: 0x0, symName: __ZNSt3__116allocator_traitsINS_9allocatorINS_11__tree_nodeINS_12__value_typeINS_12basic_stringIcNS_11char_traitsIcEENS1_IcEEEENS_6vectorI8ECFlightNS1_ISA_EEEEEEPvEEEEE7destroyB8ue170006INS_4pairIKS8_SC_EEvvEEvRSG_PT_, symObjAddr: 0x13C8, symBinAddr: 0x10000A9A0, symSize: 0x28 }
  - { offsetInCU: 0xA2AB, offset: 0x29E0C, size: 0x8, addend: 0x0, symName: __ZNSt3__122__tree_key_value_typesINS_12__value_typeINS_12basic_stringIcNS_11char_traitsIcEENS_9allocatorIcEEEENS_6vectorI8ECFlightNS5_IS9_EEEEEEE9__get_ptrB8ue170006ERSC_, symObjAddr: 0x13F0, symBinAddr: 0x10000A9C8, symSize: 0x24 }
  - { offsetInCU: 0xA2CF, offset: 0x29E30, size: 0x8, addend: 0x0, symName: __ZNSt3__116allocator_traitsINS_9allocatorINS_11__tree_nodeINS_12__value_typeINS_12basic_stringIcNS_11char_traitsIcEENS1_IcEEEENS_6vectorI8ECFlightNS1_ISA_EEEEEEPvEEEEE10deallocateB8ue170006ERSG_PSF_m, symObjAddr: 0x1414, symBinAddr: 0x10000A9EC, symSize: 0x34 }
  - { offsetInCU: 0xA311, offset: 0x29E72, size: 0x8, addend: 0x0, symName: __ZNSt3__117__compressed_pairINS_15__tree_end_nodeIPNS_16__tree_node_baseIPvEEEENS_9allocatorINS_11__tree_nodeINS_12__value_typeINS_12basic_stringIcNS_11char_traitsIcEENS7_IcEEEENS_6vectorI8ECFlightNS7_ISG_EEEEEES3_EEEEE6secondB8ue170006Ev, symObjAddr: 0x1448, symBinAddr: 0x10000AA20, symSize: 0x24 }
  - { offsetInCU: 0xA336, offset: 0x29E97, size: 0x8, addend: 0x0, symName: __ZNSt3__122__compressed_pair_elemINS_9allocatorINS_11__tree_nodeINS_12__value_typeINS_12basic_stringIcNS_11char_traitsIcEENS1_IcEEEENS_6vectorI8ECFlightNS1_ISA_EEEEEEPvEEEELi1ELb1EE5__getB8ue170006Ev, symObjAddr: 0x146C, symBinAddr: 0x10000AA44, symSize: 0x14 }
  - { offsetInCU: 0xA35C, offset: 0x29EBD, size: 0x8, addend: 0x0, symName: __ZNSt3__14pairIKNS_12basic_stringIcNS_11char_traitsIcEENS_9allocatorIcEEEENS_6vectorI8ECFlightNS4_IS9_EEEEED1Ev, symObjAddr: 0x1480, symBinAddr: 0x10000AA58, symSize: 0x2C }
  - { offsetInCU: 0xA388, offset: 0x29EE9, size: 0x8, addend: 0x0, symName: __ZNSt3__14pairIKNS_12basic_stringIcNS_11char_traitsIcEENS_9allocatorIcEEEENS_6vectorI8ECFlightNS4_IS9_EEEEED2Ev, symObjAddr: 0x14AC, symBinAddr: 0x10000AA84, symSize: 0x68 }
  - { offsetInCU: 0xA3B4, offset: 0x29F15, size: 0x8, addend: 0x0, symName: __ZNSt3__16vectorI8ECFlightNS_9allocatorIS1_EEED1B8ue170006Ev, symObjAddr: 0x1514, symBinAddr: 0x10000AAEC, symSize: 0x2C }
  - { offsetInCU: 0xA3DE, offset: 0x29F3F, size: 0x8, addend: 0x0, symName: __ZNSt3__16vectorI8ECFlightNS_9allocatorIS1_EEED2B8ue170006Ev, symObjAddr: 0x1540, symBinAddr: 0x10000AB18, symSize: 0x3C }
  - { offsetInCU: 0xA408, offset: 0x29F69, size: 0x8, addend: 0x0, symName: __ZNSt3__16vectorI8ECFlightNS_9allocatorIS1_EEE16__destroy_vectorC1B8ue170006ERS4_, symObjAddr: 0x157C, symBinAddr: 0x10000AB54, symSize: 0x34 }
  - { offsetInCU: 0xA442, offset: 0x29FA3, size: 0x8, addend: 0x0, symName: __ZNSt3__16vectorI8ECFlightNS_9allocatorIS1_EEE16__destroy_vectorclB8ue170006Ev, symObjAddr: 0x15B0, symBinAddr: 0x10000AB88, symSize: 0x90 }
  - { offsetInCU: 0xA468, offset: 0x29FC9, size: 0x8, addend: 0x0, symName: __ZNSt3__16vectorI8ECFlightNS_9allocatorIS1_EEE16__destroy_vectorC2B8ue170006ERS4_, symObjAddr: 0x1640, symBinAddr: 0x10000AC18, symSize: 0x20 }
  - { offsetInCU: 0xA4A1, offset: 0x2A002, size: 0x8, addend: 0x0, symName: __ZNSt3__16vectorI8ECFlightNS_9allocatorIS1_EEE7__clearB8ue170006Ev, symObjAddr: 0x1660, symBinAddr: 0x10000AC38, symSize: 0x28 }
  - { offsetInCU: 0xA4C7, offset: 0x2A028, size: 0x8, addend: 0x0, symName: __ZNKSt3__16vectorI8ECFlightNS_9allocatorIS1_EEE17__annotate_deleteB8ue170006Ev, symObjAddr: 0x1688, symBinAddr: 0x10000AC60, symSize: 0xD4 }
  - { offsetInCU: 0xA4ED, offset: 0x2A04E, size: 0x8, addend: 0x0, symName: __ZNSt3__116allocator_traitsINS_9allocatorI8ECFlightEEE10deallocateB8ue170006ERS3_PS2_m, symObjAddr: 0x175C, symBinAddr: 0x10000AD34, symSize: 0x34 }
  - { offsetInCU: 0xA52F, offset: 0x2A090, size: 0x8, addend: 0x0, symName: __ZNSt3__16vectorI8ECFlightNS_9allocatorIS1_EEE7__allocB8ue170006Ev, symObjAddr: 0x1790, symBinAddr: 0x10000AD68, symSize: 0x28 }
  - { offsetInCU: 0xA555, offset: 0x2A0B6, size: 0x8, addend: 0x0, symName: __ZNKSt3__16vectorI8ECFlightNS_9allocatorIS1_EEE8capacityB8ue170006Ev, symObjAddr: 0x17B8, symBinAddr: 0x10000AD90, symSize: 0x40 }
  - { offsetInCU: 0xA57B, offset: 0x2A0DC, size: 0x8, addend: 0x0, symName: __ZNSt3__16vectorI8ECFlightNS_9allocatorIS1_EEE22__base_destruct_at_endB8ue170006EPS1_, symObjAddr: 0x17F8, symBinAddr: 0x10000ADD0, symSize: 0xA0 }
  - { offsetInCU: 0xA5BF, offset: 0x2A120, size: 0x8, addend: 0x0, symName: __ZNSt3__116allocator_traitsINS_9allocatorI8ECFlightEEE7destroyB8ue170006IS2_vEEvRS3_PT_, symObjAddr: 0x1898, symBinAddr: 0x10000AE70, symSize: 0x2C }
  - { offsetInCU: 0xA5FC, offset: 0x2A15D, size: 0x8, addend: 0x0, symName: __ZNSt3__19allocatorI8ECFlightE7destroyB8ue170006EPS1_, symObjAddr: 0x18D8, symBinAddr: 0x10000AEB0, symSize: 0x30 }
  - { offsetInCU: 0xA62F, offset: 0x2A190, size: 0x8, addend: 0x0, symName: __ZNKSt3__16vectorI8ECFlightNS_9allocatorIS1_EEE31__annotate_contiguous_containerB8ue170006EPKvS6_S6_S6_, symObjAddr: 0x1908, symBinAddr: 0x10000AEE0, symSize: 0x20 }
  - { offsetInCU: 0xA682, offset: 0x2A1E3, size: 0x8, addend: 0x0, symName: __ZNKSt3__16vectorI8ECFlightNS_9allocatorIS1_EEE4dataB8ue170006Ev, symObjAddr: 0x1928, symBinAddr: 0x10000AF00, symSize: 0x28 }
  - { offsetInCU: 0xA6A7, offset: 0x2A208, size: 0x8, addend: 0x0, symName: __ZNKSt3__16vectorI8ECFlightNS_9allocatorIS1_EEE4sizeB8ue170006Ev, symObjAddr: 0x1950, symBinAddr: 0x10000AF28, symSize: 0x28 }
  - { offsetInCU: 0xA6CE, offset: 0x2A22F, size: 0x8, addend: 0x0, symName: __ZNSt3__19allocatorI8ECFlightE10deallocateB8ue170006EPS1_m, symObjAddr: 0x1978, symBinAddr: 0x10000AF50, symSize: 0x74 }
  - { offsetInCU: 0xA710, offset: 0x2A271, size: 0x8, addend: 0x0, symName: __ZNSt3__117__compressed_pairIP8ECFlightNS_9allocatorIS1_EEE6secondB8ue170006Ev, symObjAddr: 0x19EC, symBinAddr: 0x10000AFC4, symSize: 0x24 }
  - { offsetInCU: 0xA735, offset: 0x2A296, size: 0x8, addend: 0x0, symName: __ZNSt3__122__compressed_pair_elemINS_9allocatorI8ECFlightEELi1ELb1EE5__getB8ue170006Ev, symObjAddr: 0x1A10, symBinAddr: 0x10000AFE8, symSize: 0x14 }
  - { offsetInCU: 0xA75C, offset: 0x2A2BD, size: 0x8, addend: 0x0, symName: __ZNKSt3__16vectorI8ECFlightNS_9allocatorIS1_EEE9__end_capB8ue170006Ev, symObjAddr: 0x1A24, symBinAddr: 0x10000AFFC, symSize: 0x28 }
  - { offsetInCU: 0xA782, offset: 0x2A2E3, size: 0x8, addend: 0x0, symName: __ZNKSt3__117__compressed_pairIP8ECFlightNS_9allocatorIS1_EEE5firstB8ue170006Ev, symObjAddr: 0x1A4C, symBinAddr: 0x10000B024, symSize: 0x24 }
  - { offsetInCU: 0xA7A7, offset: 0x2A308, size: 0x8, addend: 0x0, symName: __ZNKSt3__122__compressed_pair_elemIP8ECFlightLi0ELb0EE5__getB8ue170006Ev, symObjAddr: 0x1A70, symBinAddr: 0x10000B048, symSize: 0x14 }
  - { offsetInCU: 0xA7CD, offset: 0x2A32E, size: 0x8, addend: 0x0, symName: __ZNSt3__112__value_typeINS_12basic_stringIcNS_11char_traitsIcEENS_9allocatorIcEEEENS_6vectorI8ECFlightNS4_IS8_EEEEE11__get_valueB8ue170006Ev, symObjAddr: 0x1A84, symBinAddr: 0x10000B05C, symSize: 0x14 }
  - { offsetInCU: 0xA7F4, offset: 0x2A355, size: 0x8, addend: 0x0, symName: __ZNSt3__19allocatorINS_11__tree_nodeINS_12__value_typeINS_12basic_stringIcNS_11char_traitsIcEENS0_IcEEEENS_6vectorI8ECFlightNS0_IS9_EEEEEEPvEEE10deallocateB8ue170006EPSE_m, symObjAddr: 0x1A98, symBinAddr: 0x10000B070, symSize: 0x74 }
  - { offsetInCU: 0xA836, offset: 0x2A397, size: 0x8, addend: 0x0, symName: __ZNKSt3__16__treeINS_12__value_typeINS_12basic_stringIcNS_11char_traitsIcEENS_9allocatorIcEEEENS_6vectorI8ECFlightNS5_IS9_EEEEEENS_19__map_value_compareIS7_SC_NS_4lessIS7_EELb1EEENS5_ISC_EEE10__end_nodeB8ue170006Ev, symObjAddr: 0x1B0C, symBinAddr: 0x10000B0E4, symSize: 0x2C }
  - { offsetInCU: 0xA85C, offset: 0x2A3BD, size: 0x8, addend: 0x0, symName: __ZNKSt3__117__compressed_pairINS_15__tree_end_nodeIPNS_16__tree_node_baseIPvEEEENS_9allocatorINS_11__tree_nodeINS_12__value_typeINS_12basic_stringIcNS_11char_traitsIcEENS7_IcEEEENS_6vectorI8ECFlightNS7_ISG_EEEEEES3_EEEEE5firstB8ue170006Ev, symObjAddr: 0x1B38, symBinAddr: 0x10000B110, symSize: 0x24 }
  - { offsetInCU: 0xA881, offset: 0x2A3E2, size: 0x8, addend: 0x0, symName: __ZNKSt3__122__compressed_pair_elemINS_15__tree_end_nodeIPNS_16__tree_node_baseIPvEEEELi0ELb0EE5__getB8ue170006Ev, symObjAddr: 0x1B5C, symBinAddr: 0x10000B134, symSize: 0x14 }
  - { offsetInCU: 0xA8A8, offset: 0x2A409, size: 0x8, addend: 0x0, symName: __ZNKSt3__16vectorIP8ECFlightNS_9allocatorIS2_EEE17__annotate_shrinkB8ue170006Em, symObjAddr: 0x1B70, symBinAddr: 0x10000B148, symSize: 0xB4 }
  - { offsetInCU: 0xA8DD, offset: 0x2A43E, size: 0x8, addend: 0x0, symName: __ZNSt3__16vectorIP8ECFlightNS_9allocatorIS2_EEE9__end_capB8ue170006Ev, symObjAddr: 0x1C24, symBinAddr: 0x10000B1FC, symSize: 0x28 }
  - { offsetInCU: 0xA903, offset: 0x2A464, size: 0x8, addend: 0x0, symName: __ZNSt3__16vectorIP8ECFlightNS_9allocatorIS2_EEE22__construct_one_at_endB8ue170006IJRKS2_EEEvDpOT_, symObjAddr: 0x1C4C, symBinAddr: 0x10000B224, symSize: 0x98 }
  - { offsetInCU: 0xA951, offset: 0x2A4B2, size: 0x8, addend: 0x0, symName: __ZNSt3__16vectorIP8ECFlightNS_9allocatorIS2_EEE21__push_back_slow_pathIRKS2_EEvOT_, symObjAddr: 0x1CE4, symBinAddr: 0x10000B2BC, symSize: 0xE0 }
  - { offsetInCU: 0xA9AF, offset: 0x2A510, size: 0x8, addend: 0x0, symName: __ZNSt3__117__compressed_pairIPP8ECFlightNS_9allocatorIS2_EEE5firstB8ue170006Ev, symObjAddr: 0x1DC4, symBinAddr: 0x10000B39C, symSize: 0x24 }
  - { offsetInCU: 0xA9D4, offset: 0x2A535, size: 0x8, addend: 0x0, symName: __ZNSt3__122__compressed_pair_elemIPP8ECFlightLi0ELb0EE5__getB8ue170006Ev, symObjAddr: 0x1DE8, symBinAddr: 0x10000B3C0, symSize: 0x14 }
  - { offsetInCU: 0xAA13, offset: 0x2A574, size: 0x8, addend: 0x0, symName: __ZNSt3__16vectorIP8ECFlightNS_9allocatorIS2_EEE21_ConstructTransactionC1B8ue170006ERS5_m, symObjAddr: 0x1DFC, symBinAddr: 0x10000B3D4, symSize: 0x3C }
  - { offsetInCU: 0xAA5C, offset: 0x2A5BD, size: 0x8, addend: 0x0, symName: __ZNSt3__116allocator_traitsINS_9allocatorIP8ECFlightEEE9constructB8ue170006IS3_JRKS3_EvEEvRS4_PT_DpOT0_, symObjAddr: 0x1E38, symBinAddr: 0x10000B410, symSize: 0x34 }
  - { offsetInCU: 0xAAB2, offset: 0x2A613, size: 0x8, addend: 0x0, symName: __ZNSt3__16vectorIP8ECFlightNS_9allocatorIS2_EEE21_ConstructTransactionD1B8ue170006Ev, symObjAddr: 0x1E6C, symBinAddr: 0x10000B444, symSize: 0x2C }
  - { offsetInCU: 0xAADD, offset: 0x2A63E, size: 0x8, addend: 0x0, symName: __ZNSt3__16vectorIP8ECFlightNS_9allocatorIS2_EEE21_ConstructTransactionC2B8ue170006ERS5_m, symObjAddr: 0x1E98, symBinAddr: 0x10000B470, symSize: 0x44 }
  - { offsetInCU: 0xAB24, offset: 0x2A685, size: 0x8, addend: 0x0, symName: __ZNSt3__19allocatorIP8ECFlightE9constructB8ue170006IS2_JRKS2_EEEvPT_DpOT0_, symObjAddr: 0x1EDC, symBinAddr: 0x10000B4B4, symSize: 0x28 }
  - { offsetInCU: 0xAB7B, offset: 0x2A6DC, size: 0x8, addend: 0x0, symName: __ZNSt3__16vectorIP8ECFlightNS_9allocatorIS2_EEE21_ConstructTransactionD2B8ue170006Ev, symObjAddr: 0x1F04, symBinAddr: 0x10000B4DC, symSize: 0x20 }
  - { offsetInCU: 0xABA4, offset: 0x2A705, size: 0x8, addend: 0x0, symName: __ZNKSt3__16vectorIP8ECFlightNS_9allocatorIS2_EEE11__recommendB8ue170006Em, symObjAddr: 0x1F24, symBinAddr: 0x10000B4FC, symSize: 0xB4 }
  - { offsetInCU: 0xABF9, offset: 0x2A75A, size: 0x8, addend: 0x0, symName: __ZNSt3__114__split_bufferIP8ECFlightRNS_9allocatorIS2_EEEC1EmmS5_, symObjAddr: 0x1FD8, symBinAddr: 0x10000B5B0, symSize: 0x44 }
  - { offsetInCU: 0xAC4F, offset: 0x2A7B0, size: 0x8, addend: 0x0, symName: __ZNSt3__114__split_bufferIP8ECFlightRNS_9allocatorIS2_EEED1Ev, symObjAddr: 0x212C, symBinAddr: 0x10000B704, symSize: 0x2C }
  - { offsetInCU: 0xAC7A, offset: 0x2A7DB, size: 0x8, addend: 0x0, symName: __ZNKSt3__16vectorIP8ECFlightNS_9allocatorIS2_EEE8max_sizeEv, symObjAddr: 0x2158, symBinAddr: 0x10000B730, symSize: 0x74 }
  - { offsetInCU: 0xACA2, offset: 0x2A803, size: 0x8, addend: 0x0, symName: __ZNKSt3__16vectorIP8ECFlightNS_9allocatorIS2_EEE20__throw_length_errorB8ue170006Ev, symObjAddr: 0x21CC, symBinAddr: 0x10000B7A4, symSize: 0x1C }
  - { offsetInCU: 0xACD2, offset: 0x2A833, size: 0x8, addend: 0x0, symName: __ZNSt3__116allocator_traitsINS_9allocatorIP8ECFlightEEE8max_sizeB8ue170006IS4_vEEmRKS4_, symObjAddr: 0x2240, symBinAddr: 0x10000B7C0, symSize: 0x24 }
  - { offsetInCU: 0xAD00, offset: 0x2A861, size: 0x8, addend: 0x0, symName: __ZNKSt3__16vectorIP8ECFlightNS_9allocatorIS2_EEE7__allocB8ue170006Ev, symObjAddr: 0x2264, symBinAddr: 0x10000B7E4, symSize: 0x28 }
  - { offsetInCU: 0xAD25, offset: 0x2A886, size: 0x8, addend: 0x0, symName: __ZNKSt3__19allocatorIP8ECFlightE8max_sizeB8ue170006Ev, symObjAddr: 0x2328, symBinAddr: 0x10000B80C, symSize: 0x14 }
  - { offsetInCU: 0xAD4C, offset: 0x2A8AD, size: 0x8, addend: 0x0, symName: __ZNKSt3__117__compressed_pairIPP8ECFlightNS_9allocatorIS2_EEE6secondB8ue170006Ev, symObjAddr: 0x233C, symBinAddr: 0x10000B820, symSize: 0x24 }
  - { offsetInCU: 0xAD71, offset: 0x2A8D2, size: 0x8, addend: 0x0, symName: __ZNKSt3__122__compressed_pair_elemINS_9allocatorIP8ECFlightEELi1ELb1EE5__getB8ue170006Ev, symObjAddr: 0x2360, symBinAddr: 0x10000B844, symSize: 0x14 }
  - { offsetInCU: 0xAD98, offset: 0x2A8F9, size: 0x8, addend: 0x0, symName: __ZNSt3__114__split_bufferIP8ECFlightRNS_9allocatorIS2_EEEC2EmmS5_, symObjAddr: 0x24B4, symBinAddr: 0x10000B858, symSize: 0xD4 }
  - { offsetInCU: 0xAE0B, offset: 0x2A96C, size: 0x8, addend: 0x0, symName: __ZNSt3__117__compressed_pairIPP8ECFlightRNS_9allocatorIS2_EEEC1B8ue170006IDnS6_EEOT_OT0_, symObjAddr: 0x2588, symBinAddr: 0x10000B92C, symSize: 0x3C }
  - { offsetInCU: 0xAE64, offset: 0x2A9C5, size: 0x8, addend: 0x0, symName: __ZNSt3__114__split_bufferIP8ECFlightRNS_9allocatorIS2_EEE7__allocB8ue170006Ev, symObjAddr: 0x2604, symBinAddr: 0x10000B9A8, symSize: 0x28 }
  - { offsetInCU: 0xAE8A, offset: 0x2A9EB, size: 0x8, addend: 0x0, symName: __ZNSt3__114__split_bufferIP8ECFlightRNS_9allocatorIS2_EEE9__end_capB8ue170006Ev, symObjAddr: 0x262C, symBinAddr: 0x10000B9D0, symSize: 0x28 }
  - { offsetInCU: 0xAEAF, offset: 0x2AA10, size: 0x8, addend: 0x0, symName: __ZNSt3__117__compressed_pairIPP8ECFlightRNS_9allocatorIS2_EEEC2B8ue170006IDnS6_EEOT_OT0_, symObjAddr: 0x2654, symBinAddr: 0x10000B9F8, symSize: 0x48 }
  - { offsetInCU: 0xAF08, offset: 0x2AA69, size: 0x8, addend: 0x0, symName: __ZNSt3__122__compressed_pair_elemIRNS_9allocatorIP8ECFlightEELi1ELb0EEC2B8ue170006IS5_vEEOT_, symObjAddr: 0x269C, symBinAddr: 0x10000BA40, symSize: 0x20 }
  - { offsetInCU: 0xAF4A, offset: 0x2AAAB, size: 0x8, addend: 0x0, symName: __ZNSt3__19allocatorIP8ECFlightE8allocateB8ue170006Em, symObjAddr: 0x26BC, symBinAddr: 0x10000BA60, symSize: 0x84 }
  - { offsetInCU: 0xAF7E, offset: 0x2AADF, size: 0x8, addend: 0x0, symName: __ZNSt3__117__compressed_pairIPP8ECFlightRNS_9allocatorIS2_EEE6secondB8ue170006Ev, symObjAddr: 0x27C0, symBinAddr: 0x10000BAE4, symSize: 0x28 }
  - { offsetInCU: 0xAFA3, offset: 0x2AB04, size: 0x8, addend: 0x0, symName: __ZNSt3__122__compressed_pair_elemIRNS_9allocatorIP8ECFlightEELi1ELb0EE5__getB8ue170006Ev, symObjAddr: 0x27E8, symBinAddr: 0x10000BB0C, symSize: 0x18 }
  - { offsetInCU: 0xAFCA, offset: 0x2AB2B, size: 0x8, addend: 0x0, symName: __ZNSt3__117__compressed_pairIPP8ECFlightRNS_9allocatorIS2_EEE5firstB8ue170006Ev, symObjAddr: 0x2800, symBinAddr: 0x10000BB24, symSize: 0x24 }
  - { offsetInCU: 0xAFEF, offset: 0x2AB50, size: 0x8, addend: 0x0, symName: __ZNSt3__116reverse_iteratorIPP8ECFlightEC1B8ue170006ES3_, symObjAddr: 0x290C, symBinAddr: 0x10000BC30, symSize: 0x34 }
  - { offsetInCU: 0xB027, offset: 0x2AB88, size: 0x8, addend: 0x0, symName: __ZNKSt3__116reverse_iteratorIPP8ECFlightE4baseB8ue170006Ev, symObjAddr: 0x2940, symBinAddr: 0x10000BC64, symSize: 0x18 }
  - { offsetInCU: 0xB04E, offset: 0x2ABAF, size: 0x8, addend: 0x0, symName: __ZNKSt3__16vectorIP8ECFlightNS_9allocatorIS2_EEE14__annotate_newB8ue170006Em, symObjAddr: 0x2994, symBinAddr: 0x10000BCB8, symSize: 0xAC }
  - { offsetInCU: 0xB082, offset: 0x2ABE3, size: 0x8, addend: 0x0, symName: __ZNKSt3__116reverse_iteratorIPP8ECFlightEdeB8ue170006Ev, symObjAddr: 0x2AD8, symBinAddr: 0x10000BDFC, symSize: 0x28 }
  - { offsetInCU: 0xB0B6, offset: 0x2AC17, size: 0x8, addend: 0x0, symName: __ZNSt3__116reverse_iteratorIPP8ECFlightEppB8ue170006Ev, symObjAddr: 0x2B00, symBinAddr: 0x10000BE24, symSize: 0x20 }
  - { offsetInCU: 0xB0E2, offset: 0x2AC43, size: 0x8, addend: 0x0, symName: __ZNSt3__119__to_address_helperINS_16reverse_iteratorIPP8ECFlightEEvE6__callB8ue170006ERKS5_, symObjAddr: 0x2B98, symBinAddr: 0x10000BEBC, symSize: 0x4C }
  - { offsetInCU: 0xB105, offset: 0x2AC66, size: 0x8, addend: 0x0, symName: __ZNKSt3__116reverse_iteratorIPP8ECFlightEptB8ue170006Ev, symObjAddr: 0x2BE4, symBinAddr: 0x10000BF08, symSize: 0x24 }
  - { offsetInCU: 0xB14E, offset: 0x2ACAF, size: 0x8, addend: 0x0, symName: __ZNKSt3__111__move_loopINS_17_ClassicAlgPolicyEEclB8ue170006INS_16reverse_iteratorIPP8ECFlightEES8_S8_EENS_4pairIT_T1_EESA_T0_SB_, symObjAddr: 0x2E80, symBinAddr: 0x10000C1A4, symSize: 0xA0 }
  - { offsetInCU: 0xB1BE, offset: 0x2AD1F, size: 0x8, addend: 0x0, symName: __ZNSt3__18_IterOpsINS_17_ClassicAlgPolicyEE11__iter_moveB8ue170006IRNS_16reverse_iteratorIPP8ECFlightEEEENS_9enable_ifIXsr12is_referenceIDTdeclsr3stdE7declvalIRT_EEEEE5valueEDTclsr3stdE4movedeclsr3stdE7declvalISC_EEEEE4typeEOSB_, symObjAddr: 0x3080, symBinAddr: 0x10000C3A4, symSize: 0x28 }
  - { offsetInCU: 0xB1EA, offset: 0x2AD4B, size: 0x8, addend: 0x0, symName: __ZNSt3__18_IterOpsINS_17_ClassicAlgPolicyEE25__validate_iter_referenceB8ue170006IRNS_16reverse_iteratorIPP8ECFlightEEEEvv, symObjAddr: 0x30A8, symBinAddr: 0x10000C3CC, symSize: 0x4 }
  - { offsetInCU: 0xB208, offset: 0x2AD69, size: 0x8, addend: 0x0, symName: __ZNSt3__118__unwrap_iter_implINS_16reverse_iteratorIPP8ECFlightEELb0EE8__unwrapB8ue170006ES5_, symObjAddr: 0x30AC, symBinAddr: 0x10000C3D0, symSize: 0x24 }
  - { offsetInCU: 0xB22A, offset: 0x2AD8B, size: 0x8, addend: 0x0, symName: __ZNSt3__14pairINS_16reverse_iteratorIPP8ECFlightEES5_EC1B8ue170006ERKS5_S8_, symObjAddr: 0x30D0, symBinAddr: 0x10000C3F4, symSize: 0x3C }
  - { offsetInCU: 0xB271, offset: 0x2ADD2, size: 0x8, addend: 0x0, symName: __ZNSt3__14pairINS_16reverse_iteratorIPP8ECFlightEES5_EC2B8ue170006ERKS5_S8_, symObjAddr: 0x310C, symBinAddr: 0x10000C430, symSize: 0x34 }
  - { offsetInCU: 0xB2B7, offset: 0x2AE18, size: 0x8, addend: 0x0, symName: __ZNSt3__118__unwrap_iter_implINS_16reverse_iteratorIPP8ECFlightEELb0EE8__rewrapB8ue170006ES5_S5_, symObjAddr: 0x3140, symBinAddr: 0x10000C464, symSize: 0x2C }
  - { offsetInCU: 0xB2E5, offset: 0x2AE46, size: 0x8, addend: 0x0, symName: __ZNSt3__116reverse_iteratorIPP8ECFlightEC2B8ue170006ES3_, symObjAddr: 0x316C, symBinAddr: 0x10000C490, symSize: 0x28 }
  - { offsetInCU: 0xB31D, offset: 0x2AE7E, size: 0x8, addend: 0x0, symName: __ZNSt3__114__split_bufferIP8ECFlightRNS_9allocatorIS2_EEED2Ev, symObjAddr: 0x3194, symBinAddr: 0x10000C4B8, symSize: 0x80 }
  - { offsetInCU: 0xB349, offset: 0x2AEAA, size: 0x8, addend: 0x0, symName: __ZNSt3__114__split_bufferIP8ECFlightRNS_9allocatorIS2_EEE5clearB8ue170006Ev, symObjAddr: 0x3214, symBinAddr: 0x10000C538, symSize: 0x28 }
  - { offsetInCU: 0xB36F, offset: 0x2AED0, size: 0x8, addend: 0x0, symName: __ZNKSt3__114__split_bufferIP8ECFlightRNS_9allocatorIS2_EEE8capacityB8ue170006Ev, symObjAddr: 0x323C, symBinAddr: 0x10000C560, symSize: 0x40 }
  - { offsetInCU: 0xB395, offset: 0x2AEF6, size: 0x8, addend: 0x0, symName: __ZNSt3__114__split_bufferIP8ECFlightRNS_9allocatorIS2_EEE17__destruct_at_endB8ue170006EPS2_, symObjAddr: 0x327C, symBinAddr: 0x10000C5A0, symSize: 0x2C }
  - { offsetInCU: 0xB3C8, offset: 0x2AF29, size: 0x8, addend: 0x0, symName: __ZNSt3__114__split_bufferIP8ECFlightRNS_9allocatorIS2_EEE17__destruct_at_endB8ue170006EPS2_NS_17integral_constantIbLb0EEE, symObjAddr: 0x32A8, symBinAddr: 0x10000C5CC, symSize: 0x94 }
  - { offsetInCU: 0xB409, offset: 0x2AF6A, size: 0x8, addend: 0x0, symName: __ZNKSt3__114__split_bufferIP8ECFlightRNS_9allocatorIS2_EEE9__end_capB8ue170006Ev, symObjAddr: 0x333C, symBinAddr: 0x10000C660, symSize: 0x28 }
  - { offsetInCU: 0xB42F, offset: 0x2AF90, size: 0x8, addend: 0x0, symName: __ZNKSt3__117__compressed_pairIPP8ECFlightRNS_9allocatorIS2_EEE5firstB8ue170006Ev, symObjAddr: 0x3364, symBinAddr: 0x10000C688, symSize: 0x24 }
  - { offsetInCU: 0xB455, offset: 0x2AFB6, size: 0x8, addend: 0x0, symName: __ZNSt3__111char_traitsIcE7compareB8ue170006EPKcS3_m, symObjAddr: 0x3478, symBinAddr: 0x10000C6AC, symSize: 0x64 }
  - { offsetInCU: 0x8D2D, offset: 0x33DC6, size: 0x8, addend: 0x0, symName: __ZNSt3__1neB8ue170006IPP8ECFlightEEbRKNS_11__wrap_iterIT_EES8_, symObjAddr: 0xB24, symBinAddr: 0x10000CFBC, symSize: 0x34 }
  - { offsetInCU: 0x8D70, offset: 0x33E09, size: 0x8, addend: 0x0, symName: __ZNSt3__1eqB8ue170006ERKNS_21__tree_const_iteratorINS_12basic_stringIcNS_11char_traitsIcEENS_9allocatorIcEEEEPNS_11__tree_nodeIS6_PvEElEESD_, symObjAddr: 0xB70, symBinAddr: 0x10000D008, symSize: 0x30 }
  - { offsetInCU: 0x8DAE, offset: 0x33E47, size: 0x8, addend: 0x0, symName: __ZNSt3__1ltB8ue170006IcNS_11char_traitsIcEENS_9allocatorIcEEEEbRKNS_12basic_stringIT_T0_T1_EESB_, symObjAddr: 0x2DC8, symBinAddr: 0x10000DE3C, symSize: 0x38 }
  - { offsetInCU: 0x8E24, offset: 0x33EBD, size: 0x8, addend: 0x0, symName: __ZNSt3__127__tree_balance_after_insertB8ue170006IPNS_16__tree_node_baseIPvEEEEvT_S5_, symObjAddr: 0x36C0, symBinAddr: 0x10000E4EC, symSize: 0x340 }
  - { offsetInCU: 0x8E99, offset: 0x33F32, size: 0x8, addend: 0x0, symName: __ZNSt3__120__tree_is_left_childB8ue170006IPNS_16__tree_node_baseIPvEEEEbT_, symObjAddr: 0x3A40, symBinAddr: 0x10000E86C, symSize: 0x2C }
  - { offsetInCU: 0x8ECE, offset: 0x33F67, size: 0x8, addend: 0x0, symName: __ZNSt3__118__tree_left_rotateB8ue170006IPNS_16__tree_node_baseIPvEEEEvT_, symObjAddr: 0x3A6C, symBinAddr: 0x10000E898, symSize: 0xEC }
  - { offsetInCU: 0x8F10, offset: 0x33FA9, size: 0x8, addend: 0x0, symName: __ZNSt3__119__tree_right_rotateB8ue170006IPNS_16__tree_node_baseIPvEEEEvT_, symObjAddr: 0x3B58, symBinAddr: 0x10000E984, symSize: 0xCC }
  - { offsetInCU: 0x8F52, offset: 0x33FEB, size: 0x8, addend: 0x0, symName: __ZNSt3__112__to_addressB8ue170006I17ECFlightItineraryEEPT_S3_, symObjAddr: 0x416C, symBinAddr: 0x10000EF98, symSize: 0x14 }
  - { offsetInCU: 0x8F87, offset: 0x34020, size: 0x8, addend: 0x0, symName: __ZNSt3__122__make_exception_guardB8ue170006INS_6vectorIP8ECFlightNS_9allocatorIS3_EEE16__destroy_vectorEEENS_28__exception_guard_exceptionsIT_EES9_, symObjAddr: 0x4534, symBinAddr: 0x10000F300, symSize: 0x40 }
  - { offsetInCU: 0x8FBC, offset: 0x34055, size: 0x8, addend: 0x0, symName: __ZNSt3__130__uninitialized_allocator_copyB8ue170006INS_9allocatorIP8ECFlightEEPS3_S5_S5_EET2_RT_T0_T1_S6_, symObjAddr: 0x4B28, symBinAddr: 0x10000F520, symSize: 0x80 }
  - { offsetInCU: 0x9059, offset: 0x340F2, size: 0x8, addend: 0x0, symName: __ZNSt3__114__unwrap_rangeB8ue170006IPP8ECFlightS3_EENS_4pairIT0_S5_EET_S7_, symObjAddr: 0x4C18, symBinAddr: 0x10000F5A0, symSize: 0x60 }
  - { offsetInCU: 0x90A5, offset: 0x3413E, size: 0x8, addend: 0x0, symName: __ZNSt3__135__uninitialized_allocator_copy_implB8ue170006INS_9allocatorIP8ECFlightEEPS3_S5_S5_EET2_RT_T0_T1_S6_, symObjAddr: 0x4C78, symBinAddr: 0x10000F600, symSize: 0xFC }
  - { offsetInCU: 0x9143, offset: 0x341DC, size: 0x8, addend: 0x0, symName: __ZNSt3__113__unwrap_iterB8ue170006IPP8ECFlightNS_18__unwrap_iter_implIS3_Lb1EEELi0EEEDTclsrT0_8__unwrapclsr3stdE7declvalIT_EEEES7_, symObjAddr: 0x4D74, symBinAddr: 0x10000F6FC, symSize: 0x24 }
  - { offsetInCU: 0x9187, offset: 0x34220, size: 0x8, addend: 0x0, symName: __ZNSt3__113__rewrap_iterB8ue170006IPP8ECFlightS3_NS_18__unwrap_iter_implIS3_Lb1EEEEET_S6_T0_, symObjAddr: 0x4D98, symBinAddr: 0x10000F720, symSize: 0x50 }
  - { offsetInCU: 0x91DC, offset: 0x34275, size: 0x8, addend: 0x0, symName: __ZNSt3__19make_pairB8ue170006IPP8ECFlightS3_EENS_4pairINS_18__unwrap_ref_decayIT_E4typeENS5_IT0_E4typeEEEOS6_OS9_, symObjAddr: 0x4DE8, symBinAddr: 0x10000F770, symSize: 0x38 }
  - { offsetInCU: 0x92D8, offset: 0x34371, size: 0x8, addend: 0x0, symName: __ZNSt3__122__make_exception_guardB8ue170006INS_29_AllocatorDestroyRangeReverseINS_9allocatorIP8ECFlightEEPS4_EEEENS_28__exception_guard_exceptionsIT_EES9_, symObjAddr: 0x4E90, symBinAddr: 0x10000F818, symSize: 0x4C }
  - { offsetInCU: 0x930E, offset: 0x343A7, size: 0x8, addend: 0x0, symName: __ZNSt3__119__allocator_destroyB8ue170006INS_9allocatorIP8ECFlightEENS_16reverse_iteratorIPS3_EES7_EEvRT_T0_T1_, symObjAddr: 0x5110, symBinAddr: 0x10000FA98, symSize: 0x70 }
  - { offsetInCU: 0x93C4, offset: 0x3445D, size: 0x8, addend: 0x0, symName: __ZNSt3__119__allocate_at_leastB8ue170006INS_9allocatorI17ECFlightItineraryEEEENS_19__allocation_resultINS_16allocator_traitsIT_E7pointerEEERS6_m, symObjAddr: 0x5A10, symBinAddr: 0x100010160, symSize: 0x40 }
  - { offsetInCU: 0x9407, offset: 0x344A0, size: 0x8, addend: 0x0, symName: __ZNSt3__142__uninitialized_allocator_move_if_noexceptB8ue170006INS_9allocatorI17ECFlightItineraryEENS_16reverse_iteratorIPS2_EES6_S6_EET2_RT_T0_T1_S7_, symObjAddr: 0x5CE8, symBinAddr: 0x100010438, symSize: 0x134 }
  - { offsetInCU: 0x94A7, offset: 0x34540, size: 0x8, addend: 0x0, symName: __ZNSt3__14swapB8ue170006IP17ECFlightItineraryEEvRT_S4_, symObjAddr: 0x5E68, symBinAddr: 0x1000105B8, symSize: 0x3C }
  - { offsetInCU: 0x94F8, offset: 0x34591, size: 0x8, addend: 0x0, symName: __ZNSt3__122__make_exception_guardB8ue170006INS_29_AllocatorDestroyRangeReverseINS_9allocatorI17ECFlightItineraryEENS_16reverse_iteratorIPS3_EEEEEENS_28__exception_guard_exceptionsIT_EESA_, symObjAddr: 0x5FB4, symBinAddr: 0x100010704, symSize: 0x4C }
  - { offsetInCU: 0x952E, offset: 0x345C7, size: 0x8, addend: 0x0, symName: __ZNSt3__1neB8ue170006IP17ECFlightItineraryS2_EEbRKNS_16reverse_iteratorIT_EERKNS3_IT0_EE, symObjAddr: 0x6044, symBinAddr: 0x100010794, symSize: 0x48 }
  - { offsetInCU: 0x957A, offset: 0x34613, size: 0x8, addend: 0x0, symName: __ZNSt3__112__to_addressB8ue170006INS_16reverse_iteratorIP17ECFlightItineraryEEvEEu7__decayIDTclsr19__to_address_helperIT_EE6__callclsr3stdE7declvalIRKS5_EEEEES7_, symObjAddr: 0x60C0, symBinAddr: 0x100010810, symSize: 0x24 }
  - { offsetInCU: 0x95D9, offset: 0x34672, size: 0x8, addend: 0x0, symName: __ZNSt3__119__allocator_destroyB8ue170006INS_9allocatorI17ECFlightItineraryEENS_16reverse_iteratorINS4_IPS2_EEEES7_EEvRT_T0_T1_, symObjAddr: 0x63AC, symBinAddr: 0x100010AFC, symSize: 0x70 }
  - { offsetInCU: 0x963E, offset: 0x346D7, size: 0x8, addend: 0x0, symName: __ZNSt3__1neB8ue170006INS_16reverse_iteratorIP17ECFlightItineraryEES4_EEbRKNS1_IT_EERKNS1_IT0_EE, symObjAddr: 0x6458, symBinAddr: 0x100010BA8, symSize: 0x60 }
  - { offsetInCU: 0x968A, offset: 0x34723, size: 0x8, addend: 0x0, symName: __ZNSt3__112__to_addressB8ue170006INS_16reverse_iteratorINS1_IP17ECFlightItineraryEEEEvEEu7__decayIDTclsr19__to_address_helperIT_EE6__callclsr3stdE7declvalIRKS6_EEEEES8_, symObjAddr: 0x64E4, symBinAddr: 0x100010C34, symSize: 0x24 }
  - { offsetInCU: 0x96E9, offset: 0x34782, size: 0x8, addend: 0x0, symName: __ZNSt3__1eqB8ue170006IPP8ECFlightEEbRKNS_11__wrap_iterIT_EES8_, symObjAddr: 0x69BC, symBinAddr: 0x10001110C, symSize: 0x48 }
  - { offsetInCU: 0x972C, offset: 0x347C5, size: 0x8, addend: 0x0, symName: __ZNSt3__1neB8ue170006ERKNS_15__tree_iteratorINS_12basic_stringIcNS_11char_traitsIcEENS_9allocatorIcEEEEPNS_11__tree_nodeIS6_PvEElEESD_, symObjAddr: 0x6BB8, symBinAddr: 0x100011308, symSize: 0x34 }
  - { offsetInCU: 0x9769, offset: 0x34802, size: 0x8, addend: 0x0, symName: __ZNSt3__1eqB8ue170006ERKNS_15__tree_iteratorINS_12basic_stringIcNS_11char_traitsIcEENS_9allocatorIcEEEEPNS_11__tree_nodeIS6_PvEElEESD_, symObjAddr: 0x6C9C, symBinAddr: 0x1000113EC, symSize: 0x30 }
  - { offsetInCU: 0x97A7, offset: 0x34840, size: 0x8, addend: 0x0, symName: __ZNSt3__113__tree_removeB8ue170006IPNS_16__tree_node_baseIPvEEEEvT_S5_, symObjAddr: 0x7EB0, symBinAddr: 0x1000116AC, symSize: 0x6E0 }
  - { offsetInCU: 0x9825, offset: 0x348BE, size: 0x8, addend: 0x0, symName: __ZNSt3__116__tree_next_iterB8ue170006IPNS_15__tree_end_nodeIPNS_16__tree_node_baseIPvEEEES5_EET_T0_, symObjAddr: 0x8590, symBinAddr: 0x100011D8C, symSize: 0x80 }
  - { offsetInCU: 0x9863, offset: 0x348FC, size: 0x8, addend: 0x0, symName: __ZNSt3__110__tree_minB8ue170006IPNS_16__tree_node_baseIPvEEEET_S5_, symObjAddr: 0x8610, symBinAddr: 0x100011E0C, symSize: 0x40 }
  - { offsetInCU: 0x9898, offset: 0x34931, size: 0x8, addend: 0x0, symName: __ZNSt3__111__tree_nextB8ue170006IPNS_16__tree_node_baseIPvEEEET_S5_, symObjAddr: 0x8650, symBinAddr: 0x100011E4C, symSize: 0x80 }
  - { offsetInCU: 0xA2E3, offset: 0x3537C, size: 0x8, addend: 0x0, symName: __ZNSt3__16vectorI17ECFlightItineraryNS_9allocatorIS1_EEE26__swap_out_circular_bufferERNS_14__split_bufferIS1_RS3_EE, symObjAddr: 0x556C, symBinAddr: 0x10000FD3C, symSize: 0x110 }
  - { offsetInCU: 0xC69F, offset: 0x37738, size: 0x8, addend: 0x0, symName: __ZN18ECAirlineSimulatorC2Ev, symObjAddr: 0x0, symBinAddr: 0x10000C710, symSize: 0x3C }
  - { offsetInCU: 0xC6CB, offset: 0x37764, size: 0x8, addend: 0x0, symName: __ZN18ECAirlineSimulator4InitEv, symObjAddr: 0x3C, symBinAddr: 0x10000C74C, symSize: 0x98 }
  - { offsetInCU: 0xC6F3, offset: 0x3778C, size: 0x8, addend: 0x0, symName: __ZN18ECAirlineSimulatorC1Ev, symObjAddr: 0xD4, symBinAddr: 0x10000C7E4, symSize: 0x2C }
  - { offsetInCU: 0xC71F, offset: 0x377B8, size: 0x8, addend: 0x0, symName: __ZN18ECAirlineSimulatorD2Ev, symObjAddr: 0x100, symBinAddr: 0x10000C810, symSize: 0xBC }
  - { offsetInCU: 0xC74B, offset: 0x377E4, size: 0x8, addend: 0x0, symName: __ZN18ECAirlineSimulatorD1Ev, symObjAddr: 0x1BC, symBinAddr: 0x10000C8CC, symSize: 0x2C }
  - { offsetInCU: 0xC777, offset: 0x37810, size: 0x8, addend: 0x0, symName: __ZN18ECAirlineSimulatorD0Ev, symObjAddr: 0x1E8, symBinAddr: 0x10000C8F8, symSize: 0x58 }
  - { offsetInCU: 0xC7A3, offset: 0x3783C, size: 0x8, addend: 0x0, symName: __ZN18ECAirlineSimulator10AddAirportERKNSt3__112basic_stringIcNS0_11char_traitsIcEENS0_9allocatorIcEEEES8_, symObjAddr: 0x240, symBinAddr: 0x10000C950, symSize: 0x38 }
  - { offsetInCU: 0xC7E7, offset: 0x37880, size: 0x8, addend: 0x0, symName: __ZN18ECAirlineSimulator9AddFlightERNSt3__112basic_stringIcNS0_11char_traitsIcEENS0_9allocatorIcEEEES7_dii, symObjAddr: 0x278, symBinAddr: 0x10000C988, symSize: 0x98 }
  - { offsetInCU: 0xC855, offset: 0x378EE, size: 0x8, addend: 0x0, symName: __ZN18ECAirlineSimulator18SetDistBtwAirportsERKNSt3__112basic_stringIcNS0_11char_traitsIcEENS0_9allocatorIcEEEES8_i, symObjAddr: 0x3DC, symBinAddr: 0x10000CA20, symSize: 0x40 }
  - { offsetInCU: 0xC8A7, offset: 0x37940, size: 0x8, addend: 0x0, symName: __ZN18ECAirlineSimulator16SearchForFlightsERKNSt3__112basic_stringIcNS0_11char_traitsIcEENS0_9allocatorIcEEEES8_RNS0_6vectorI17ECFlightItineraryNS4_ISA_EEEE, symObjAddr: 0x41C, symBinAddr: 0x10000CA60, symSize: 0xC0 }
  - { offsetInCU: 0xC915, offset: 0x379AE, size: 0x8, addend: 0x0, symName: __ZNSt3__13setINS_12basic_stringIcNS_11char_traitsIcEENS_9allocatorIcEEEENS_4lessIS6_EENS4_IS6_EEEC1B8ue170006Ev, symObjAddr: 0x4DC, symBinAddr: 0x10000CB20, symSize: 0x2C }
  - { offsetInCU: 0xC93F, offset: 0x379D8, size: 0x8, addend: 0x0, symName: __ZN18ECAirlineSimulator3DFSERKNSt3__112basic_stringIcNS0_11char_traitsIcEENS0_9allocatorIcEEEES8_RNS0_3setIS6_NS0_4lessIS6_EENS4_IS6_EEEERNS0_6vectorIP8ECFlightNS4_ISH_EEEERNSF_I17ECFlightItineraryNS4_ISL_EEEE, symObjAddr: 0x534, symBinAddr: 0x10000CB4C, symSize: 0x300 }
  - { offsetInCU: 0xCA22, offset: 0x37ABB, size: 0x8, addend: 0x0, symName: __ZNSt3__13setINS_12basic_stringIcNS_11char_traitsIcEENS_9allocatorIcEEEENS_4lessIS6_EENS4_IS6_EEED1B8ue170006Ev, symObjAddr: 0x86C, symBinAddr: 0x10000CE4C, symSize: 0x2C }
  - { offsetInCU: 0xCA4C, offset: 0x37AE5, size: 0x8, addend: 0x0, symName: __ZNSt3__13setINS_12basic_stringIcNS_11char_traitsIcEENS_9allocatorIcEEEENS_4lessIS6_EENS4_IS6_EEE6insertB8ue170006ERKS6_, symObjAddr: 0x898, symBinAddr: 0x10000CE78, symSize: 0x4C }
  - { offsetInCU: 0xCA81, offset: 0x37B1A, size: 0x8, addend: 0x0, symName: __ZNSt3__16vectorI17ECFlightItineraryNS_9allocatorIS1_EEE9push_backB8ue170006EOS1_, symObjAddr: 0xA2C, symBinAddr: 0x10000CEC4, symSize: 0x6C }
  - { offsetInCU: 0xCAB7, offset: 0x37B50, size: 0x8, addend: 0x0, symName: __ZN17ECFlightItineraryD1Ev, symObjAddr: 0xA98, symBinAddr: 0x10000CF30, symSize: 0x2C }
  - { offsetInCU: 0xCAE3, offset: 0x37B7C, size: 0x8, addend: 0x0, symName: __ZNSt3__16vectorIP8ECFlightNS_9allocatorIS2_EEE5beginB8ue170006Ev, symObjAddr: 0xAC4, symBinAddr: 0x10000CF5C, symSize: 0x30 }
  - { offsetInCU: 0xCB0A, offset: 0x37BA3, size: 0x8, addend: 0x0, symName: __ZNSt3__16vectorIP8ECFlightNS_9allocatorIS2_EEE3endB8ue170006Ev, symObjAddr: 0xAF4, symBinAddr: 0x10000CF8C, symSize: 0x30 }
  - { offsetInCU: 0xCB31, offset: 0x37BCA, size: 0x8, addend: 0x0, symName: __ZNKSt3__111__wrap_iterIPP8ECFlightEdeB8ue170006Ev, symObjAddr: 0xB58, symBinAddr: 0x10000CFF0, symSize: 0x18 }
  - { offsetInCU: 0xCB57, offset: 0x37BF0, size: 0x8, addend: 0x0, symName: __ZNSt3__13setINS_12basic_stringIcNS_11char_traitsIcEENS_9allocatorIcEEEENS_4lessIS6_EENS4_IS6_EEE4findB8ue170006ERKS6_, symObjAddr: 0xBA0, symBinAddr: 0x10000D038, symSize: 0x40 }
  - { offsetInCU: 0xCB8C, offset: 0x37C25, size: 0x8, addend: 0x0, symName: __ZNSt3__13setINS_12basic_stringIcNS_11char_traitsIcEENS_9allocatorIcEEEENS_4lessIS6_EENS4_IS6_EEE3endB8ue170006Ev, symObjAddr: 0xBE0, symBinAddr: 0x10000D078, symSize: 0x38 }
  - { offsetInCU: 0xCBB2, offset: 0x37C4B, size: 0x8, addend: 0x0, symName: __ZNSt3__16vectorIP8ECFlightNS_9allocatorIS2_EEE4backB8ue170006Ev, symObjAddr: 0xC40, symBinAddr: 0x10000D0B0, symSize: 0x1C }
  - { offsetInCU: 0xCBD8, offset: 0x37C71, size: 0x8, addend: 0x0, symName: __ZNSt3__16vectorIP8ECFlightNS_9allocatorIS2_EEE8pop_backEv, symObjAddr: 0xCC8, symBinAddr: 0x10000D0CC, symSize: 0x2C }
  - { offsetInCU: 0xCBFF, offset: 0x37C98, size: 0x8, addend: 0x0, symName: __ZNSt3__111__wrap_iterIPP8ECFlightEppB8ue170006Ev, symObjAddr: 0xCF4, symBinAddr: 0x10000D0F8, symSize: 0x20 }
  - { offsetInCU: 0xCC25, offset: 0x37CBE, size: 0x8, addend: 0x0, symName: __ZNSt3__13setINS_12basic_stringIcNS_11char_traitsIcEENS_9allocatorIcEEEENS_4lessIS6_EENS4_IS6_EEE5eraseB8ue170006ERKS6_, symObjAddr: 0xD14, symBinAddr: 0x10000D118, symSize: 0x2C }
  - { offsetInCU: 0xCC5A, offset: 0x37CF3, size: 0x8, addend: 0x0, symName: __ZN18ECAirlineSimulator11GetAirportsERNSt3__16vectorINS0_12basic_stringIcNS0_11char_traitsIcEENS0_9allocatorIcEEEENS5_IS7_EEEE, symObjAddr: 0xD40, symBinAddr: 0x10000D144, symSize: 0x30 }
  - { offsetInCU: 0xCC90, offset: 0x37D29, size: 0x8, addend: 0x0, symName: __ZN17ECFlightItineraryD2Ev, symObjAddr: 0xD70, symBinAddr: 0x10000D174, symSize: 0x2C }
  - { offsetInCU: 0xCCBC, offset: 0x37D55, size: 0x8, addend: 0x0, symName: __ZNSt3__16vectorIP8ECFlightNS_9allocatorIS2_EEE17__destruct_at_endB8ue170006EPS2_, symObjAddr: 0xD9C, symBinAddr: 0x10000D1A0, symSize: 0x4C }
  - { offsetInCU: 0xCD05, offset: 0x37D9E, size: 0x8, addend: 0x0, symName: __ZNSt3__13setINS_12basic_stringIcNS_11char_traitsIcEENS_9allocatorIcEEEENS_4lessIS6_EENS4_IS6_EEEC2B8ue170006Ev, symObjAddr: 0x1C40, symBinAddr: 0x10000D1EC, symSize: 0x30 }
  - { offsetInCU: 0xCD2F, offset: 0x37DC8, size: 0x8, addend: 0x0, symName: __ZNSt3__16__treeINS_12basic_stringIcNS_11char_traitsIcEENS_9allocatorIcEEEENS_4lessIS6_EENS4_IS6_EEEC1ERKS8_, symObjAddr: 0x1C70, symBinAddr: 0x10000D21C, symSize: 0x34 }
  - { offsetInCU: 0xCD6A, offset: 0x37E03, size: 0x8, addend: 0x0, symName: __ZNSt3__16__treeINS_12basic_stringIcNS_11char_traitsIcEENS_9allocatorIcEEEENS_4lessIS6_EENS4_IS6_EEEC2ERKS8_, symObjAddr: 0x1CA4, symBinAddr: 0x10000D250, symSize: 0x70 }
  - { offsetInCU: 0xCDA5, offset: 0x37E3E, size: 0x8, addend: 0x0, symName: __ZNSt3__117__compressed_pairINS_15__tree_end_nodeIPNS_16__tree_node_baseIPvEEEENS_9allocatorINS_11__tree_nodeINS_12basic_stringIcNS_11char_traitsIcEENS7_IcEEEES3_EEEEEC1B8ue170006ILb1EvEEv, symObjAddr: 0x1D14, symBinAddr: 0x10000D2C0, symSize: 0x2C }
  - { offsetInCU: 0xCDDF, offset: 0x37E78, size: 0x8, addend: 0x0, symName: __ZNSt3__117__compressed_pairImNS_4lessINS_12basic_stringIcNS_11char_traitsIcEENS_9allocatorIcEEEEEEEC1B8ue170006IiRKS8_EEOT_OT0_, symObjAddr: 0x1D40, symBinAddr: 0x10000D2EC, symSize: 0x3C }
  - { offsetInCU: 0xCE37, offset: 0x37ED0, size: 0x8, addend: 0x0, symName: __ZNSt3__16__treeINS_12basic_stringIcNS_11char_traitsIcEENS_9allocatorIcEEEENS_4lessIS6_EENS4_IS6_EEE10__end_nodeB8ue170006Ev, symObjAddr: 0x1D7C, symBinAddr: 0x10000D328, symSize: 0x2C }
  - { offsetInCU: 0xCE5D, offset: 0x37EF6, size: 0x8, addend: 0x0, symName: __ZNSt3__16__treeINS_12basic_stringIcNS_11char_traitsIcEENS_9allocatorIcEEEENS_4lessIS6_EENS4_IS6_EEE12__begin_nodeB8ue170006Ev, symObjAddr: 0x1DA8, symBinAddr: 0x10000D354, symSize: 0x14 }
  - { offsetInCU: 0xCE83, offset: 0x37F1C, size: 0x8, addend: 0x0, symName: __ZNSt3__117__compressed_pairINS_15__tree_end_nodeIPNS_16__tree_node_baseIPvEEEENS_9allocatorINS_11__tree_nodeINS_12basic_stringIcNS_11char_traitsIcEENS7_IcEEEES3_EEEEEC2B8ue170006ILb1EvEEv, symObjAddr: 0x1DBC, symBinAddr: 0x10000D368, symSize: 0x34 }
  - { offsetInCU: 0xCEB8, offset: 0x37F51, size: 0x8, addend: 0x0, symName: __ZNSt3__122__compressed_pair_elemINS_9allocatorINS_11__tree_nodeINS_12basic_stringIcNS_11char_traitsIcEENS1_IcEEEEPvEEEELi1ELb1EEC2B8ue170006ENS_16__value_init_tagE, symObjAddr: 0x1E1C, symBinAddr: 0x10000D39C, symSize: 0x2C }
  - { offsetInCU: 0xCEED, offset: 0x37F86, size: 0x8, addend: 0x0, symName: __ZNSt3__19allocatorINS_11__tree_nodeINS_12basic_stringIcNS_11char_traitsIcEENS0_IcEEEEPvEEEC2B8ue170006Ev, symObjAddr: 0x1E8C, symBinAddr: 0x10000D3C8, symSize: 0x2C }
  - { offsetInCU: 0xCF17, offset: 0x37FB0, size: 0x8, addend: 0x0, symName: __ZNSt3__116__non_trivial_ifILb1ENS_9allocatorINS_11__tree_nodeINS_12basic_stringIcNS_11char_traitsIcEENS1_IcEEEEPvEEEEEC2B8ue170006Ev, symObjAddr: 0x1EB8, symBinAddr: 0x10000D3F4, symSize: 0x14 }
  - { offsetInCU: 0xCF41, offset: 0x37FDA, size: 0x8, addend: 0x0, symName: __ZNSt3__117__compressed_pairImNS_4lessINS_12basic_stringIcNS_11char_traitsIcEENS_9allocatorIcEEEEEEEC2B8ue170006IiRKS8_EEOT_OT0_, symObjAddr: 0x1ECC, symBinAddr: 0x10000D408, symSize: 0x44 }
  - { offsetInCU: 0xCF99, offset: 0x38032, size: 0x8, addend: 0x0, symName: __ZNSt3__122__compressed_pair_elemINS_4lessINS_12basic_stringIcNS_11char_traitsIcEENS_9allocatorIcEEEEEELi1ELb1EEC2B8ue170006IRKS8_vEEOT_, symObjAddr: 0x1F34, symBinAddr: 0x10000D44C, symSize: 0x18 }
  - { offsetInCU: 0xCFDB, offset: 0x38074, size: 0x8, addend: 0x0, symName: __ZNSt3__117__compressed_pairINS_15__tree_end_nodeIPNS_16__tree_node_baseIPvEEEENS_9allocatorINS_11__tree_nodeINS_12basic_stringIcNS_11char_traitsIcEENS7_IcEEEES3_EEEEE5firstB8ue170006Ev, symObjAddr: 0x1F60, symBinAddr: 0x10000D464, symSize: 0x24 }
  - { offsetInCU: 0xD001, offset: 0x3809A, size: 0x8, addend: 0x0, symName: __ZNSt3__13setINS_12basic_stringIcNS_11char_traitsIcEENS_9allocatorIcEEEENS_4lessIS6_EENS4_IS6_EEED2B8ue170006Ev, symObjAddr: 0x1F98, symBinAddr: 0x10000D488, symSize: 0x2C }
  - { offsetInCU: 0xD02B, offset: 0x380C4, size: 0x8, addend: 0x0, symName: __ZNSt3__16__treeINS_12basic_stringIcNS_11char_traitsIcEENS_9allocatorIcEEEENS_4lessIS6_EENS4_IS6_EEED1Ev, symObjAddr: 0x1FC4, symBinAddr: 0x10000D4B4, symSize: 0x2C }
  - { offsetInCU: 0xD057, offset: 0x380F0, size: 0x8, addend: 0x0, symName: __ZNSt3__16__treeINS_12basic_stringIcNS_11char_traitsIcEENS_9allocatorIcEEEENS_4lessIS6_EENS4_IS6_EEED2Ev, symObjAddr: 0x1FF0, symBinAddr: 0x10000D4E0, symSize: 0x38 }
  - { offsetInCU: 0xD083, offset: 0x3811C, size: 0x8, addend: 0x0, symName: __ZNSt3__16__treeINS_12basic_stringIcNS_11char_traitsIcEENS_9allocatorIcEEEENS_4lessIS6_EENS4_IS6_EEE7destroyEPNS_11__tree_nodeIS6_PvEE, symObjAddr: 0x2028, symBinAddr: 0x10000D518, symSize: 0xC0 }
  - { offsetInCU: 0xD0D7, offset: 0x38170, size: 0x8, addend: 0x0, symName: __ZNKSt3__16__treeINS_12basic_stringIcNS_11char_traitsIcEENS_9allocatorIcEEEENS_4lessIS6_EENS4_IS6_EEE6__rootB8ue170006Ev, symObjAddr: 0x20E8, symBinAddr: 0x10000D5D8, symSize: 0x28 }
  - { offsetInCU: 0xD0FD, offset: 0x38196, size: 0x8, addend: 0x0, symName: __ZNSt3__16__treeINS_12basic_stringIcNS_11char_traitsIcEENS_9allocatorIcEEEENS_4lessIS6_EENS4_IS6_EEE12__node_allocB8ue170006Ev, symObjAddr: 0x2110, symBinAddr: 0x10000D600, symSize: 0x28 }
  - { offsetInCU: 0xD123, offset: 0x381BC, size: 0x8, addend: 0x0, symName: __ZNSt3__116allocator_traitsINS_9allocatorINS_11__tree_nodeINS_12basic_stringIcNS_11char_traitsIcEENS1_IcEEEEPvEEEEE7destroyB8ue170006IS7_vvEEvRSA_PT_, symObjAddr: 0x2138, symBinAddr: 0x10000D628, symSize: 0x28 }
  - { offsetInCU: 0xD15D, offset: 0x381F6, size: 0x8, addend: 0x0, symName: __ZNSt3__122__tree_key_value_typesINS_12basic_stringIcNS_11char_traitsIcEENS_9allocatorIcEEEEE9__get_ptrB8ue170006ERS6_, symObjAddr: 0x2160, symBinAddr: 0x10000D650, symSize: 0x14 }
  - { offsetInCU: 0xD181, offset: 0x3821A, size: 0x8, addend: 0x0, symName: __ZNSt3__116allocator_traitsINS_9allocatorINS_11__tree_nodeINS_12basic_stringIcNS_11char_traitsIcEENS1_IcEEEEPvEEEEE10deallocateB8ue170006ERSA_PS9_m, symObjAddr: 0x2174, symBinAddr: 0x10000D664, symSize: 0x34 }
  - { offsetInCU: 0xD1C3, offset: 0x3825C, size: 0x8, addend: 0x0, symName: __ZNSt3__117__compressed_pairINS_15__tree_end_nodeIPNS_16__tree_node_baseIPvEEEENS_9allocatorINS_11__tree_nodeINS_12basic_stringIcNS_11char_traitsIcEENS7_IcEEEES3_EEEEE6secondB8ue170006Ev, symObjAddr: 0x21A8, symBinAddr: 0x10000D698, symSize: 0x24 }
  - { offsetInCU: 0xD1E9, offset: 0x38282, size: 0x8, addend: 0x0, symName: __ZNSt3__122__compressed_pair_elemINS_9allocatorINS_11__tree_nodeINS_12basic_stringIcNS_11char_traitsIcEENS1_IcEEEEPvEEEELi1ELb1EE5__getB8ue170006Ev, symObjAddr: 0x21CC, symBinAddr: 0x10000D6BC, symSize: 0x14 }
  - { offsetInCU: 0xD20F, offset: 0x382A8, size: 0x8, addend: 0x0, symName: __ZNSt3__19allocatorINS_11__tree_nodeINS_12basic_stringIcNS_11char_traitsIcEENS0_IcEEEEPvEEE10deallocateB8ue170006EPS8_m, symObjAddr: 0x21E0, symBinAddr: 0x10000D6D0, symSize: 0x74 }
  - { offsetInCU: 0xD251, offset: 0x382EA, size: 0x8, addend: 0x0, symName: __ZNKSt3__16__treeINS_12basic_stringIcNS_11char_traitsIcEENS_9allocatorIcEEEENS_4lessIS6_EENS4_IS6_EEE10__end_nodeB8ue170006Ev, symObjAddr: 0x22D0, symBinAddr: 0x10000D744, symSize: 0x2C }
  - { offsetInCU: 0xD277, offset: 0x38310, size: 0x8, addend: 0x0, symName: __ZNKSt3__117__compressed_pairINS_15__tree_end_nodeIPNS_16__tree_node_baseIPvEEEENS_9allocatorINS_11__tree_nodeINS_12basic_stringIcNS_11char_traitsIcEENS7_IcEEEES3_EEEEE5firstB8ue170006Ev, symObjAddr: 0x22FC, symBinAddr: 0x10000D770, symSize: 0x24 }
  - { offsetInCU: 0xD2A2, offset: 0x3833B, size: 0x8, addend: 0x0, symName: __ZNSt3__16__treeINS_12basic_stringIcNS_11char_traitsIcEENS_9allocatorIcEEEENS_4lessIS6_EENS4_IS6_EEE15__insert_uniqueB8ue170006ERKS6_, symObjAddr: 0x2720, symBinAddr: 0x10000D794, symSize: 0x50 }
  - { offsetInCU: 0xD2D7, offset: 0x38370, size: 0x8, addend: 0x0, symName: __ZNSt3__14pairINS_21__tree_const_iteratorINS_12basic_stringIcNS_11char_traitsIcEENS_9allocatorIcEEEEPNS_11__tree_nodeIS7_PvEElEEbEC1B8ue170006INS_15__tree_iteratorIS7_SB_lEEbEERKNS0_IT_T0_EE, symObjAddr: 0x2770, symBinAddr: 0x10000D7E4, symSize: 0x34 }
  - { offsetInCU: 0xD321, offset: 0x383BA, size: 0x8, addend: 0x0, symName: __ZNSt3__16__treeINS_12basic_stringIcNS_11char_traitsIcEENS_9allocatorIcEEEENS_4lessIS6_EENS4_IS6_EEE25__emplace_unique_key_argsIS6_JRKS6_EEENS_4pairINS_15__tree_iteratorIS6_PNS_11__tree_nodeIS6_PvEElEEbEERKT_DpOT0_, symObjAddr: 0x27A4, symBinAddr: 0x10000D818, symSize: 0xF0 }
  - { offsetInCU: 0xD3CC, offset: 0x38465, size: 0x8, addend: 0x0, symName: __ZNSt3__122__tree_key_value_typesINS_12basic_stringIcNS_11char_traitsIcEENS_9allocatorIcEEEEE9__get_keyB8ue170006ERKS6_, symObjAddr: 0x2894, symBinAddr: 0x10000D908, symSize: 0x14 }
  - { offsetInCU: 0xD3F0, offset: 0x38489, size: 0x8, addend: 0x0, symName: __ZNSt3__16__treeINS_12basic_stringIcNS_11char_traitsIcEENS_9allocatorIcEEEENS_4lessIS6_EENS4_IS6_EEE12__find_equalIS6_EERPNS_16__tree_node_baseIPvEERPNS_15__tree_end_nodeISF_EERKT_, symObjAddr: 0x28A8, symBinAddr: 0x10000D91C, symSize: 0x184 }
  - { offsetInCU: 0xD45C, offset: 0x384F5, size: 0x8, addend: 0x0, symName: __ZNSt3__16__treeINS_12basic_stringIcNS_11char_traitsIcEENS_9allocatorIcEEEENS_4lessIS6_EENS4_IS6_EEE16__construct_nodeIJRKS6_EEENS_10unique_ptrINS_11__tree_nodeIS6_PvEENS_22__tree_node_destructorINS4_ISH_EEEEEEDpOT_, symObjAddr: 0x2A2C, symBinAddr: 0x10000DAA0, symSize: 0x110 }
  - { offsetInCU: 0xD4BC, offset: 0x38555, size: 0x8, addend: 0x0, symName: __ZNSt3__16__treeINS_12basic_stringIcNS_11char_traitsIcEENS_9allocatorIcEEEENS_4lessIS6_EENS4_IS6_EEE16__insert_node_atEPNS_15__tree_end_nodeIPNS_16__tree_node_baseIPvEEEERSF_SF_, symObjAddr: 0x2B3C, symBinAddr: 0x10000DBB0, symSize: 0xCC }
  - { offsetInCU: 0xD510, offset: 0x385A9, size: 0x8, addend: 0x0, symName: __ZNKSt3__110unique_ptrINS_11__tree_nodeINS_12basic_stringIcNS_11char_traitsIcEENS_9allocatorIcEEEEPvEENS_22__tree_node_destructorINS5_IS9_EEEEE3getB8ue170006Ev, symObjAddr: 0x2C08, symBinAddr: 0x10000DC7C, symSize: 0x28 }
  - { offsetInCU: 0xD536, offset: 0x385CF, size: 0x8, addend: 0x0, symName: __ZNSt3__110unique_ptrINS_11__tree_nodeINS_12basic_stringIcNS_11char_traitsIcEENS_9allocatorIcEEEEPvEENS_22__tree_node_destructorINS5_IS9_EEEEE7releaseB8ue170006Ev, symObjAddr: 0x2C30, symBinAddr: 0x10000DCA4, symSize: 0x44 }
  - { offsetInCU: 0xD56B, offset: 0x38604, size: 0x8, addend: 0x0, symName: __ZNSt3__110unique_ptrINS_11__tree_nodeINS_12basic_stringIcNS_11char_traitsIcEENS_9allocatorIcEEEEPvEENS_22__tree_node_destructorINS5_IS9_EEEEED1B8ue170006Ev, symObjAddr: 0x2C74, symBinAddr: 0x10000DCE8, symSize: 0x2C }
  - { offsetInCU: 0xD595, offset: 0x3862E, size: 0x8, addend: 0x0, symName: __ZNSt3__115__tree_iteratorINS_12basic_stringIcNS_11char_traitsIcEENS_9allocatorIcEEEEPNS_11__tree_nodeIS6_PvEElEC1B8ue170006ESA_, symObjAddr: 0x2CA0, symBinAddr: 0x10000DD14, symSize: 0x34 }
  - { offsetInCU: 0xD5CE, offset: 0x38667, size: 0x8, addend: 0x0, symName: __ZNSt3__14pairINS_15__tree_iteratorINS_12basic_stringIcNS_11char_traitsIcEENS_9allocatorIcEEEEPNS_11__tree_nodeIS7_PvEElEEbEC1B8ue170006ERKSC_RKb, symObjAddr: 0x2CD4, symBinAddr: 0x10000DD48, symSize: 0x3C }
  - { offsetInCU: 0xD614, offset: 0x386AD, size: 0x8, addend: 0x0, symName: __ZNKSt3__16__treeINS_12basic_stringIcNS_11char_traitsIcEENS_9allocatorIcEEEENS_4lessIS6_EENS4_IS6_EEE10__root_ptrB8ue170006Ev, symObjAddr: 0x2D10, symBinAddr: 0x10000DD84, symSize: 0x24 }
  - { offsetInCU: 0xD63A, offset: 0x386D3, size: 0x8, addend: 0x0, symName: __ZNSt3__16__treeINS_12basic_stringIcNS_11char_traitsIcEENS_9allocatorIcEEEENS_4lessIS6_EENS4_IS6_EEE10value_compB8ue170006Ev, symObjAddr: 0x2D34, symBinAddr: 0x10000DDA8, symSize: 0x28 }
  - { offsetInCU: 0xD660, offset: 0x386F9, size: 0x8, addend: 0x0, symName: __ZNKSt3__14lessINS_12basic_stringIcNS_11char_traitsIcEENS_9allocatorIcEEEEEclB8ue170006ERKS6_S9_, symObjAddr: 0x2D5C, symBinAddr: 0x10000DDD0, symSize: 0x34 }
  - { offsetInCU: 0xD6A4, offset: 0x3873D, size: 0x8, addend: 0x0, symName: __ZNSt3__117__compressed_pairImNS_4lessINS_12basic_stringIcNS_11char_traitsIcEENS_9allocatorIcEEEEEEE6secondB8ue170006Ev, symObjAddr: 0x2D90, symBinAddr: 0x10000DE04, symSize: 0x24 }
  - { offsetInCU: 0xD6CA, offset: 0x38763, size: 0x8, addend: 0x0, symName: __ZNSt3__122__compressed_pair_elemINS_4lessINS_12basic_stringIcNS_11char_traitsIcEENS_9allocatorIcEEEEEELi1ELb1EE5__getB8ue170006Ev, symObjAddr: 0x2DB4, symBinAddr: 0x10000DE28, symSize: 0x14 }
  - { offsetInCU: 0xD6F0, offset: 0x38789, size: 0x8, addend: 0x0, symName: __ZNKSt3__112basic_stringIcNS_11char_traitsIcEENS_9allocatorIcEEE7compareB8ue170006ERKS5_, symObjAddr: 0x2E00, symBinAddr: 0x10000DE74, symSize: 0x4C }
  - { offsetInCU: 0xD726, offset: 0x387BF, size: 0x8, addend: 0x0, symName: __ZNKSt3__112basic_stringIcNS_11char_traitsIcEENS_9allocatorIcEEE7compareINS_17basic_string_viewIcS2_EELi0EEEiRKT_, symObjAddr: 0x2E4C, symBinAddr: 0x10000DEC0, symSize: 0x140 }
  - { offsetInCU: 0xD7A8, offset: 0x38841, size: 0x8, addend: 0x0, symName: __ZNKSt3__112basic_stringIcNS_11char_traitsIcEENS_9allocatorIcEEEcvNS_17basic_string_viewIcS2_EEB8ue170006Ev, symObjAddr: 0x2F8C, symBinAddr: 0x10000E000, symSize: 0x50 }
  - { offsetInCU: 0xD7CE, offset: 0x38867, size: 0x8, addend: 0x0, symName: __ZNKSt3__117basic_string_viewIcNS_11char_traitsIcEEE4sizeB8ue170006Ev, symObjAddr: 0x3030, symBinAddr: 0x10000E050, symSize: 0x18 }
  - { offsetInCU: 0xD7F4, offset: 0x3888D, size: 0x8, addend: 0x0, symName: __ZNKSt3__117basic_string_viewIcNS_11char_traitsIcEEE4dataB8ue170006Ev, symObjAddr: 0x30AC, symBinAddr: 0x10000E068, symSize: 0x18 }
  - { offsetInCU: 0xD81A, offset: 0x388B3, size: 0x8, addend: 0x0, symName: __ZNSt3__117basic_string_viewIcNS_11char_traitsIcEEEC1B8ue170006EPKcm, symObjAddr: 0x31D4, symBinAddr: 0x10000E080, symSize: 0x3C }
  - { offsetInCU: 0xD862, offset: 0x388FB, size: 0x8, addend: 0x0, symName: __ZNSt3__117basic_string_viewIcNS_11char_traitsIcEEEC2B8ue170006EPKcm, symObjAddr: 0x3210, symBinAddr: 0x10000E0BC, symSize: 0x2C }
  - { offsetInCU: 0xD8AA, offset: 0x38943, size: 0x8, addend: 0x0, symName: __ZNSt3__116allocator_traitsINS_9allocatorINS_11__tree_nodeINS_12basic_stringIcNS_11char_traitsIcEENS1_IcEEEEPvEEEEE8allocateB8ue170006ERSA_m, symObjAddr: 0x323C, symBinAddr: 0x10000E0E8, symSize: 0x2C }
  - { offsetInCU: 0xD8DD, offset: 0x38976, size: 0x8, addend: 0x0, symName: __ZNSt3__122__tree_node_destructorINS_9allocatorINS_11__tree_nodeINS_12basic_stringIcNS_11char_traitsIcEENS1_IcEEEEPvEEEEEC1B8ue170006ERSA_b, symObjAddr: 0x3268, symBinAddr: 0x10000E114, symSize: 0x48 }
  - { offsetInCU: 0xD92A, offset: 0x389C3, size: 0x8, addend: 0x0, symName: __ZNSt3__110unique_ptrINS_11__tree_nodeINS_12basic_stringIcNS_11char_traitsIcEENS_9allocatorIcEEEEPvEENS_22__tree_node_destructorINS5_IS9_EEEEEC1B8ue170006ILb1EvEEPS9_NS_16__dependent_typeINS_27__unique_ptr_deleter_sfinaeISC_EEXT_EE20__good_rval_ref_typeE, symObjAddr: 0x32B0, symBinAddr: 0x10000E15C, symSize: 0x3C }
  - { offsetInCU: 0xD97B, offset: 0x38A14, size: 0x8, addend: 0x0, symName: __ZNSt3__116allocator_traitsINS_9allocatorINS_11__tree_nodeINS_12basic_stringIcNS_11char_traitsIcEENS1_IcEEEEPvEEEEE9constructB8ue170006IS7_JRKS7_EvEEvRSA_PT_DpOT0_, symObjAddr: 0x32EC, symBinAddr: 0x10000E198, symSize: 0x34 }
  - { offsetInCU: 0xD9D2, offset: 0x38A6B, size: 0x8, addend: 0x0, symName: __ZNKSt3__110unique_ptrINS_11__tree_nodeINS_12basic_stringIcNS_11char_traitsIcEENS_9allocatorIcEEEEPvEENS_22__tree_node_destructorINS5_IS9_EEEEEptB8ue170006Ev, symObjAddr: 0x3320, symBinAddr: 0x10000E1CC, symSize: 0x28 }
  - { offsetInCU: 0xD9F8, offset: 0x38A91, size: 0x8, addend: 0x0, symName: __ZNSt3__110unique_ptrINS_11__tree_nodeINS_12basic_stringIcNS_11char_traitsIcEENS_9allocatorIcEEEEPvEENS_22__tree_node_destructorINS5_IS9_EEEEE11get_deleterB8ue170006Ev, symObjAddr: 0x3348, symBinAddr: 0x10000E1F4, symSize: 0x24 }
  - { offsetInCU: 0xDA1E, offset: 0x38AB7, size: 0x8, addend: 0x0, symName: __ZNSt3__19allocatorINS_11__tree_nodeINS_12basic_stringIcNS_11char_traitsIcEENS0_IcEEEEPvEEE8allocateB8ue170006Em, symObjAddr: 0x336C, symBinAddr: 0x10000E218, symSize: 0x8C }
  - { offsetInCU: 0xDA5C, offset: 0x38AF5, size: 0x8, addend: 0x0, symName: __ZNSt3__116allocator_traitsINS_9allocatorINS_11__tree_nodeINS_12basic_stringIcNS_11char_traitsIcEENS1_IcEEEEPvEEEEE8max_sizeB8ue170006ISA_vEEmRKSA_, symObjAddr: 0x33F8, symBinAddr: 0x10000E2A4, symSize: 0x24 }
  - { offsetInCU: 0xDA8A, offset: 0x38B23, size: 0x8, addend: 0x0, symName: __ZNKSt3__19allocatorINS_11__tree_nodeINS_12basic_stringIcNS_11char_traitsIcEENS0_IcEEEEPvEEE8max_sizeB8ue170006Ev, symObjAddr: 0x3478, symBinAddr: 0x10000E2C8, symSize: 0x20 }
  - { offsetInCU: 0xDAB0, offset: 0x38B49, size: 0x8, addend: 0x0, symName: __ZNSt3__122__tree_node_destructorINS_9allocatorINS_11__tree_nodeINS_12basic_stringIcNS_11char_traitsIcEENS1_IcEEEEPvEEEEEC2B8ue170006ERSA_b, symObjAddr: 0x34BC, symBinAddr: 0x10000E2E8, symSize: 0x38 }
  - { offsetInCU: 0xDAF8, offset: 0x38B91, size: 0x8, addend: 0x0, symName: __ZNSt3__110unique_ptrINS_11__tree_nodeINS_12basic_stringIcNS_11char_traitsIcEENS_9allocatorIcEEEEPvEENS_22__tree_node_destructorINS5_IS9_EEEEEC2B8ue170006ILb1EvEEPS9_NS_16__dependent_typeINS_27__unique_ptr_deleter_sfinaeISC_EEXT_EE20__good_rval_ref_typeE, symObjAddr: 0x34F4, symBinAddr: 0x10000E320, symSize: 0x5C }
  - { offsetInCU: 0xDB49, offset: 0x38BE2, size: 0x8, addend: 0x0, symName: __ZNSt3__117__compressed_pairIPNS_11__tree_nodeINS_12basic_stringIcNS_11char_traitsIcEENS_9allocatorIcEEEEPvEENS_22__tree_node_destructorINS5_IS9_EEEEEC1B8ue170006IRSA_SD_EEOT_OT0_, symObjAddr: 0x3550, symBinAddr: 0x10000E37C, symSize: 0x3C }
  - { offsetInCU: 0xDBA1, offset: 0x38C3A, size: 0x8, addend: 0x0, symName: __ZNSt3__117__compressed_pairIPNS_11__tree_nodeINS_12basic_stringIcNS_11char_traitsIcEENS_9allocatorIcEEEEPvEENS_22__tree_node_destructorINS5_IS9_EEEEEC2B8ue170006IRSA_SD_EEOT_OT0_, symObjAddr: 0x358C, symBinAddr: 0x10000E3B8, symSize: 0x48 }
  - { offsetInCU: 0xDBF9, offset: 0x38C92, size: 0x8, addend: 0x0, symName: __ZNSt3__122__compressed_pair_elemIPNS_11__tree_nodeINS_12basic_stringIcNS_11char_traitsIcEENS_9allocatorIcEEEEPvEELi0ELb0EEC2B8ue170006IRSA_vEEOT_, symObjAddr: 0x35D4, symBinAddr: 0x10000E400, symSize: 0x24 }
  - { offsetInCU: 0xDC3B, offset: 0x38CD4, size: 0x8, addend: 0x0, symName: __ZNSt3__122__compressed_pair_elemINS_22__tree_node_destructorINS_9allocatorINS_11__tree_nodeINS_12basic_stringIcNS_11char_traitsIcEENS2_IcEEEEPvEEEEEELi1ELb0EEC2B8ue170006ISC_vEEOT_, symObjAddr: 0x35F8, symBinAddr: 0x10000E424, symSize: 0x24 }
  - { offsetInCU: 0xDC7D, offset: 0x38D16, size: 0x8, addend: 0x0, symName: __ZNSt3__19allocatorINS_11__tree_nodeINS_12basic_stringIcNS_11char_traitsIcEENS0_IcEEEEPvEEE9constructB8ue170006IS6_JRKS6_EEEvPT_DpOT0_, symObjAddr: 0x361C, symBinAddr: 0x10000E448, symSize: 0x30 }
  - { offsetInCU: 0xDCD3, offset: 0x38D6C, size: 0x8, addend: 0x0, symName: __ZNKSt3__117__compressed_pairIPNS_11__tree_nodeINS_12basic_stringIcNS_11char_traitsIcEENS_9allocatorIcEEEEPvEENS_22__tree_node_destructorINS5_IS9_EEEEE5firstB8ue170006Ev, symObjAddr: 0x364C, symBinAddr: 0x10000E478, symSize: 0x24 }
  - { offsetInCU: 0xDCF9, offset: 0x38D92, size: 0x8, addend: 0x0, symName: __ZNKSt3__122__compressed_pair_elemIPNS_11__tree_nodeINS_12basic_stringIcNS_11char_traitsIcEENS_9allocatorIcEEEEPvEELi0ELb0EE5__getB8ue170006Ev, symObjAddr: 0x3670, symBinAddr: 0x10000E49C, symSize: 0x14 }
  - { offsetInCU: 0xDD1F, offset: 0x38DB8, size: 0x8, addend: 0x0, symName: __ZNSt3__117__compressed_pairIPNS_11__tree_nodeINS_12basic_stringIcNS_11char_traitsIcEENS_9allocatorIcEEEEPvEENS_22__tree_node_destructorINS5_IS9_EEEEE6secondB8ue170006Ev, symObjAddr: 0x3684, symBinAddr: 0x10000E4B0, symSize: 0x28 }
  - { offsetInCU: 0xDD45, offset: 0x38DDE, size: 0x8, addend: 0x0, symName: __ZNSt3__122__compressed_pair_elemINS_22__tree_node_destructorINS_9allocatorINS_11__tree_nodeINS_12basic_stringIcNS_11char_traitsIcEENS2_IcEEEEPvEEEEEELi1ELb0EE5__getB8ue170006Ev, symObjAddr: 0x36AC, symBinAddr: 0x10000E4D8, symSize: 0x14 }
  - { offsetInCU: 0xDD6B, offset: 0x38E04, size: 0x8, addend: 0x0, symName: __ZNSt3__16__treeINS_12basic_stringIcNS_11char_traitsIcEENS_9allocatorIcEEEENS_4lessIS6_EENS4_IS6_EEE4sizeB8ue170006Ev, symObjAddr: 0x3A00, symBinAddr: 0x10000E82C, symSize: 0x28 }
  - { offsetInCU: 0xDD91, offset: 0x38E2A, size: 0x8, addend: 0x0, symName: __ZNKSt3__116__tree_node_baseIPvE15__parent_unsafeB8ue170006Ev, symObjAddr: 0x3A28, symBinAddr: 0x10000E854, symSize: 0x18 }
  - { offsetInCU: 0xDDB7, offset: 0x38E50, size: 0x8, addend: 0x0, symName: __ZNSt3__116__tree_node_baseIPvE12__set_parentB8ue170006EPS2_, symObjAddr: 0x3C24, symBinAddr: 0x10000EA50, symSize: 0x20 }
  - { offsetInCU: 0xDDEC, offset: 0x38E85, size: 0x8, addend: 0x0, symName: __ZNSt3__117__compressed_pairImNS_4lessINS_12basic_stringIcNS_11char_traitsIcEENS_9allocatorIcEEEEEEE5firstB8ue170006Ev, symObjAddr: 0x3C44, symBinAddr: 0x10000EA70, symSize: 0x24 }
  - { offsetInCU: 0xDE12, offset: 0x38EAB, size: 0x8, addend: 0x0, symName: __ZNSt3__122__compressed_pair_elemImLi0ELb0EE5__getB8ue170006Ev, symObjAddr: 0x3C68, symBinAddr: 0x10000EA94, symSize: 0x14 }
  - { offsetInCU: 0xDE38, offset: 0x38ED1, size: 0x8, addend: 0x0, symName: __ZNSt3__117__compressed_pairIPNS_11__tree_nodeINS_12basic_stringIcNS_11char_traitsIcEENS_9allocatorIcEEEEPvEENS_22__tree_node_destructorINS5_IS9_EEEEE5firstB8ue170006Ev, symObjAddr: 0x3C7C, symBinAddr: 0x10000EAA8, symSize: 0x24 }
  - { offsetInCU: 0xDE5E, offset: 0x38EF7, size: 0x8, addend: 0x0, symName: __ZNSt3__122__compressed_pair_elemIPNS_11__tree_nodeINS_12basic_stringIcNS_11char_traitsIcEENS_9allocatorIcEEEEPvEELi0ELb0EE5__getB8ue170006Ev, symObjAddr: 0x3CA0, symBinAddr: 0x10000EACC, symSize: 0x14 }
  - { offsetInCU: 0xDE84, offset: 0x38F1D, size: 0x8, addend: 0x0, symName: __ZNSt3__110unique_ptrINS_11__tree_nodeINS_12basic_stringIcNS_11char_traitsIcEENS_9allocatorIcEEEEPvEENS_22__tree_node_destructorINS5_IS9_EEEEED2B8ue170006Ev, symObjAddr: 0x3CB4, symBinAddr: 0x10000EAE0, symSize: 0x30 }
  - { offsetInCU: 0xDEAE, offset: 0x38F47, size: 0x8, addend: 0x0, symName: __ZNSt3__110unique_ptrINS_11__tree_nodeINS_12basic_stringIcNS_11char_traitsIcEENS_9allocatorIcEEEEPvEENS_22__tree_node_destructorINS5_IS9_EEEEE5resetB8ue170006EPS9_, symObjAddr: 0x3CE4, symBinAddr: 0x10000EB10, symSize: 0x78 }
  - { offsetInCU: 0xDEF2, offset: 0x38F8B, size: 0x8, addend: 0x0, symName: __ZNSt3__122__tree_node_destructorINS_9allocatorINS_11__tree_nodeINS_12basic_stringIcNS_11char_traitsIcEENS1_IcEEEEPvEEEEEclB8ue170006EPS9_, symObjAddr: 0x3D5C, symBinAddr: 0x10000EB88, symSize: 0xA4 }
  - { offsetInCU: 0xDF27, offset: 0x38FC0, size: 0x8, addend: 0x0, symName: __ZNSt3__115__tree_iteratorINS_12basic_stringIcNS_11char_traitsIcEENS_9allocatorIcEEEEPNS_11__tree_nodeIS6_PvEElEC2B8ue170006ESA_, symObjAddr: 0x3E00, symBinAddr: 0x10000EC2C, symSize: 0x20 }
  - { offsetInCU: 0xDF60, offset: 0x38FF9, size: 0x8, addend: 0x0, symName: __ZNSt3__14pairINS_15__tree_iteratorINS_12basic_stringIcNS_11char_traitsIcEENS_9allocatorIcEEEEPNS_11__tree_nodeIS7_PvEElEEbEC2B8ue170006ERKSC_RKb, symObjAddr: 0x3E20, symBinAddr: 0x10000EC4C, symSize: 0x38 }
  - { offsetInCU: 0xDFA6, offset: 0x3903F, size: 0x8, addend: 0x0, symName: __ZNSt3__14pairINS_21__tree_const_iteratorINS_12basic_stringIcNS_11char_traitsIcEENS_9allocatorIcEEEEPNS_11__tree_nodeIS7_PvEElEEbEC2B8ue170006INS_15__tree_iteratorIS7_SB_lEEbEERKNS0_IT_T0_EE, symObjAddr: 0x3E58, symBinAddr: 0x10000EC84, symSize: 0x50 }
  - { offsetInCU: 0xDFF0, offset: 0x39089, size: 0x8, addend: 0x0, symName: __ZNSt3__121__tree_const_iteratorINS_12basic_stringIcNS_11char_traitsIcEENS_9allocatorIcEEEEPNS_11__tree_nodeIS6_PvEElEC1B8ue170006ENS_15__tree_iteratorIS6_SA_lEE, symObjAddr: 0x3EA8, symBinAddr: 0x10000ECD4, symSize: 0x34 }
  - { offsetInCU: 0xE029, offset: 0x390C2, size: 0x8, addend: 0x0, symName: __ZNSt3__121__tree_const_iteratorINS_12basic_stringIcNS_11char_traitsIcEENS_9allocatorIcEEEEPNS_11__tree_nodeIS6_PvEElEC2B8ue170006ENS_15__tree_iteratorIS6_SA_lEE, symObjAddr: 0x3EDC, symBinAddr: 0x10000ED08, symSize: 0x20 }
  - { offsetInCU: 0xE062, offset: 0x390FB, size: 0x8, addend: 0x0, symName: __ZNSt3__16vectorI17ECFlightItineraryNS_9allocatorIS1_EEE9__end_capB8ue170006Ev, symObjAddr: 0x3EFC, symBinAddr: 0x10000ED28, symSize: 0x28 }
  - { offsetInCU: 0xE08D, offset: 0x39126, size: 0x8, addend: 0x0, symName: __ZNSt3__16vectorI17ECFlightItineraryNS_9allocatorIS1_EEE22__construct_one_at_endB8ue170006IJS1_EEEvDpOT_, symObjAddr: 0x3F24, symBinAddr: 0x10000ED50, symSize: 0x98 }
  - { offsetInCU: 0xE0DC, offset: 0x39175, size: 0x8, addend: 0x0, symName: __ZNSt3__16vectorI17ECFlightItineraryNS_9allocatorIS1_EEE21__push_back_slow_pathIS1_EEvOT_, symObjAddr: 0x3FBC, symBinAddr: 0x10000EDE8, symSize: 0xE0 }
  - { offsetInCU: 0xE139, offset: 0x391D2, size: 0x8, addend: 0x0, symName: __ZNSt3__117__compressed_pairIP17ECFlightItineraryNS_9allocatorIS1_EEE5firstB8ue170006Ev, symObjAddr: 0x409C, symBinAddr: 0x10000EEC8, symSize: 0x24 }
  - { offsetInCU: 0xE15F, offset: 0x391F8, size: 0x8, addend: 0x0, symName: __ZNSt3__122__compressed_pair_elemIP17ECFlightItineraryLi0ELb0EE5__getB8ue170006Ev, symObjAddr: 0x40C0, symBinAddr: 0x10000EEEC, symSize: 0x14 }
  - { offsetInCU: 0xE19E, offset: 0x39237, size: 0x8, addend: 0x0, symName: __ZNSt3__16vectorI17ECFlightItineraryNS_9allocatorIS1_EEE21_ConstructTransactionC1B8ue170006ERS4_m, symObjAddr: 0x40D4, symBinAddr: 0x10000EF00, symSize: 0x3C }
  - { offsetInCU: 0xE1E6, offset: 0x3927F, size: 0x8, addend: 0x0, symName: __ZNSt3__116allocator_traitsINS_9allocatorI17ECFlightItineraryEEE9constructB8ue170006IS2_JS2_EvEEvRS3_PT_DpOT0_, symObjAddr: 0x4110, symBinAddr: 0x10000EF3C, symSize: 0x34 }
  - { offsetInCU: 0xE23D, offset: 0x392D6, size: 0x8, addend: 0x0, symName: __ZNSt3__16vectorI17ECFlightItineraryNS_9allocatorIS1_EEE7__allocB8ue170006Ev, symObjAddr: 0x4144, symBinAddr: 0x10000EF70, symSize: 0x28 }
  - { offsetInCU: 0xE263, offset: 0x392FC, size: 0x8, addend: 0x0, symName: __ZNSt3__16vectorI17ECFlightItineraryNS_9allocatorIS1_EEE21_ConstructTransactionD1B8ue170006Ev, symObjAddr: 0x4180, symBinAddr: 0x10000EFAC, symSize: 0x2C }
  - { offsetInCU: 0xE28D, offset: 0x39326, size: 0x8, addend: 0x0, symName: __ZNSt3__16vectorI17ECFlightItineraryNS_9allocatorIS1_EEE21_ConstructTransactionC2B8ue170006ERS4_m, symObjAddr: 0x41AC, symBinAddr: 0x10000EFD8, symSize: 0x4C }
  - { offsetInCU: 0xE2D5, offset: 0x3936E, size: 0x8, addend: 0x0, symName: __ZNSt3__19allocatorI17ECFlightItineraryE9constructB8ue170006IS1_JS1_EEEvPT_DpOT0_, symObjAddr: 0x41F8, symBinAddr: 0x10000F024, symSize: 0x30 }
  - { offsetInCU: 0xE32B, offset: 0x393C4, size: 0x8, addend: 0x0, symName: __ZN17ECFlightItineraryC1ERKS_, symObjAddr: 0x4228, symBinAddr: 0x10000F054, symSize: 0x34 }
  - { offsetInCU: 0xE360, offset: 0x393F9, size: 0x8, addend: 0x0, symName: __ZN17ECFlightItineraryC2ERKS_, symObjAddr: 0x425C, symBinAddr: 0x10000F088, symSize: 0x48 }
  - { offsetInCU: 0xE395, offset: 0x3942E, size: 0x8, addend: 0x0, symName: __ZNSt3__16vectorIP8ECFlightNS_9allocatorIS2_EEEC1ERKS5_, symObjAddr: 0x42A4, symBinAddr: 0x10000F0D0, symSize: 0x34 }
  - { offsetInCU: 0xE3D0, offset: 0x39469, size: 0x8, addend: 0x0, symName: __ZNSt3__16vectorIP8ECFlightNS_9allocatorIS2_EEEC2ERKS5_, symObjAddr: 0x42D8, symBinAddr: 0x10000F104, symSize: 0x94 }
  - { offsetInCU: 0xE415, offset: 0x394AE, size: 0x8, addend: 0x0, symName: __ZNSt3__116allocator_traitsINS_9allocatorIP8ECFlightEEE37select_on_container_copy_constructionB8ue170006IS4_vvEES4_RKS4_, symObjAddr: 0x436C, symBinAddr: 0x10000F198, symSize: 0x10 }
  - { offsetInCU: 0xE449, offset: 0x394E2, size: 0x8, addend: 0x0, symName: __ZNSt3__117__compressed_pairIPP8ECFlightNS_9allocatorIS2_EEEC1B8ue170006IDnS5_EEOT_OT0_, symObjAddr: 0x43A4, symBinAddr: 0x10000F1A8, symSize: 0x3C }
  - { offsetInCU: 0xE4A1, offset: 0x3953A, size: 0x8, addend: 0x0, symName: __ZNSt3__16vectorIP8ECFlightNS_9allocatorIS2_EEE16__init_with_sizeB8ue170006IPS2_S7_EEvT_T0_m, symObjAddr: 0x43E0, symBinAddr: 0x10000F1E4, symSize: 0xC0 }
  - { offsetInCU: 0xE515, offset: 0x395AE, size: 0x8, addend: 0x0, symName: __ZNSt3__117__compressed_pairIPP8ECFlightNS_9allocatorIS2_EEEC2B8ue170006IDnS5_EEOT_OT0_, symObjAddr: 0x44D8, symBinAddr: 0x10000F2A4, symSize: 0x44 }
  - { offsetInCU: 0xE56D, offset: 0x39606, size: 0x8, addend: 0x0, symName: __ZNSt3__122__compressed_pair_elemINS_9allocatorIP8ECFlightEELi1ELb1EEC2B8ue170006IS4_vEEOT_, symObjAddr: 0x451C, symBinAddr: 0x10000F2E8, symSize: 0x18 }
  - { offsetInCU: 0xE5AF, offset: 0x39648, size: 0x8, addend: 0x0, symName: __ZNSt3__16vectorIP8ECFlightNS_9allocatorIS2_EEE11__vallocateB8ue170006Em, symObjAddr: 0x4574, symBinAddr: 0x10000F340, symSize: 0xAC }
  - { offsetInCU: 0xE5F3, offset: 0x3968C, size: 0x8, addend: 0x0, symName: __ZNSt3__16vectorIP8ECFlightNS_9allocatorIS2_EEE18__construct_at_endIPS2_S7_EEvT_T0_m, symObjAddr: 0x4620, symBinAddr: 0x10000F3EC, symSize: 0x94 }
  - { offsetInCU: 0xE668, offset: 0x39701, size: 0x8, addend: 0x0, symName: __ZNSt3__128__exception_guard_exceptionsINS_6vectorIP8ECFlightNS_9allocatorIS3_EEE16__destroy_vectorEE10__completeB8ue170006Ev, symObjAddr: 0x46B4, symBinAddr: 0x10000F480, symSize: 0x1C }
  - { offsetInCU: 0xE68E, offset: 0x39727, size: 0x8, addend: 0x0, symName: __ZNSt3__128__exception_guard_exceptionsINS_6vectorIP8ECFlightNS_9allocatorIS3_EEE16__destroy_vectorEED1B8ue170006Ev, symObjAddr: 0x46D0, symBinAddr: 0x10000F49C, symSize: 0x2C }
  - { offsetInCU: 0xE6B8, offset: 0x39751, size: 0x8, addend: 0x0, symName: __ZNSt3__128__exception_guard_exceptionsINS_6vectorIP8ECFlightNS_9allocatorIS3_EEE16__destroy_vectorEEC1B8ue170006ES7_, symObjAddr: 0x46FC, symBinAddr: 0x10000F4C8, symSize: 0x34 }
  - { offsetInCU: 0xE6F0, offset: 0x39789, size: 0x8, addend: 0x0, symName: __ZNSt3__128__exception_guard_exceptionsINS_6vectorIP8ECFlightNS_9allocatorIS3_EEE16__destroy_vectorEEC2B8ue170006ES7_, symObjAddr: 0x4730, symBinAddr: 0x10000F4FC, symSize: 0x24 }
  - { offsetInCU: 0xE75A, offset: 0x397F3, size: 0x8, addend: 0x0, symName: __ZNSt3__14pairIPP8ECFlightS3_EC1B8ue170006ERKS3_S6_, symObjAddr: 0x4E20, symBinAddr: 0x10000F7A8, symSize: 0x3C }
  - { offsetInCU: 0xE7A0, offset: 0x39839, size: 0x8, addend: 0x0, symName: __ZNSt3__14pairIPP8ECFlightS3_EC2B8ue170006ERKS3_S6_, symObjAddr: 0x4E5C, symBinAddr: 0x10000F7E4, symSize: 0x34 }
  - { offsetInCU: 0xE7E6, offset: 0x3987F, size: 0x8, addend: 0x0, symName: __ZNSt3__129_AllocatorDestroyRangeReverseINS_9allocatorIP8ECFlightEEPS3_EC1B8ue170006ERS4_RS5_S8_, symObjAddr: 0x4EDC, symBinAddr: 0x10000F864, symSize: 0x44 }
  - { offsetInCU: 0xE83D, offset: 0x398D6, size: 0x8, addend: 0x0, symName: __ZNSt3__116allocator_traitsINS_9allocatorIP8ECFlightEEE9constructB8ue170006IS3_JRS3_EvEEvRS4_PT_DpOT0_, symObjAddr: 0x4F20, symBinAddr: 0x10000F8A8, symSize: 0x34 }
  - { offsetInCU: 0xE894, offset: 0x3992D, size: 0x8, addend: 0x0, symName: __ZNSt3__128__exception_guard_exceptionsINS_29_AllocatorDestroyRangeReverseINS_9allocatorIP8ECFlightEEPS4_EEE10__completeB8ue170006Ev, symObjAddr: 0x4F54, symBinAddr: 0x10000F8DC, symSize: 0x1C }
  - { offsetInCU: 0xE8BA, offset: 0x39953, size: 0x8, addend: 0x0, symName: __ZNSt3__128__exception_guard_exceptionsINS_29_AllocatorDestroyRangeReverseINS_9allocatorIP8ECFlightEEPS4_EEED1B8ue170006Ev, symObjAddr: 0x4F70, symBinAddr: 0x10000F8F8, symSize: 0x2C }
  - { offsetInCU: 0xE8E4, offset: 0x3997D, size: 0x8, addend: 0x0, symName: __ZNSt3__128__exception_guard_exceptionsINS_29_AllocatorDestroyRangeReverseINS_9allocatorIP8ECFlightEEPS4_EEEC1B8ue170006ES7_, symObjAddr: 0x4F9C, symBinAddr: 0x10000F924, symSize: 0x34 }
  - { offsetInCU: 0xE91D, offset: 0x399B6, size: 0x8, addend: 0x0, symName: __ZNSt3__128__exception_guard_exceptionsINS_29_AllocatorDestroyRangeReverseINS_9allocatorIP8ECFlightEEPS4_EEEC2B8ue170006ES7_, symObjAddr: 0x4FD0, symBinAddr: 0x10000F958, symSize: 0x30 }
  - { offsetInCU: 0xE956, offset: 0x399EF, size: 0x8, addend: 0x0, symName: __ZNSt3__129_AllocatorDestroyRangeReverseINS_9allocatorIP8ECFlightEEPS3_EC2B8ue170006ERS4_RS5_S8_, symObjAddr: 0x5000, symBinAddr: 0x10000F988, symSize: 0x38 }
  - { offsetInCU: 0xE9AD, offset: 0x39A46, size: 0x8, addend: 0x0, symName: __ZNSt3__19allocatorIP8ECFlightE9constructB8ue170006IS2_JRS2_EEEvPT_DpOT0_, symObjAddr: 0x5038, symBinAddr: 0x10000F9C0, symSize: 0x28 }
  - { offsetInCU: 0xEA03, offset: 0x39A9C, size: 0x8, addend: 0x0, symName: __ZNSt3__128__exception_guard_exceptionsINS_29_AllocatorDestroyRangeReverseINS_9allocatorIP8ECFlightEEPS4_EEED2B8ue170006Ev, symObjAddr: 0x5060, symBinAddr: 0x10000F9E8, symSize: 0x48 }
  - { offsetInCU: 0xEA2D, offset: 0x39AC6, size: 0x8, addend: 0x0, symName: __ZNKSt3__129_AllocatorDestroyRangeReverseINS_9allocatorIP8ECFlightEEPS3_EclB8ue170006Ev, symObjAddr: 0x50A8, symBinAddr: 0x10000FA30, symSize: 0x68 }
  - { offsetInCU: 0xEA53, offset: 0x39AEC, size: 0x8, addend: 0x0, symName: __ZNSt3__118__unwrap_iter_implIPP8ECFlightLb1EE8__unwrapB8ue170006ES3_, symObjAddr: 0x5318, symBinAddr: 0x10000FB08, symSize: 0x24 }
  - { offsetInCU: 0xEA76, offset: 0x39B0F, size: 0x8, addend: 0x0, symName: __ZNSt3__118__unwrap_iter_implIPP8ECFlightLb1EE8__rewrapB8ue170006ES3_S3_, symObjAddr: 0x533C, symBinAddr: 0x10000FB2C, symSize: 0x50 }
  - { offsetInCU: 0xEAA7, offset: 0x39B40, size: 0x8, addend: 0x0, symName: __ZNSt3__128__exception_guard_exceptionsINS_6vectorIP8ECFlightNS_9allocatorIS3_EEE16__destroy_vectorEED2B8ue170006Ev, symObjAddr: 0x53AC, symBinAddr: 0x10000FB7C, symSize: 0x48 }
  - { offsetInCU: 0xEAD1, offset: 0x39B6A, size: 0x8, addend: 0x0, symName: __ZNSt3__117__compressed_pairIP17ECFlightItineraryNS_9allocatorIS1_EEE6secondB8ue170006Ev, symObjAddr: 0x53F4, symBinAddr: 0x10000FBC4, symSize: 0x24 }
  - { offsetInCU: 0xEAF7, offset: 0x39B90, size: 0x8, addend: 0x0, symName: __ZNSt3__122__compressed_pair_elemINS_9allocatorI17ECFlightItineraryEELi1ELb1EE5__getB8ue170006Ev, symObjAddr: 0x5418, symBinAddr: 0x10000FBE8, symSize: 0x14 }
  - { offsetInCU: 0xEB1D, offset: 0x39BB6, size: 0x8, addend: 0x0, symName: __ZNSt3__16vectorI17ECFlightItineraryNS_9allocatorIS1_EEE21_ConstructTransactionD2B8ue170006Ev, symObjAddr: 0x542C, symBinAddr: 0x10000FBFC, symSize: 0x20 }
  - { offsetInCU: 0xEB47, offset: 0x39BE0, size: 0x8, addend: 0x0, symName: __ZNKSt3__16vectorI17ECFlightItineraryNS_9allocatorIS1_EEE11__recommendB8ue170006Em, symObjAddr: 0x544C, symBinAddr: 0x10000FC1C, symSize: 0xB4 }
  - { offsetInCU: 0xEB9B, offset: 0x39C34, size: 0x8, addend: 0x0, symName: __ZNKSt3__16vectorI17ECFlightItineraryNS_9allocatorIS1_EEE4sizeB8ue170006Ev, symObjAddr: 0x5500, symBinAddr: 0x10000FCD0, symSize: 0x28 }
  - { offsetInCU: 0xEBC1, offset: 0x39C5A, size: 0x8, addend: 0x0, symName: __ZNSt3__114__split_bufferI17ECFlightItineraryRNS_9allocatorIS1_EEEC1EmmS4_, symObjAddr: 0x5528, symBinAddr: 0x10000FCF8, symSize: 0x44 }
  - { offsetInCU: 0xEC17, offset: 0x39CB0, size: 0x8, addend: 0x0, symName: __ZNSt3__114__split_bufferI17ECFlightItineraryRNS_9allocatorIS1_EEED1Ev, symObjAddr: 0x567C, symBinAddr: 0x10000FE4C, symSize: 0x2C }
  - { offsetInCU: 0xEC43, offset: 0x39CDC, size: 0x8, addend: 0x0, symName: __ZNKSt3__16vectorI17ECFlightItineraryNS_9allocatorIS1_EEE8max_sizeEv, symObjAddr: 0x56A8, symBinAddr: 0x10000FE78, symSize: 0x74 }
  - { offsetInCU: 0xEC6A, offset: 0x39D03, size: 0x8, addend: 0x0, symName: __ZNKSt3__16vectorI17ECFlightItineraryNS_9allocatorIS1_EEE20__throw_length_errorB8ue170006Ev, symObjAddr: 0x571C, symBinAddr: 0x10000FEEC, symSize: 0x1C }
  - { offsetInCU: 0xEC90, offset: 0x39D29, size: 0x8, addend: 0x0, symName: __ZNKSt3__16vectorI17ECFlightItineraryNS_9allocatorIS1_EEE8capacityB8ue170006Ev, symObjAddr: 0x5738, symBinAddr: 0x10000FF08, symSize: 0x40 }
  - { offsetInCU: 0xECC0, offset: 0x39D59, size: 0x8, addend: 0x0, symName: __ZNSt3__116allocator_traitsINS_9allocatorI17ECFlightItineraryEEE8max_sizeB8ue170006IS3_vEEmRKS3_, symObjAddr: 0x57A4, symBinAddr: 0x10000FF48, symSize: 0x24 }
  - { offsetInCU: 0xECEE, offset: 0x39D87, size: 0x8, addend: 0x0, symName: __ZNKSt3__16vectorI17ECFlightItineraryNS_9allocatorIS1_EEE7__allocB8ue170006Ev, symObjAddr: 0x57C8, symBinAddr: 0x10000FF6C, symSize: 0x28 }
  - { offsetInCU: 0xED14, offset: 0x39DAD, size: 0x8, addend: 0x0, symName: __ZNKSt3__19allocatorI17ECFlightItineraryE8max_sizeB8ue170006Ev, symObjAddr: 0x57F0, symBinAddr: 0x10000FF94, symSize: 0x18 }
  - { offsetInCU: 0xED3A, offset: 0x39DD3, size: 0x8, addend: 0x0, symName: __ZNKSt3__117__compressed_pairIP17ECFlightItineraryNS_9allocatorIS1_EEE6secondB8ue170006Ev, symObjAddr: 0x5808, symBinAddr: 0x10000FFAC, symSize: 0x24 }
  - { offsetInCU: 0xED60, offset: 0x39DF9, size: 0x8, addend: 0x0, symName: __ZNKSt3__122__compressed_pair_elemINS_9allocatorI17ECFlightItineraryEELi1ELb1EE5__getB8ue170006Ev, symObjAddr: 0x582C, symBinAddr: 0x10000FFD0, symSize: 0x14 }
  - { offsetInCU: 0xED86, offset: 0x39E1F, size: 0x8, addend: 0x0, symName: __ZNKSt3__16vectorI17ECFlightItineraryNS_9allocatorIS1_EEE9__end_capB8ue170006Ev, symObjAddr: 0x5840, symBinAddr: 0x10000FFE4, symSize: 0x28 }
  - { offsetInCU: 0xEDAC, offset: 0x39E45, size: 0x8, addend: 0x0, symName: __ZNKSt3__117__compressed_pairIP17ECFlightItineraryNS_9allocatorIS1_EEE5firstB8ue170006Ev, symObjAddr: 0x5868, symBinAddr: 0x10001000C, symSize: 0x24 }
  - { offsetInCU: 0xEDD2, offset: 0x39E6B, size: 0x8, addend: 0x0, symName: __ZNKSt3__122__compressed_pair_elemIP17ECFlightItineraryLi0ELb0EE5__getB8ue170006Ev, symObjAddr: 0x588C, symBinAddr: 0x100010030, symSize: 0x14 }
  - { offsetInCU: 0xEDF8, offset: 0x39E91, size: 0x8, addend: 0x0, symName: __ZNSt3__114__split_bufferI17ECFlightItineraryRNS_9allocatorIS1_EEEC2EmmS4_, symObjAddr: 0x58F4, symBinAddr: 0x100010044, symSize: 0xE0 }
  - { offsetInCU: 0xEE6C, offset: 0x39F05, size: 0x8, addend: 0x0, symName: __ZNSt3__117__compressed_pairIP17ECFlightItineraryRNS_9allocatorIS1_EEEC1B8ue170006IDnS5_EEOT_OT0_, symObjAddr: 0x59D4, symBinAddr: 0x100010124, symSize: 0x3C }
  - { offsetInCU: 0xEEC4, offset: 0x39F5D, size: 0x8, addend: 0x0, symName: __ZNSt3__114__split_bufferI17ECFlightItineraryRNS_9allocatorIS1_EEE7__allocB8ue170006Ev, symObjAddr: 0x5A50, symBinAddr: 0x1000101A0, symSize: 0x28 }
  - { offsetInCU: 0xEEEA, offset: 0x39F83, size: 0x8, addend: 0x0, symName: __ZNSt3__114__split_bufferI17ECFlightItineraryRNS_9allocatorIS1_EEE9__end_capB8ue170006Ev, symObjAddr: 0x5A78, symBinAddr: 0x1000101C8, symSize: 0x28 }
  - { offsetInCU: 0xEF10, offset: 0x39FA9, size: 0x8, addend: 0x0, symName: __ZNSt3__117__compressed_pairIP17ECFlightItineraryRNS_9allocatorIS1_EEEC2B8ue170006IDnS5_EEOT_OT0_, symObjAddr: 0x5AA0, symBinAddr: 0x1000101F0, symSize: 0x48 }
  - { offsetInCU: 0xEF68, offset: 0x3A001, size: 0x8, addend: 0x0, symName: __ZNSt3__122__compressed_pair_elemIP17ECFlightItineraryLi0ELb0EEC2B8ue170006IDnvEEOT_, symObjAddr: 0x5AE8, symBinAddr: 0x100010238, symSize: 0x1C }
  - { offsetInCU: 0xEFAA, offset: 0x3A043, size: 0x8, addend: 0x0, symName: __ZNSt3__122__compressed_pair_elemIRNS_9allocatorI17ECFlightItineraryEELi1ELb0EEC2B8ue170006IS4_vEEOT_, symObjAddr: 0x5B04, symBinAddr: 0x100010254, symSize: 0x20 }
  - { offsetInCU: 0xEFEC, offset: 0x3A085, size: 0x8, addend: 0x0, symName: __ZNSt3__19allocatorI17ECFlightItineraryE8allocateB8ue170006Em, symObjAddr: 0x5B24, symBinAddr: 0x100010274, symSize: 0x8C }
  - { offsetInCU: 0xF020, offset: 0x3A0B9, size: 0x8, addend: 0x0, symName: __ZNSt3__117__compressed_pairIP17ECFlightItineraryRNS_9allocatorIS1_EEE6secondB8ue170006Ev, symObjAddr: 0x5BB0, symBinAddr: 0x100010300, symSize: 0x28 }
  - { offsetInCU: 0xF046, offset: 0x3A0DF, size: 0x8, addend: 0x0, symName: __ZNSt3__122__compressed_pair_elemIRNS_9allocatorI17ECFlightItineraryEELi1ELb0EE5__getB8ue170006Ev, symObjAddr: 0x5BD8, symBinAddr: 0x100010328, symSize: 0x18 }
  - { offsetInCU: 0xF06C, offset: 0x3A105, size: 0x8, addend: 0x0, symName: __ZNSt3__117__compressed_pairIP17ECFlightItineraryRNS_9allocatorIS1_EEE5firstB8ue170006Ev, symObjAddr: 0x5BF0, symBinAddr: 0x100010340, symSize: 0x24 }
  - { offsetInCU: 0xF092, offset: 0x3A12B, size: 0x8, addend: 0x0, symName: __ZNKSt3__16vectorI17ECFlightItineraryNS_9allocatorIS1_EEE17__annotate_deleteB8ue170006Ev, symObjAddr: 0x5C14, symBinAddr: 0x100010364, symSize: 0xD4 }
  - { offsetInCU: 0xF0B8, offset: 0x3A151, size: 0x8, addend: 0x0, symName: __ZNSt3__116reverse_iteratorIP17ECFlightItineraryEC1B8ue170006ES2_, symObjAddr: 0x5E1C, symBinAddr: 0x10001056C, symSize: 0x34 }
  - { offsetInCU: 0xF0F0, offset: 0x3A189, size: 0x8, addend: 0x0, symName: __ZNKSt3__116reverse_iteratorIP17ECFlightItineraryE4baseB8ue170006Ev, symObjAddr: 0x5E50, symBinAddr: 0x1000105A0, symSize: 0x18 }
  - { offsetInCU: 0xF116, offset: 0x3A1AF, size: 0x8, addend: 0x0, symName: __ZNKSt3__16vectorI17ECFlightItineraryNS_9allocatorIS1_EEE14__annotate_newB8ue170006Em, symObjAddr: 0x5EA4, symBinAddr: 0x1000105F4, symSize: 0xC8 }
  - { offsetInCU: 0xF14B, offset: 0x3A1E4, size: 0x8, addend: 0x0, symName: __ZNKSt3__16vectorI17ECFlightItineraryNS_9allocatorIS1_EEE31__annotate_contiguous_containerB8ue170006EPKvS6_S6_S6_, symObjAddr: 0x5F6C, symBinAddr: 0x1000106BC, symSize: 0x20 }
  - { offsetInCU: 0xF19D, offset: 0x3A236, size: 0x8, addend: 0x0, symName: __ZNKSt3__16vectorI17ECFlightItineraryNS_9allocatorIS1_EEE4dataB8ue170006Ev, symObjAddr: 0x5F8C, symBinAddr: 0x1000106DC, symSize: 0x28 }
  - { offsetInCU: 0xF1C3, offset: 0x3A25C, size: 0x8, addend: 0x0, symName: __ZNSt3__129_AllocatorDestroyRangeReverseINS_9allocatorI17ECFlightItineraryEENS_16reverse_iteratorIPS2_EEEC1B8ue170006ERS3_RS6_S9_, symObjAddr: 0x6000, symBinAddr: 0x100010750, symSize: 0x44 }
  - { offsetInCU: 0xF21A, offset: 0x3A2B3, size: 0x8, addend: 0x0, symName: __ZNSt3__116allocator_traitsINS_9allocatorI17ECFlightItineraryEEE9constructB8ue170006IS2_JRKS2_EvEEvRS3_PT_DpOT0_, symObjAddr: 0x608C, symBinAddr: 0x1000107DC, symSize: 0x34 }
  - { offsetInCU: 0xF271, offset: 0x3A30A, size: 0x8, addend: 0x0, symName: __ZNKSt3__116reverse_iteratorIP17ECFlightItineraryEdeB8ue170006Ev, symObjAddr: 0x60E4, symBinAddr: 0x100010834, symSize: 0x28 }
  - { offsetInCU: 0xF2A5, offset: 0x3A33E, size: 0x8, addend: 0x0, symName: __ZNSt3__116reverse_iteratorIP17ECFlightItineraryEppB8ue170006Ev, symObjAddr: 0x610C, symBinAddr: 0x10001085C, symSize: 0x20 }
  - { offsetInCU: 0xF2CB, offset: 0x3A364, size: 0x8, addend: 0x0, symName: __ZNSt3__128__exception_guard_exceptionsINS_29_AllocatorDestroyRangeReverseINS_9allocatorI17ECFlightItineraryEENS_16reverse_iteratorIPS3_EEEEE10__completeB8ue170006Ev, symObjAddr: 0x612C, symBinAddr: 0x10001087C, symSize: 0x1C }
  - { offsetInCU: 0xF2F1, offset: 0x3A38A, size: 0x8, addend: 0x0, symName: __ZNSt3__128__exception_guard_exceptionsINS_29_AllocatorDestroyRangeReverseINS_9allocatorI17ECFlightItineraryEENS_16reverse_iteratorIPS3_EEEEED1B8ue170006Ev, symObjAddr: 0x6148, symBinAddr: 0x100010898, symSize: 0x2C }
  - { offsetInCU: 0xF31B, offset: 0x3A3B4, size: 0x8, addend: 0x0, symName: __ZNSt3__128__exception_guard_exceptionsINS_29_AllocatorDestroyRangeReverseINS_9allocatorI17ECFlightItineraryEENS_16reverse_iteratorIPS3_EEEEEC1B8ue170006ES8_, symObjAddr: 0x6174, symBinAddr: 0x1000108C4, symSize: 0x34 }
  - { offsetInCU: 0xF354, offset: 0x3A3ED, size: 0x8, addend: 0x0, symName: __ZNSt3__128__exception_guard_exceptionsINS_29_AllocatorDestroyRangeReverseINS_9allocatorI17ECFlightItineraryEENS_16reverse_iteratorIPS3_EEEEEC2B8ue170006ES8_, symObjAddr: 0x61A8, symBinAddr: 0x1000108F8, symSize: 0x30 }
  - { offsetInCU: 0xF38D, offset: 0x3A426, size: 0x8, addend: 0x0, symName: __ZNSt3__129_AllocatorDestroyRangeReverseINS_9allocatorI17ECFlightItineraryEENS_16reverse_iteratorIPS2_EEEC2B8ue170006ERS3_RS6_S9_, symObjAddr: 0x61D8, symBinAddr: 0x100010928, symSize: 0x38 }
  - { offsetInCU: 0xF3E4, offset: 0x3A47D, size: 0x8, addend: 0x0, symName: __ZNSt3__19allocatorI17ECFlightItineraryE9constructB8ue170006IS1_JRKS1_EEEvPT_DpOT0_, symObjAddr: 0x6210, symBinAddr: 0x100010960, symSize: 0x30 }
  - { offsetInCU: 0xF43F, offset: 0x3A4D8, size: 0x8, addend: 0x0, symName: __ZNSt3__119__to_address_helperINS_16reverse_iteratorIP17ECFlightItineraryEEvE6__callB8ue170006ERKS4_, symObjAddr: 0x6240, symBinAddr: 0x100010990, symSize: 0x4C }
  - { offsetInCU: 0xF462, offset: 0x3A4FB, size: 0x8, addend: 0x0, symName: __ZNKSt3__116reverse_iteratorIP17ECFlightItineraryEptB8ue170006Ev, symObjAddr: 0x628C, symBinAddr: 0x1000109DC, symSize: 0x24 }
  - { offsetInCU: 0xF488, offset: 0x3A521, size: 0x8, addend: 0x0, symName: __ZNSt3__128__exception_guard_exceptionsINS_29_AllocatorDestroyRangeReverseINS_9allocatorI17ECFlightItineraryEENS_16reverse_iteratorIPS3_EEEEED2B8ue170006Ev, symObjAddr: 0x62B0, symBinAddr: 0x100010A00, symSize: 0x48 }
  - { offsetInCU: 0xF4B2, offset: 0x3A54B, size: 0x8, addend: 0x0, symName: __ZNKSt3__129_AllocatorDestroyRangeReverseINS_9allocatorI17ECFlightItineraryEENS_16reverse_iteratorIPS2_EEEclB8ue170006Ev, symObjAddr: 0x62F8, symBinAddr: 0x100010A48, symSize: 0xB4 }
  - { offsetInCU: 0xF4D9, offset: 0x3A572, size: 0x8, addend: 0x0, symName: __ZNSt3__116reverse_iteratorINS0_IP17ECFlightItineraryEEEC1B8ue170006ES3_, symObjAddr: 0x641C, symBinAddr: 0x100010B6C, symSize: 0x3C }
  - { offsetInCU: 0xF511, offset: 0x3A5AA, size: 0x8, addend: 0x0, symName: __ZNSt3__116allocator_traitsINS_9allocatorI17ECFlightItineraryEEE7destroyB8ue170006IS2_vEEvRS3_PT_, symObjAddr: 0x64B8, symBinAddr: 0x100010C08, symSize: 0x2C }
  - { offsetInCU: 0xF54E, offset: 0x3A5E7, size: 0x8, addend: 0x0, symName: __ZNSt3__116reverse_iteratorINS0_IP17ECFlightItineraryEEEppB8ue170006Ev, symObjAddr: 0x6508, symBinAddr: 0x100010C58, symSize: 0x30 }
  - { offsetInCU: 0xF574, offset: 0x3A60D, size: 0x8, addend: 0x0, symName: __ZNKSt3__116reverse_iteratorINS0_IP17ECFlightItineraryEEE4baseB8ue170006Ev, symObjAddr: 0x6538, symBinAddr: 0x100010C88, symSize: 0x24 }
  - { offsetInCU: 0xF59A, offset: 0x3A633, size: 0x8, addend: 0x0, symName: __ZNSt3__19allocatorI17ECFlightItineraryE7destroyB8ue170006EPS1_, symObjAddr: 0x655C, symBinAddr: 0x100010CAC, symSize: 0x28 }
  - { offsetInCU: 0xF5D3, offset: 0x3A66C, size: 0x8, addend: 0x0, symName: __ZNSt3__119__to_address_helperINS_16reverse_iteratorINS1_IP17ECFlightItineraryEEEEvE6__callB8ue170006ERKS5_, symObjAddr: 0x6584, symBinAddr: 0x100010CD4, symSize: 0x4C }
  - { offsetInCU: 0xF5F6, offset: 0x3A68F, size: 0x8, addend: 0x0, symName: __ZNKSt3__116reverse_iteratorINS0_IP17ECFlightItineraryEEEptB8ue170006Ev, symObjAddr: 0x65D0, symBinAddr: 0x100010D20, symSize: 0x24 }
  - { offsetInCU: 0xF61C, offset: 0x3A6B5, size: 0x8, addend: 0x0, symName: __ZNKSt3__116reverse_iteratorINS0_IP17ECFlightItineraryEEEdeB8ue170006Ev, symObjAddr: 0x65F4, symBinAddr: 0x100010D44, symSize: 0x34 }
  - { offsetInCU: 0xF650, offset: 0x3A6E9, size: 0x8, addend: 0x0, symName: __ZNSt3__116reverse_iteratorIP17ECFlightItineraryEmmB8ue170006Ev, symObjAddr: 0x6628, symBinAddr: 0x100010D78, symSize: 0x20 }
  - { offsetInCU: 0xF676, offset: 0x3A70F, size: 0x8, addend: 0x0, symName: __ZNSt3__116reverse_iteratorINS0_IP17ECFlightItineraryEEEC2B8ue170006ES3_, symObjAddr: 0x6648, symBinAddr: 0x100010D98, symSize: 0x2C }
  - { offsetInCU: 0xF6AE, offset: 0x3A747, size: 0x8, addend: 0x0, symName: __ZNSt3__116reverse_iteratorIP17ECFlightItineraryEC2B8ue170006ES2_, symObjAddr: 0x6674, symBinAddr: 0x100010DC4, symSize: 0x28 }
  - { offsetInCU: 0xF6E6, offset: 0x3A77F, size: 0x8, addend: 0x0, symName: __ZNSt3__114__split_bufferI17ECFlightItineraryRNS_9allocatorIS1_EEED2Ev, symObjAddr: 0x669C, symBinAddr: 0x100010DEC, symSize: 0x80 }
  - { offsetInCU: 0xF712, offset: 0x3A7AB, size: 0x8, addend: 0x0, symName: __ZNSt3__114__split_bufferI17ECFlightItineraryRNS_9allocatorIS1_EEE5clearB8ue170006Ev, symObjAddr: 0x671C, symBinAddr: 0x100010E6C, symSize: 0x28 }
  - { offsetInCU: 0xF738, offset: 0x3A7D1, size: 0x8, addend: 0x0, symName: __ZNSt3__116allocator_traitsINS_9allocatorI17ECFlightItineraryEEE10deallocateB8ue170006ERS3_PS2_m, symObjAddr: 0x6744, symBinAddr: 0x100010E94, symSize: 0x34 }
  - { offsetInCU: 0xF77A, offset: 0x3A813, size: 0x8, addend: 0x0, symName: __ZNKSt3__114__split_bufferI17ECFlightItineraryRNS_9allocatorIS1_EEE8capacityB8ue170006Ev, symObjAddr: 0x6778, symBinAddr: 0x100010EC8, symSize: 0x40 }
  - { offsetInCU: 0xF7A0, offset: 0x3A839, size: 0x8, addend: 0x0, symName: __ZNSt3__114__split_bufferI17ECFlightItineraryRNS_9allocatorIS1_EEE17__destruct_at_endB8ue170006EPS1_, symObjAddr: 0x67B8, symBinAddr: 0x100010F08, symSize: 0x2C }
  - { offsetInCU: 0xF7D4, offset: 0x3A86D, size: 0x8, addend: 0x0, symName: __ZNSt3__114__split_bufferI17ECFlightItineraryRNS_9allocatorIS1_EEE17__destruct_at_endB8ue170006EPS1_NS_17integral_constantIbLb0EEE, symObjAddr: 0x67E4, symBinAddr: 0x100010F34, symSize: 0x94 }
  - { offsetInCU: 0xF814, offset: 0x3A8AD, size: 0x8, addend: 0x0, symName: __ZNSt3__19allocatorI17ECFlightItineraryE10deallocateB8ue170006EPS1_m, symObjAddr: 0x6878, symBinAddr: 0x100010FC8, symSize: 0x74 }
  - { offsetInCU: 0xF856, offset: 0x3A8EF, size: 0x8, addend: 0x0, symName: __ZNKSt3__114__split_bufferI17ECFlightItineraryRNS_9allocatorIS1_EEE9__end_capB8ue170006Ev, symObjAddr: 0x68EC, symBinAddr: 0x10001103C, symSize: 0x28 }
  - { offsetInCU: 0xF87C, offset: 0x3A915, size: 0x8, addend: 0x0, symName: __ZNKSt3__117__compressed_pairIP17ECFlightItineraryRNS_9allocatorIS1_EEE5firstB8ue170006Ev, symObjAddr: 0x6914, symBinAddr: 0x100011064, symSize: 0x24 }
  - { offsetInCU: 0xF8A2, offset: 0x3A93B, size: 0x8, addend: 0x0, symName: __ZNSt3__16vectorIP8ECFlightNS_9allocatorIS2_EEE11__make_iterB8ue170006EPS2_, symObjAddr: 0x6938, symBinAddr: 0x100011088, symSize: 0x30 }
  - { offsetInCU: 0xF8D7, offset: 0x3A970, size: 0x8, addend: 0x0, symName: __ZNSt3__111__wrap_iterIPP8ECFlightEC1B8ue170006ES3_, symObjAddr: 0x6968, symBinAddr: 0x1000110B8, symSize: 0x34 }
  - { offsetInCU: 0xF90F, offset: 0x3A9A8, size: 0x8, addend: 0x0, symName: __ZNSt3__111__wrap_iterIPP8ECFlightEC2B8ue170006ES3_, symObjAddr: 0x699C, symBinAddr: 0x1000110EC, symSize: 0x20 }
  - { offsetInCU: 0xF947, offset: 0x3A9E0, size: 0x8, addend: 0x0, symName: __ZNKSt3__111__wrap_iterIPP8ECFlightE4baseB8ue170006Ev, symObjAddr: 0x6A04, symBinAddr: 0x100011154, symSize: 0x18 }
  - { offsetInCU: 0xF96D, offset: 0x3AA06, size: 0x8, addend: 0x0, symName: __ZNSt3__16__treeINS_12basic_stringIcNS_11char_traitsIcEENS_9allocatorIcEEEENS_4lessIS6_EENS4_IS6_EEE4findIS6_EENS_15__tree_iteratorIS6_PNS_11__tree_nodeIS6_PvEElEERKT_, symObjAddr: 0x6A1C, symBinAddr: 0x10001116C, symSize: 0xF8 }
  - { offsetInCU: 0xF9BB, offset: 0x3AA54, size: 0x8, addend: 0x0, symName: __ZNSt3__16__treeINS_12basic_stringIcNS_11char_traitsIcEENS_9allocatorIcEEEENS_4lessIS6_EENS4_IS6_EEE13__lower_boundIS6_EENS_15__tree_iteratorIS6_PNS_11__tree_nodeIS6_PvEElEERKT_SG_PNS_15__tree_end_nodeIPNS_16__tree_node_baseISE_EEEE, symObjAddr: 0x6B14, symBinAddr: 0x100011264, symSize: 0xA4 }
  - { offsetInCU: 0xFA18, offset: 0x3AAB1, size: 0x8, addend: 0x0, symName: __ZNSt3__16__treeINS_12basic_stringIcNS_11char_traitsIcEENS_9allocatorIcEEEENS_4lessIS6_EENS4_IS6_EEE3endB8ue170006Ev, symObjAddr: 0x6BEC, symBinAddr: 0x10001133C, symSize: 0x34 }
  - { offsetInCU: 0xFA3E, offset: 0x3AAD7, size: 0x8, addend: 0x0, symName: __ZNKSt3__115__tree_iteratorINS_12basic_stringIcNS_11char_traitsIcEENS_9allocatorIcEEEEPNS_11__tree_nodeIS6_PvEElEdeB8ue170006Ev, symObjAddr: 0x6C20, symBinAddr: 0x100011370, symSize: 0x28 }
  - { offsetInCU: 0xFA64, offset: 0x3AAFD, size: 0x8, addend: 0x0, symName: __ZNSt3__115__tree_iteratorINS_12basic_stringIcNS_11char_traitsIcEENS_9allocatorIcEEEEPNS_11__tree_nodeIS6_PvEElEC1B8ue170006EPNS_15__tree_end_nodeIPNS_16__tree_node_baseIS8_EEEE, symObjAddr: 0x6C48, symBinAddr: 0x100011398, symSize: 0x34 }
  - { offsetInCU: 0xFA9D, offset: 0x3AB36, size: 0x8, addend: 0x0, symName: __ZNSt3__115__tree_iteratorINS_12basic_stringIcNS_11char_traitsIcEENS_9allocatorIcEEEEPNS_11__tree_nodeIS6_PvEElEC2B8ue170006EPNS_15__tree_end_nodeIPNS_16__tree_node_baseIS8_EEEE, symObjAddr: 0x6C7C, symBinAddr: 0x1000113CC, symSize: 0x20 }
  - { offsetInCU: 0xFAD6, offset: 0x3AB6F, size: 0x8, addend: 0x0, symName: __ZNKSt3__115__tree_iteratorINS_12basic_stringIcNS_11char_traitsIcEENS_9allocatorIcEEEEPNS_11__tree_nodeIS6_PvEElE8__get_npB8ue170006Ev, symObjAddr: 0x6CCC, symBinAddr: 0x10001141C, symSize: 0x18 }
  - { offsetInCU: 0xFAFC, offset: 0x3AB95, size: 0x8, addend: 0x0, symName: __ZNSt3__16__treeINS_12basic_stringIcNS_11char_traitsIcEENS_9allocatorIcEEEENS_4lessIS6_EENS4_IS6_EEE14__erase_uniqueIS6_EEmRKT_, symObjAddr: 0x7C38, symBinAddr: 0x100011434, symSize: 0xA0 }
  - { offsetInCU: 0xFB4A, offset: 0x3ABE3, size: 0x8, addend: 0x0, symName: __ZNSt3__16__treeINS_12basic_stringIcNS_11char_traitsIcEENS_9allocatorIcEEEENS_4lessIS6_EENS4_IS6_EEE5eraseENS_21__tree_const_iteratorIS6_PNS_11__tree_nodeIS6_PvEElEE, symObjAddr: 0x7CD8, symBinAddr: 0x1000114D4, symSize: 0x98 }
  - { offsetInCU: 0xFBAD, offset: 0x3AC46, size: 0x8, addend: 0x0, symName: __ZNKSt3__121__tree_const_iteratorINS_12basic_stringIcNS_11char_traitsIcEENS_9allocatorIcEEEEPNS_11__tree_nodeIS6_PvEElE8__get_npB8ue170006Ev, symObjAddr: 0x7D70, symBinAddr: 0x10001156C, symSize: 0x18 }
  - { offsetInCU: 0xFBD3, offset: 0x3AC6C, size: 0x8, addend: 0x0, symName: __ZNSt3__16__treeINS_12basic_stringIcNS_11char_traitsIcEENS_9allocatorIcEEEENS_4lessIS6_EENS4_IS6_EEE21__remove_node_pointerEPNS_11__tree_nodeIS6_PvEE, symObjAddr: 0x7D88, symBinAddr: 0x100011584, symSize: 0xC8 }
  - { offsetInCU: 0xFC18, offset: 0x3ACB1, size: 0x8, addend: 0x0, symName: __ZNKSt3__121__tree_const_iteratorINS_12basic_stringIcNS_11char_traitsIcEENS_9allocatorIcEEEEPNS_11__tree_nodeIS6_PvEElEdeB8ue170006Ev, symObjAddr: 0x7E50, symBinAddr: 0x10001164C, symSize: 0x28 }
  - { offsetInCU: 0xFC3E, offset: 0x3ACD7, size: 0x8, addend: 0x0, symName: __ZNSt3__115__tree_iteratorINS_12basic_stringIcNS_11char_traitsIcEENS_9allocatorIcEEEEPNS_11__tree_nodeIS6_PvEElEppB8ue170006Ev, symObjAddr: 0x7E78, symBinAddr: 0x100011674, symSize: 0x38 }
  - { offsetInCU: 0x26, offset: 0x3AE2B, size: 0x8, addend: 0x0, symName: __ZN18ECAirlineTicketing18SearchForItineraryEv, symObjAddr: 0x0, symBinAddr: 0x100011ECC, symSize: 0x10 }
  - { offsetInCU: 0x680C, offset: 0x41611, size: 0x8, addend: 0x0, symName: __ZN18ECAirlineTicketing18SearchForItineraryEv, symObjAddr: 0x0, symBinAddr: 0x100011ECC, symSize: 0x10 }
  - { offsetInCU: 0x6834, offset: 0x41639, size: 0x8, addend: 0x0, symName: __ZN18ECAirlineTicketing16OrderItinerariesERNSt3__16vectorI17ECFlightItineraryNS0_9allocatorIS2_EEEE, symObjAddr: 0x10, symBinAddr: 0x100011EDC, symSize: 0x14 }
  - { offsetInCU: 0x4C, offset: 0x416C0, size: 0x8, addend: 0x0, symName: __ZN13ECAirportInfo8instanceE, symObjAddr: 0x64B68, symBinAddr: 0x1000300F8, symSize: 0x0 }
  - { offsetInCU: 0x8035, offset: 0x496A9, size: 0x8, addend: 0x0, symName: __ZNSt3__17advanceB8ue170006INS_21__tree_const_iteratorINS_12__value_typeINS_12basic_stringIcNS_11char_traitsIcEENS_9allocatorIcEEEE9ECAirportEEPNS_11__tree_nodeISA_PvEElEEllvEEvRT_T0_, symObjAddr: 0x32B0, symBinAddr: 0x10001493C, symSize: 0x38 }
  - { offsetInCU: 0x80C7, offset: 0x4973B, size: 0x8, addend: 0x0, symName: __ZNSt3__16copy_nB8ue170006IPKcmPcEENS_9enable_ifIXsr37__has_random_access_iterator_categoryIT_EE5valueET1_E4typeES5_T0_S6_, symObjAddr: 0x5A20, symBinAddr: 0x100016210, symSize: 0x44 }
  - { offsetInCU: 0x9187, offset: 0x4A7FB, size: 0x8, addend: 0x0, symName: __ZNSt3__1eqB8ue170006ERKNS_20__map_const_iteratorINS_21__tree_const_iteratorINS_12__value_typeINS_12basic_stringIcNS_11char_traitsIcEENS_9allocatorIcEEEE9ECAirportEEPNS_11__tree_nodeISA_PvEElEEEESI_, symObjAddr: 0x724, symBinAddr: 0x1000125DC, symSize: 0x30 }
  - { offsetInCU: 0x91C4, offset: 0x4A838, size: 0x8, addend: 0x0, symName: __ZNSt3__1plB8ue170006IcNS_11char_traitsIcEENS_9allocatorIcEEEENS_12basic_stringIT_T0_T1_EERKS9_SB_, symObjAddr: 0x78C, symBinAddr: 0x100012644, symSize: 0x134 }
  - { offsetInCU: 0x9265, offset: 0x4A8D9, size: 0x8, addend: 0x0, symName: __ZNSt3__1neB8ue170006ERKNS_20__map_const_iteratorINS_21__tree_const_iteratorINS_12__value_typeINS_12basic_stringIcNS_11char_traitsIcEENS_9allocatorIcEEEE9ECAirportEEPNS_11__tree_nodeISA_PvEElEEEESI_, symObjAddr: 0xDC8, symBinAddr: 0x100012C4C, symSize: 0x30 }
  - { offsetInCU: 0x92C6, offset: 0x4A93A, size: 0x8, addend: 0x0, symName: __ZNSt3__1eqB8ue170006ERKNS_21__tree_const_iteratorINS_12__value_typeINS_12basic_stringIcNS_11char_traitsIcEENS_9allocatorIcEEEE9ECAirportEEPNS_11__tree_nodeIS9_PvEElEESG_, symObjAddr: 0x26E4, symBinAddr: 0x1000143FC, symSize: 0x30 }
  - { offsetInCU: 0x9304, offset: 0x4A978, size: 0x8, addend: 0x0, symName: __ZNSt3__14nextB8ue170006INS_21__tree_const_iteratorINS_12__value_typeINS_12basic_stringIcNS_11char_traitsIcEENS_9allocatorIcEEEE9ECAirportEEPNS_11__tree_nodeISA_PvEElEEEENS_9enable_ifIXsr29__has_input_iterator_categoryIT_EE5valueESH_E4typeESH_NS_15iterator_traitsISH_E15difference_typeE, symObjAddr: 0x2A2C, symBinAddr: 0x100014744, symSize: 0x3C }
  - { offsetInCU: 0x9347, offset: 0x4A9BB, size: 0x8, addend: 0x0, symName: __ZNSt3__116__tree_prev_iterB8ue170006IPNS_16__tree_node_baseIPvEEPNS_15__tree_end_nodeIS4_EEEET_T0_, symObjAddr: 0x3150, symBinAddr: 0x100014820, symSize: 0xB8 }
  - { offsetInCU: 0x9393, offset: 0x4AA07, size: 0x8, addend: 0x0, symName: __ZNSt3__110__tree_maxB8ue170006IPNS_16__tree_node_baseIPvEEEET_S5_, symObjAddr: 0x3208, symBinAddr: 0x1000148D8, symSize: 0x40 }
  - { offsetInCU: 0x93C8, offset: 0x4AA3C, size: 0x8, addend: 0x0, symName: __ZNSt3__121__convert_to_integralB8ue170006El, symObjAddr: 0x32E8, symBinAddr: 0x100014974, symSize: 0x14 }
  - { offsetInCU: 0x93F4, offset: 0x4AA68, size: 0x8, addend: 0x0, symName: __ZNSt3__19__advanceB8ue170006INS_21__tree_const_iteratorINS_12__value_typeINS_12basic_stringIcNS_11char_traitsIcEENS_9allocatorIcEEEE9ECAirportEEPNS_11__tree_nodeISA_PvEElEEEEvRT_NS_15iterator_traitsISG_E15difference_typeENS_26bidirectional_iterator_tagE, symObjAddr: 0x32FC, symBinAddr: 0x100014988, symSize: 0xA4 }
  - { offsetInCU: 0x94AE, offset: 0x4AB22, size: 0x8, addend: 0x0, symName: __ZNSt3__1neB8ue170006ERKNS_21__tree_const_iteratorINS_12__value_typeINS_12basic_stringIcNS_11char_traitsIcEENS_9allocatorIcEEEE9ECAirportEEPNS_11__tree_nodeIS9_PvEElEESG_, symObjAddr: 0x521C, symBinAddr: 0x100015E08, symSize: 0x34 }
  - { offsetInCU: 0x94EB, offset: 0x4AB5F, size: 0x8, addend: 0x0, symName: __ZNSt3__112__to_addressB8ue170006IcEEPT_S2_, symObjAddr: 0x540C, symBinAddr: 0x100015F34, symSize: 0x14 }
  - { offsetInCU: 0x9520, offset: 0x4AB94, size: 0x8, addend: 0x0, symName: __ZNSt3__14copyB8ue170006IPKcPcEET0_T_S5_S4_, symObjAddr: 0x5A64, symBinAddr: 0x100016254, symSize: 0x40 }
  - { offsetInCU: 0x957A, offset: 0x4ABEE, size: 0x8, addend: 0x0, symName: __ZNSt3__16__copyB8ue170006INS_17_ClassicAlgPolicyEPKcS3_PcEENS_4pairIT0_T2_EES6_T1_S7_, symObjAddr: 0x5AA4, symBinAddr: 0x100016294, symSize: 0x44 }
  - { offsetInCU: 0x95E6, offset: 0x4AC5A, size: 0x8, addend: 0x0, symName: __ZNSt3__123__dispatch_copy_or_moveB8ue170006INS_17_ClassicAlgPolicyENS_11__copy_loopIS1_EENS_14__copy_trivialEPKcS6_PcEENS_4pairIT2_T4_EES9_T3_SA_, symObjAddr: 0x5AE8, symBinAddr: 0x1000162D8, symSize: 0x44 }
  - { offsetInCU: 0x9664, offset: 0x4ACD8, size: 0x8, addend: 0x0, symName: __ZNSt3__121__unwrap_and_dispatchB8ue170006INS_10__overloadINS_11__copy_loopINS_17_ClassicAlgPolicyEEENS_14__copy_trivialEEEPKcS8_PcLi0EEENS_4pairIT0_T2_EESB_T1_SC_, symObjAddr: 0x5B2C, symBinAddr: 0x10001631C, symSize: 0xB4 }
  - { offsetInCU: 0x96F2, offset: 0x4AD66, size: 0x8, addend: 0x0, symName: __ZNSt3__114__unwrap_rangeB8ue170006IPKcS2_EENS_4pairIT0_S4_EET_S6_, symObjAddr: 0x5BE0, symBinAddr: 0x1000163D0, symSize: 0x60 }
  - { offsetInCU: 0x9831, offset: 0x4AEA5, size: 0x8, addend: 0x0, symName: __ZNSt3__113__unwrap_iterB8ue170006IPcNS_18__unwrap_iter_implIS1_Lb1EEELi0EEEDTclsrT0_8__unwrapclsr3stdE7declvalIT_EEEES5_, symObjAddr: 0x5C88, symBinAddr: 0x100016478, symSize: 0x24 }
  - { offsetInCU: 0x9875, offset: 0x4AEE9, size: 0x8, addend: 0x0, symName: __ZNSt3__19make_pairB8ue170006IPKcPcEENS_4pairINS_18__unwrap_ref_decayIT_E4typeENS5_IT0_E4typeEEEOS6_OS9_, symObjAddr: 0x5CAC, symBinAddr: 0x10001649C, symSize: 0x38 }
  - { offsetInCU: 0x98C4, offset: 0x4AF38, size: 0x8, addend: 0x0, symName: __ZNSt3__114__rewrap_rangeB8ue170006IPKcS2_EET_S3_T0_, symObjAddr: 0x5CE4, symBinAddr: 0x1000164D4, symSize: 0x2C }
  - { offsetInCU: 0x9910, offset: 0x4AF84, size: 0x8, addend: 0x0, symName: __ZNSt3__113__rewrap_iterB8ue170006IPcS1_NS_18__unwrap_iter_implIS1_Lb1EEEEET_S4_T0_, symObjAddr: 0x5D10, symBinAddr: 0x100016500, symSize: 0x50 }
  - { offsetInCU: 0x9965, offset: 0x4AFD9, size: 0x8, addend: 0x0, symName: __ZNSt3__19make_pairB8ue170006IPKcS2_EENS_4pairINS_18__unwrap_ref_decayIT_E4typeENS4_IT0_E4typeEEEOS5_OS8_, symObjAddr: 0x5D60, symBinAddr: 0x100016550, symSize: 0x38 }
  - { offsetInCU: 0x99B4, offset: 0x4B028, size: 0x8, addend: 0x0, symName: __ZNSt3__113__unwrap_iterB8ue170006IPKcNS_18__unwrap_iter_implIS2_Lb1EEELi0EEEDTclsrT0_8__unwrapclsr3stdE7declvalIT_EEEES6_, symObjAddr: 0x5D98, symBinAddr: 0x100016588, symSize: 0x24 }
  - { offsetInCU: 0x9AF8, offset: 0x4B16C, size: 0x8, addend: 0x0, symName: __ZNSt3__119__copy_trivial_implB8ue170006IKccEENS_4pairIPT_PT0_EES4_S4_S6_, symObjAddr: 0x5E50, symBinAddr: 0x100016640, symSize: 0x78 }
  - { offsetInCU: 0x9B60, offset: 0x4B1D4, size: 0x8, addend: 0x0, symName: __ZNSt3__119__constexpr_memmoveB8ue170006IcKcLi0EEEPT_S3_PT0_NS_15__element_countE, symObjAddr: 0x5EC8, symBinAddr: 0x1000166B8, symSize: 0xA0 }
  - { offsetInCU: 0x9BCE, offset: 0x4B242, size: 0x8, addend: 0x0, symName: __ZNSt3__19make_pairB8ue170006IRPKcPcEENS_4pairINS_18__unwrap_ref_decayIT_E4typeENS6_IT0_E4typeEEEOS7_OSA_, symObjAddr: 0x5F68, symBinAddr: 0x100016758, symSize: 0x38 }
  - { offsetInCU: 0x9C70, offset: 0x4B2E4, size: 0x8, addend: 0x0, symName: __ZNSt3__113__rewrap_iterB8ue170006IPKcS2_NS_18__unwrap_iter_implIS2_Lb1EEEEET_S5_T0_, symObjAddr: 0x6034, symBinAddr: 0x100016824, symSize: 0x50 }
  - { offsetInCU: 0x9CC5, offset: 0x4B339, size: 0x8, addend: 0x0, symName: __ZNSt3__16fill_nB8ue170006IPcmcEET_S2_T0_RKT1_, symObjAddr: 0x6114, symBinAddr: 0x100016904, symSize: 0x44 }
  - { offsetInCU: 0x9D28, offset: 0x4B39C, size: 0x8, addend: 0x0, symName: __ZNSt3__18__fill_nB8ue170006IPcmcEET_S2_T0_RKT1_, symObjAddr: 0x6158, symBinAddr: 0x100016948, symSize: 0x64 }
  - { offsetInCU: 0x9D8B, offset: 0x4B3FF, size: 0x8, addend: 0x0, symName: __ZNSt3__121__convert_to_integralB8ue170006Em, symObjAddr: 0x61BC, symBinAddr: 0x1000169AC, symSize: 0x14 }
  - { offsetInCU: 0x9DEA, offset: 0x4B45E, size: 0x8, addend: 0x0, symName: __ZNSt3__1ltB8ue170006INS_12basic_stringIcNS_11char_traitsIcEENS_9allocatorIcEEEES6_S6_S6_EEbRKNS_4pairIT_T0_EERKNS7_IT1_T2_EE, symObjAddr: 0x67EC, symBinAddr: 0x100016FDC, symSize: 0x88 }
  - { offsetInCU: 0x9E69, offset: 0x4B4DD, size: 0x8, addend: 0x0, symName: __ZNSt3__120__throw_out_of_rangeB8ue170006EPKc, symObjAddr: 0x6FC8, symBinAddr: 0x1000177B8, symSize: 0x64 }
  - { offsetInCU: 0x9E93, offset: 0x4B507, size: 0x8, addend: 0x0, symName: __ZNSt3__119__allocate_at_leastB8ue170006INS_9allocatorINS_12basic_stringIcNS_11char_traitsIcEENS1_IcEEEEEEEENS_19__allocation_resultINS_16allocator_traitsIT_E7pointerEEERSA_m, symObjAddr: 0x7A58, symBinAddr: 0x100018070, symSize: 0x40 }
  - { offsetInCU: 0x9ED6, offset: 0x4B54A, size: 0x8, addend: 0x0, symName: __ZNSt3__142__uninitialized_allocator_move_if_noexceptB8ue170006INS_9allocatorINS_12basic_stringIcNS_11char_traitsIcEENS1_IcEEEEEENS_16reverse_iteratorIPS6_EESA_SA_EET2_RT_T0_T1_SB_, symObjAddr: 0x7D30, symBinAddr: 0x100018258, symSize: 0x134 }
  - { offsetInCU: 0x9F76, offset: 0x4B5EA, size: 0x8, addend: 0x0, symName: __ZNSt3__14swapB8ue170006IPNS_12basic_stringIcNS_11char_traitsIcEENS_9allocatorIcEEEEEEvRT_S9_, symObjAddr: 0x7EB0, symBinAddr: 0x1000183D8, symSize: 0x3C }
  - { offsetInCU: 0x9FC7, offset: 0x4B63B, size: 0x8, addend: 0x0, symName: __ZNSt3__122__make_exception_guardB8ue170006INS_29_AllocatorDestroyRangeReverseINS_9allocatorINS_12basic_stringIcNS_11char_traitsIcEENS2_IcEEEEEENS_16reverse_iteratorIPS7_EEEEEENS_28__exception_guard_exceptionsIT_EESE_, symObjAddr: 0x7FFC, symBinAddr: 0x1000184DC, symSize: 0x4C }
  - { offsetInCU: 0x9FFD, offset: 0x4B671, size: 0x8, addend: 0x0, symName: __ZNSt3__1neB8ue170006IPNS_12basic_stringIcNS_11char_traitsIcEENS_9allocatorIcEEEES7_EEbRKNS_16reverse_iteratorIT_EERKNS8_IT0_EE, symObjAddr: 0x808C, symBinAddr: 0x10001856C, symSize: 0x48 }
  - { offsetInCU: 0xA049, offset: 0x4B6BD, size: 0x8, addend: 0x0, symName: __ZNSt3__112__to_addressB8ue170006INS_16reverse_iteratorIPNS_12basic_stringIcNS_11char_traitsIcEENS_9allocatorIcEEEEEEvEEu7__decayIDTclsr19__to_address_helperIT_EE6__callclsr3stdE7declvalIRKSA_EEEEESC_, symObjAddr: 0x80D4, symBinAddr: 0x1000185B4, symSize: 0x24 }
  - { offsetInCU: 0xA0A8, offset: 0x4B71C, size: 0x8, addend: 0x0, symName: __ZNSt3__119__allocator_destroyB8ue170006INS_9allocatorINS_12basic_stringIcNS_11char_traitsIcEENS1_IcEEEEEENS_16reverse_iteratorINS8_IPS6_EEEESB_EEvRT_T0_T1_, symObjAddr: 0x8390, symBinAddr: 0x100018870, symSize: 0x70 }
  - { offsetInCU: 0xA10D, offset: 0x4B781, size: 0x8, addend: 0x0, symName: __ZNSt3__1neB8ue170006INS_16reverse_iteratorIPNS_12basic_stringIcNS_11char_traitsIcEENS_9allocatorIcEEEEEES9_EEbRKNS1_IT_EERKNS1_IT0_EE, symObjAddr: 0x843C, symBinAddr: 0x10001891C, symSize: 0x60 }
  - { offsetInCU: 0xA159, offset: 0x4B7CD, size: 0x8, addend: 0x0, symName: __ZNSt3__112__to_addressB8ue170006INS_16reverse_iteratorINS1_IPNS_12basic_stringIcNS_11char_traitsIcEENS_9allocatorIcEEEEEEEEvEEu7__decayIDTclsr19__to_address_helperIT_EE6__callclsr3stdE7declvalIRKSB_EEEEESD_, symObjAddr: 0x84C8, symBinAddr: 0x10001897C, symSize: 0x24 }
  - { offsetInCU: 0xAD84, offset: 0x4C3F8, size: 0x8, addend: 0x0, symName: __ZNSt3__16vectorINS_12basic_stringIcNS_11char_traitsIcEENS_9allocatorIcEEEENS4_IS6_EEE26__swap_out_circular_bufferERNS_14__split_bufferIS6_RS7_EE, symObjAddr: 0x7598, symBinAddr: 0x100017CEC, symSize: 0x110 }
  - { offsetInCU: 0xCCBB, offset: 0x4E32F, size: 0x8, addend: 0x0, symName: __ZN9ECAirportC2Ev, symObjAddr: 0x0, symBinAddr: 0x100011EF0, symSize: 0x6C }
  - { offsetInCU: 0xCCE7, offset: 0x4E35B, size: 0x8, addend: 0x0, symName: __ZN9ECAirportC1Ev, symObjAddr: 0xA4, symBinAddr: 0x100011F5C, symSize: 0x2C }
  - { offsetInCU: 0xCD13, offset: 0x4E387, size: 0x8, addend: 0x0, symName: __ZN9ECAirportC2ERKNSt3__112basic_stringIcNS0_11char_traitsIcEENS0_9allocatorIcEEEES8_, symObjAddr: 0xD0, symBinAddr: 0x100011F88, symSize: 0xC0 }
  - { offsetInCU: 0xCD5B, offset: 0x4E3CF, size: 0x8, addend: 0x0, symName: __ZN9ECAirportC1ERKNSt3__112basic_stringIcNS0_11char_traitsIcEENS0_9allocatorIcEEEES8_, symObjAddr: 0x190, symBinAddr: 0x100012048, symSize: 0x3C }
  - { offsetInCU: 0xCDA3, offset: 0x4E417, size: 0x8, addend: 0x0, symName: __ZN9ECAirportC2ERKS_, symObjAddr: 0x1CC, symBinAddr: 0x100012084, symSize: 0x140 }
  - { offsetInCU: 0xCDDD, offset: 0x4E451, size: 0x8, addend: 0x0, symName: __ZNK9ECAirport7GetNameEv, symObjAddr: 0x30C, symBinAddr: 0x1000121C4, symSize: 0x38 }
  - { offsetInCU: 0xCE03, offset: 0x4E477, size: 0x8, addend: 0x0, symName: __ZNK9ECAirport7GetCodeEv, symObjAddr: 0x344, symBinAddr: 0x1000121FC, symSize: 0x3C }
  - { offsetInCU: 0xCE29, offset: 0x4E49D, size: 0x8, addend: 0x0, symName: __ZNK9ECAirport11IsOperatingEv, symObjAddr: 0x380, symBinAddr: 0x100012238, symSize: 0x1C }
  - { offsetInCU: 0xCE4F, offset: 0x4E4C3, size: 0x8, addend: 0x0, symName: __ZN9ECAirportC1ERKS_, symObjAddr: 0x39C, symBinAddr: 0x100012254, symSize: 0x34 }
  - { offsetInCU: 0xCE89, offset: 0x4E4FD, size: 0x8, addend: 0x0, symName: __ZN13ECAirportInfo13CreateAirportERKNSt3__112basic_stringIcNS0_11char_traitsIcEENS0_9allocatorIcEEEES8_, symObjAddr: 0x3D0, symBinAddr: 0x100012288, symSize: 0x90 }
  - { offsetInCU: 0xCEDA, offset: 0x4E54E, size: 0x8, addend: 0x0, symName: __ZNSt3__13mapINS_12basic_stringIcNS_11char_traitsIcEENS_9allocatorIcEEEE9ECAirportNS_4lessIS6_EENS4_INS_4pairIKS6_S7_EEEEEixERSB_, symObjAddr: 0x460, symBinAddr: 0x100012318, symSize: 0xC8 }
  - { offsetInCU: 0xCF58, offset: 0x4E5CC, size: 0x8, addend: 0x0, symName: __ZN9ECAirportaSERKS_, symObjAddr: 0x528, symBinAddr: 0x1000123E0, symSize: 0x58 }
  - { offsetInCU: 0xCF89, offset: 0x4E5FD, size: 0x8, addend: 0x0, symName: __ZN9ECAirportD1Ev, symObjAddr: 0x580, symBinAddr: 0x100012438, symSize: 0x2C }
  - { offsetInCU: 0xCFB5, offset: 0x4E629, size: 0x8, addend: 0x0, symName: __ZNK13ECAirportInfo10GetAirportERKNSt3__112basic_stringIcNS0_11char_traitsIcEENS0_9allocatorIcEEEE, symObjAddr: 0x5AC, symBinAddr: 0x100012464, symSize: 0x138 }
  - { offsetInCU: 0xCFF9, offset: 0x4E66D, size: 0x8, addend: 0x0, symName: __ZNKSt3__13mapINS_12basic_stringIcNS_11char_traitsIcEENS_9allocatorIcEEEE9ECAirportNS_4lessIS6_EENS4_INS_4pairIKS6_S7_EEEEE4findB8ue170006ERSB_, symObjAddr: 0x6E4, symBinAddr: 0x10001259C, symSize: 0x40 }
  - { offsetInCU: 0xD02E, offset: 0x4E6A2, size: 0x8, addend: 0x0, symName: __ZNKSt3__13mapINS_12basic_stringIcNS_11char_traitsIcEENS_9allocatorIcEEEE9ECAirportNS_4lessIS6_EENS4_INS_4pairIKS6_S7_EEEEE3endB8ue170006Ev, symObjAddr: 0x754, symBinAddr: 0x10001260C, symSize: 0x38 }
  - { offsetInCU: 0xD059, offset: 0x4E6CD, size: 0x8, addend: 0x0, symName: __ZNKSt3__120__map_const_iteratorINS_21__tree_const_iteratorINS_12__value_typeINS_12basic_stringIcNS_11char_traitsIcEENS_9allocatorIcEEEE9ECAirportEEPNS_11__tree_nodeISA_PvEElEEEptB8ue170006Ev, symObjAddr: 0x8F4, symBinAddr: 0x100012778, symSize: 0x2C }
  - { offsetInCU: 0xD07F, offset: 0x4E6F3, size: 0x8, addend: 0x0, symName: __ZN13ECAirportInfo14SetDistanceBtwERKNSt3__112basic_stringIcNS0_11char_traitsIcEENS0_9allocatorIcEEEES8_i, symObjAddr: 0x920, symBinAddr: 0x1000127A4, symSize: 0x10C }
  - { offsetInCU: 0xD0D0, offset: 0x4E744, size: 0x8, addend: 0x0, symName: __ZNSt3__13mapINS_4pairINS_12basic_stringIcNS_11char_traitsIcEENS_9allocatorIcEEEES7_EEiNS_4lessIS8_EENS5_INS1_IKS8_iEEEEEixERSB_, symObjAddr: 0xA2C, symBinAddr: 0x1000128B0, symSize: 0xC8 }
  - { offsetInCU: 0xD149, offset: 0x4E7BD, size: 0x8, addend: 0x0, symName: __ZNSt3__14pairINS_12basic_stringIcNS_11char_traitsIcEENS_9allocatorIcEEEES6_EC1B8ue170006ERKS6_S9_, symObjAddr: 0xAF4, symBinAddr: 0x100012978, symSize: 0x3C }
  - { offsetInCU: 0xD18F, offset: 0x4E803, size: 0x8, addend: 0x0, symName: __ZNSt3__14pairINS_12basic_stringIcNS_11char_traitsIcEENS_9allocatorIcEEEES6_ED1Ev, symObjAddr: 0xB30, symBinAddr: 0x1000129B4, symSize: 0x2C }
  - { offsetInCU: 0xD1BB, offset: 0x4E82F, size: 0x8, addend: 0x0, symName: __ZNK13ECAirportInfo14GetDistanceBtwERKNSt3__112basic_stringIcNS0_11char_traitsIcEENS0_9allocatorIcEEEES8_, symObjAddr: 0xB5C, symBinAddr: 0x1000129E0, symSize: 0x98 }
  - { offsetInCU: 0xD1FE, offset: 0x4E872, size: 0x8, addend: 0x0, symName: __ZNKSt3__13mapINS_4pairINS_12basic_stringIcNS_11char_traitsIcEENS_9allocatorIcEEEES7_EEiNS_4lessIS8_EENS5_INS1_IKS8_iEEEEE2atERSB_, symObjAddr: 0xBF4, symBinAddr: 0x100012A78, symSize: 0x68 }
  - { offsetInCU: 0xD253, offset: 0x4E8C7, size: 0x8, addend: 0x0, symName: __ZN13ECAirportInfo11GetInstanceEv, symObjAddr: 0xC5C, symBinAddr: 0x100012AE0, symSize: 0x80 }
  - { offsetInCU: 0xD269, offset: 0x4E8DD, size: 0x8, addend: 0x0, symName: __ZN13ECAirportInfoC1Ev, symObjAddr: 0xCDC, symBinAddr: 0x100012B60, symSize: 0x2C }
  - { offsetInCU: 0xD293, offset: 0x4E907, size: 0x8, addend: 0x0, symName: __ZNK13ECAirportInfo11GetAirportsERNSt3__16vectorINS0_12basic_stringIcNS0_11char_traitsIcEENS0_9allocatorIcEEEENS5_IS7_EEEE, symObjAddr: 0xD08, symBinAddr: 0x100012B8C, symSize: 0x88 }
  - { offsetInCU: 0xD2E6, offset: 0x4E95A, size: 0x8, addend: 0x0, symName: __ZNKSt3__13mapINS_12basic_stringIcNS_11char_traitsIcEENS_9allocatorIcEEEE9ECAirportNS_4lessIS6_EENS4_INS_4pairIKS6_S7_EEEEE5beginB8ue170006Ev, symObjAddr: 0xD90, symBinAddr: 0x100012C14, symSize: 0x38 }
  - { offsetInCU: 0xD30B, offset: 0x4E97F, size: 0x8, addend: 0x0, symName: __ZNSt3__16vectorINS_12basic_stringIcNS_11char_traitsIcEENS_9allocatorIcEEEENS4_IS6_EEE9push_backB8ue170006ERKS6_, symObjAddr: 0xDF8, symBinAddr: 0x100012C7C, symSize: 0x6C }
  - { offsetInCU: 0xD342, offset: 0x4E9B6, size: 0x8, addend: 0x0, symName: __ZNSt3__120__map_const_iteratorINS_21__tree_const_iteratorINS_12__value_typeINS_12basic_stringIcNS_11char_traitsIcEENS_9allocatorIcEEEE9ECAirportEEPNS_11__tree_nodeISA_PvEElEEEppB8ue170006Ei, symObjAddr: 0xE64, symBinAddr: 0x100012CE8, symSize: 0x34 }
  - { offsetInCU: 0xD382, offset: 0x4E9F6, size: 0x8, addend: 0x0, symName: __ZN9ECAirportD2Ev, symObjAddr: 0xE98, symBinAddr: 0x100012D1C, symSize: 0x68 }
  - { offsetInCU: 0xD3AE, offset: 0x4EA22, size: 0x8, addend: 0x0, symName: __ZNSt3__14pairINS_12basic_stringIcNS_11char_traitsIcEENS_9allocatorIcEEEES6_ED2Ev, symObjAddr: 0xF00, symBinAddr: 0x100012D84, symSize: 0x68 }
  - { offsetInCU: 0xD3DA, offset: 0x4EA4E, size: 0x8, addend: 0x0, symName: __ZN13ECAirportInfoC2Ev, symObjAddr: 0xF68, symBinAddr: 0x100012DEC, symSize: 0xD0 }
  - { offsetInCU: 0xD404, offset: 0x4EA78, size: 0x8, addend: 0x0, symName: __ZNSt3__13mapINS_12basic_stringIcNS_11char_traitsIcEENS_9allocatorIcEEEE9ECAirportNS_4lessIS6_EENS4_INS_4pairIKS6_S7_EEEEEC1B8ue170006Ev, symObjAddr: 0x1038, symBinAddr: 0x100012EBC, symSize: 0x2C }
  - { offsetInCU: 0xD42E, offset: 0x4EAA2, size: 0x8, addend: 0x0, symName: __ZNSt3__13mapINS_4pairINS_12basic_stringIcNS_11char_traitsIcEENS_9allocatorIcEEEES7_EEiNS_4lessIS8_EENS5_INS1_IKS8_iEEEEEC1B8ue170006Ev, symObjAddr: 0x1064, symBinAddr: 0x100012EE8, symSize: 0x2C }
  - { offsetInCU: 0xD458, offset: 0x4EACC, size: 0x8, addend: 0x0, symName: __ZNSt3__13mapINS_12basic_stringIcNS_11char_traitsIcEENS_9allocatorIcEEEE9ECAirportNS_4lessIS6_EENS4_INS_4pairIKS6_S7_EEEEEaSB8ue170006ERKSE_, symObjAddr: 0x1090, symBinAddr: 0x100012F14, symSize: 0x94 }
  - { offsetInCU: 0xD48D, offset: 0x4EB01, size: 0x8, addend: 0x0, symName: __ZNSt3__13mapINS_12basic_stringIcNS_11char_traitsIcEENS_9allocatorIcEEEE9ECAirportNS_4lessIS6_EENS4_INS_4pairIKS6_S7_EEEEED1B8ue170006Ev, symObjAddr: 0x1124, symBinAddr: 0x100012FA8, symSize: 0x2C }
  - { offsetInCU: 0xD4B7, offset: 0x4EB2B, size: 0x8, addend: 0x0, symName: __ZNSt3__13mapINS_4pairINS_12basic_stringIcNS_11char_traitsIcEENS_9allocatorIcEEEES7_EEiNS_4lessIS8_EENS5_INS1_IKS8_iEEEEED1B8ue170006Ev, symObjAddr: 0x1150, symBinAddr: 0x100012FD4, symSize: 0x2C }
  - { offsetInCU: 0xD4E1, offset: 0x4EB55, size: 0x8, addend: 0x0, symName: __ZNSt3__13mapINS_12basic_stringIcNS_11char_traitsIcEENS_9allocatorIcEEEE9ECAirportNS_4lessIS6_EENS4_INS_4pairIKS6_S7_EEEEEC2B8ue170006Ev, symObjAddr: 0x117C, symBinAddr: 0x100013000, symSize: 0x40 }
  - { offsetInCU: 0xD50B, offset: 0x4EB7F, size: 0x8, addend: 0x0, symName: __ZNSt3__119__map_value_compareINS_12basic_stringIcNS_11char_traitsIcEENS_9allocatorIcEEEENS_12__value_typeIS6_9ECAirportEENS_4lessIS6_EELb1EEC1B8ue170006ESB_, symObjAddr: 0x11BC, symBinAddr: 0x100013040, symSize: 0x2C }
  - { offsetInCU: 0xD544, offset: 0x4EBB8, size: 0x8, addend: 0x0, symName: __ZNSt3__16__treeINS_12__value_typeINS_12basic_stringIcNS_11char_traitsIcEENS_9allocatorIcEEEE9ECAirportEENS_19__map_value_compareIS7_S9_NS_4lessIS7_EELb1EEENS5_IS9_EEEC1ERKSD_, symObjAddr: 0x11E8, symBinAddr: 0x10001306C, symSize: 0x34 }
  - { offsetInCU: 0xD57F, offset: 0x4EBF3, size: 0x8, addend: 0x0, symName: __ZNSt3__119__map_value_compareINS_12basic_stringIcNS_11char_traitsIcEENS_9allocatorIcEEEENS_12__value_typeIS6_9ECAirportEENS_4lessIS6_EELb1EEC2B8ue170006ESB_, symObjAddr: 0x121C, symBinAddr: 0x1000130A0, symSize: 0x14 }
  - { offsetInCU: 0xD5B8, offset: 0x4EC2C, size: 0x8, addend: 0x0, symName: __ZNSt3__16__treeINS_12__value_typeINS_12basic_stringIcNS_11char_traitsIcEENS_9allocatorIcEEEE9ECAirportEENS_19__map_value_compareIS7_S9_NS_4lessIS7_EELb1EEENS5_IS9_EEEC2ERKSD_, symObjAddr: 0x1230, symBinAddr: 0x1000130B4, symSize: 0x70 }
  - { offsetInCU: 0xD5F3, offset: 0x4EC67, size: 0x8, addend: 0x0, symName: __ZNSt3__117__compressed_pairINS_15__tree_end_nodeIPNS_16__tree_node_baseIPvEEEENS_9allocatorINS_11__tree_nodeINS_12__value_typeINS_12basic_stringIcNS_11char_traitsIcEENS7_IcEEEE9ECAirportEES3_EEEEEC1B8ue170006ILb1EvEEv, symObjAddr: 0x12A0, symBinAddr: 0x100013124, symSize: 0x2C }
  - { offsetInCU: 0xD62D, offset: 0x4ECA1, size: 0x8, addend: 0x0, symName: __ZNSt3__117__compressed_pairImNS_19__map_value_compareINS_12basic_stringIcNS_11char_traitsIcEENS_9allocatorIcEEEENS_12__value_typeIS7_9ECAirportEENS_4lessIS7_EELb1EEEEC1B8ue170006IiRKSD_EEOT_OT0_, symObjAddr: 0x12CC, symBinAddr: 0x100013150, symSize: 0x3C }
  - { offsetInCU: 0xD685, offset: 0x4ECF9, size: 0x8, addend: 0x0, symName: __ZNSt3__16__treeINS_12__value_typeINS_12basic_stringIcNS_11char_traitsIcEENS_9allocatorIcEEEE9ECAirportEENS_19__map_value_compareIS7_S9_NS_4lessIS7_EELb1EEENS5_IS9_EEE10__end_nodeB8ue170006Ev, symObjAddr: 0x1308, symBinAddr: 0x10001318C, symSize: 0x2C }
  - { offsetInCU: 0xD6AB, offset: 0x4ED1F, size: 0x8, addend: 0x0, symName: __ZNSt3__16__treeINS_12__value_typeINS_12basic_stringIcNS_11char_traitsIcEENS_9allocatorIcEEEE9ECAirportEENS_19__map_value_compareIS7_S9_NS_4lessIS7_EELb1EEENS5_IS9_EEE12__begin_nodeB8ue170006Ev, symObjAddr: 0x1334, symBinAddr: 0x1000131B8, symSize: 0x14 }
  - { offsetInCU: 0xD6D1, offset: 0x4ED45, size: 0x8, addend: 0x0, symName: __ZNSt3__117__compressed_pairINS_15__tree_end_nodeIPNS_16__tree_node_baseIPvEEEENS_9allocatorINS_11__tree_nodeINS_12__value_typeINS_12basic_stringIcNS_11char_traitsIcEENS7_IcEEEE9ECAirportEES3_EEEEEC2B8ue170006ILb1EvEEv, symObjAddr: 0x1348, symBinAddr: 0x1000131CC, symSize: 0x34 }
  - { offsetInCU: 0xD706, offset: 0x4ED7A, size: 0x8, addend: 0x0, symName: __ZNSt3__122__compressed_pair_elemINS_9allocatorINS_11__tree_nodeINS_12__value_typeINS_12basic_stringIcNS_11char_traitsIcEENS1_IcEEEE9ECAirportEEPvEEEELi1ELb1EEC2B8ue170006ENS_16__value_init_tagE, symObjAddr: 0x13A8, symBinAddr: 0x100013200, symSize: 0x2C }
  - { offsetInCU: 0xD73B, offset: 0x4EDAF, size: 0x8, addend: 0x0, symName: __ZNSt3__19allocatorINS_11__tree_nodeINS_12__value_typeINS_12basic_stringIcNS_11char_traitsIcEENS0_IcEEEE9ECAirportEEPvEEEC2B8ue170006Ev, symObjAddr: 0x1418, symBinAddr: 0x10001322C, symSize: 0x2C }
  - { offsetInCU: 0xD765, offset: 0x4EDD9, size: 0x8, addend: 0x0, symName: __ZNSt3__116__non_trivial_ifILb1ENS_9allocatorINS_11__tree_nodeINS_12__value_typeINS_12basic_stringIcNS_11char_traitsIcEENS1_IcEEEE9ECAirportEEPvEEEEEC2B8ue170006Ev, symObjAddr: 0x1444, symBinAddr: 0x100013258, symSize: 0x14 }
  - { offsetInCU: 0xD78F, offset: 0x4EE03, size: 0x8, addend: 0x0, symName: __ZNSt3__117__compressed_pairImNS_19__map_value_compareINS_12basic_stringIcNS_11char_traitsIcEENS_9allocatorIcEEEENS_12__value_typeIS7_9ECAirportEENS_4lessIS7_EELb1EEEEC2B8ue170006IiRKSD_EEOT_OT0_, symObjAddr: 0x1458, symBinAddr: 0x10001326C, symSize: 0x44 }
  - { offsetInCU: 0xD7E7, offset: 0x4EE5B, size: 0x8, addend: 0x0, symName: __ZNSt3__122__compressed_pair_elemINS_19__map_value_compareINS_12basic_stringIcNS_11char_traitsIcEENS_9allocatorIcEEEENS_12__value_typeIS7_9ECAirportEENS_4lessIS7_EELb1EEELi1ELb1EEC2B8ue170006IRKSD_vEEOT_, symObjAddr: 0x14C0, symBinAddr: 0x1000132B0, symSize: 0x18 }
  - { offsetInCU: 0xD829, offset: 0x4EE9D, size: 0x8, addend: 0x0, symName: __ZNSt3__117__compressed_pairINS_15__tree_end_nodeIPNS_16__tree_node_baseIPvEEEENS_9allocatorINS_11__tree_nodeINS_12__value_typeINS_12basic_stringIcNS_11char_traitsIcEENS7_IcEEEE9ECAirportEES3_EEEEE5firstB8ue170006Ev, symObjAddr: 0x14EC, symBinAddr: 0x1000132C8, symSize: 0x24 }
  - { offsetInCU: 0xD84F, offset: 0x4EEC3, size: 0x8, addend: 0x0, symName: __ZNSt3__13mapINS_4pairINS_12basic_stringIcNS_11char_traitsIcEENS_9allocatorIcEEEES7_EEiNS_4lessIS8_EENS5_INS1_IKS8_iEEEEEC2B8ue170006Ev, symObjAddr: 0x1524, symBinAddr: 0x1000132EC, symSize: 0x40 }
  - { offsetInCU: 0xD879, offset: 0x4EEED, size: 0x8, addend: 0x0, symName: __ZNSt3__119__map_value_compareINS_4pairINS_12basic_stringIcNS_11char_traitsIcEENS_9allocatorIcEEEES7_EENS_12__value_typeIS8_iEENS_4lessIS8_EELb1EEC1B8ue170006ESC_, symObjAddr: 0x1564, symBinAddr: 0x10001332C, symSize: 0x2C }
  - { offsetInCU: 0xD8B2, offset: 0x4EF26, size: 0x8, addend: 0x0, symName: __ZNSt3__16__treeINS_12__value_typeINS_4pairINS_12basic_stringIcNS_11char_traitsIcEENS_9allocatorIcEEEES8_EEiEENS_19__map_value_compareIS9_SA_NS_4lessIS9_EELb1EEENS6_ISA_EEEC1ERKSE_, symObjAddr: 0x1590, symBinAddr: 0x100013358, symSize: 0x34 }
  - { offsetInCU: 0xD8ED, offset: 0x4EF61, size: 0x8, addend: 0x0, symName: __ZNSt3__119__map_value_compareINS_4pairINS_12basic_stringIcNS_11char_traitsIcEENS_9allocatorIcEEEES7_EENS_12__value_typeIS8_iEENS_4lessIS8_EELb1EEC2B8ue170006ESC_, symObjAddr: 0x15C4, symBinAddr: 0x10001338C, symSize: 0x14 }
  - { offsetInCU: 0xD926, offset: 0x4EF9A, size: 0x8, addend: 0x0, symName: __ZNSt3__16__treeINS_12__value_typeINS_4pairINS_12basic_stringIcNS_11char_traitsIcEENS_9allocatorIcEEEES8_EEiEENS_19__map_value_compareIS9_SA_NS_4lessIS9_EELb1EEENS6_ISA_EEEC2ERKSE_, symObjAddr: 0x15D8, symBinAddr: 0x1000133A0, symSize: 0x70 }
  - { offsetInCU: 0xD961, offset: 0x4EFD5, size: 0x8, addend: 0x0, symName: __ZNSt3__117__compressed_pairINS_15__tree_end_nodeIPNS_16__tree_node_baseIPvEEEENS_9allocatorINS_11__tree_nodeINS_12__value_typeINS_4pairINS_12basic_stringIcNS_11char_traitsIcEENS7_IcEEEESF_EEiEES3_EEEEEC1B8ue170006ILb1EvEEv, symObjAddr: 0x1648, symBinAddr: 0x100013410, symSize: 0x2C }
  - { offsetInCU: 0xD996, offset: 0x4F00A, size: 0x8, addend: 0x0, symName: __ZNSt3__117__compressed_pairImNS_19__map_value_compareINS_4pairINS_12basic_stringIcNS_11char_traitsIcEENS_9allocatorIcEEEES8_EENS_12__value_typeIS9_iEENS_4lessIS9_EELb1EEEEC1B8ue170006IiRKSE_EEOT_OT0_, symObjAddr: 0x1674, symBinAddr: 0x10001343C, symSize: 0x3C }
  - { offsetInCU: 0xD9EE, offset: 0x4F062, size: 0x8, addend: 0x0, symName: __ZNSt3__16__treeINS_12__value_typeINS_4pairINS_12basic_stringIcNS_11char_traitsIcEENS_9allocatorIcEEEES8_EEiEENS_19__map_value_compareIS9_SA_NS_4lessIS9_EELb1EEENS6_ISA_EEE10__end_nodeB8ue170006Ev, symObjAddr: 0x16B0, symBinAddr: 0x100013478, symSize: 0x2C }
  - { offsetInCU: 0xDA14, offset: 0x4F088, size: 0x8, addend: 0x0, symName: __ZNSt3__16__treeINS_12__value_typeINS_4pairINS_12basic_stringIcNS_11char_traitsIcEENS_9allocatorIcEEEES8_EEiEENS_19__map_value_compareIS9_SA_NS_4lessIS9_EELb1EEENS6_ISA_EEE12__begin_nodeB8ue170006Ev, symObjAddr: 0x16DC, symBinAddr: 0x1000134A4, symSize: 0x14 }
  - { offsetInCU: 0xDA3A, offset: 0x4F0AE, size: 0x8, addend: 0x0, symName: __ZNSt3__117__compressed_pairINS_15__tree_end_nodeIPNS_16__tree_node_baseIPvEEEENS_9allocatorINS_11__tree_nodeINS_12__value_typeINS_4pairINS_12basic_stringIcNS_11char_traitsIcEENS7_IcEEEESF_EEiEES3_EEEEEC2B8ue170006ILb1EvEEv, symObjAddr: 0x16F0, symBinAddr: 0x1000134B8, symSize: 0x34 }
  - { offsetInCU: 0xDA6F, offset: 0x4F0E3, size: 0x8, addend: 0x0, symName: __ZNSt3__122__compressed_pair_elemINS_9allocatorINS_11__tree_nodeINS_12__value_typeINS_4pairINS_12basic_stringIcNS_11char_traitsIcEENS1_IcEEEES9_EEiEEPvEEEELi1ELb1EEC2B8ue170006ENS_16__value_init_tagE, symObjAddr: 0x1724, symBinAddr: 0x1000134EC, symSize: 0x2C }
  - { offsetInCU: 0xDAA4, offset: 0x4F118, size: 0x8, addend: 0x0, symName: __ZNSt3__19allocatorINS_11__tree_nodeINS_12__value_typeINS_4pairINS_12basic_stringIcNS_11char_traitsIcEENS0_IcEEEES8_EEiEEPvEEEC2B8ue170006Ev, symObjAddr: 0x1750, symBinAddr: 0x100013518, symSize: 0x2C }
  - { offsetInCU: 0xDACE, offset: 0x4F142, size: 0x8, addend: 0x0, symName: __ZNSt3__116__non_trivial_ifILb1ENS_9allocatorINS_11__tree_nodeINS_12__value_typeINS_4pairINS_12basic_stringIcNS_11char_traitsIcEENS1_IcEEEES9_EEiEEPvEEEEEC2B8ue170006Ev, symObjAddr: 0x177C, symBinAddr: 0x100013544, symSize: 0x14 }
  - { offsetInCU: 0xDAF8, offset: 0x4F16C, size: 0x8, addend: 0x0, symName: __ZNSt3__117__compressed_pairImNS_19__map_value_compareINS_4pairINS_12basic_stringIcNS_11char_traitsIcEENS_9allocatorIcEEEES8_EENS_12__value_typeIS9_iEENS_4lessIS9_EELb1EEEEC2B8ue170006IiRKSE_EEOT_OT0_, symObjAddr: 0x1790, symBinAddr: 0x100013558, symSize: 0x44 }
  - { offsetInCU: 0xDB50, offset: 0x4F1C4, size: 0x8, addend: 0x0, symName: __ZNSt3__122__compressed_pair_elemINS_19__map_value_compareINS_4pairINS_12basic_stringIcNS_11char_traitsIcEENS_9allocatorIcEEEES8_EENS_12__value_typeIS9_iEENS_4lessIS9_EELb1EEELi1ELb1EEC2B8ue170006IRKSE_vEEOT_, symObjAddr: 0x17D4, symBinAddr: 0x10001359C, symSize: 0x18 }
  - { offsetInCU: 0xDB92, offset: 0x4F206, size: 0x8, addend: 0x0, symName: __ZNSt3__117__compressed_pairINS_15__tree_end_nodeIPNS_16__tree_node_baseIPvEEEENS_9allocatorINS_11__tree_nodeINS_12__value_typeINS_4pairINS_12basic_stringIcNS_11char_traitsIcEENS7_IcEEEESF_EEiEES3_EEEEE5firstB8ue170006Ev, symObjAddr: 0x17EC, symBinAddr: 0x1000135B4, symSize: 0x24 }
  - { offsetInCU: 0xDBB7, offset: 0x4F22B, size: 0x8, addend: 0x0, symName: __ZNSt3__16__treeINS_12__value_typeINS_12basic_stringIcNS_11char_traitsIcEENS_9allocatorIcEEEE9ECAirportEENS_19__map_value_compareIS7_S9_NS_4lessIS7_EELb1EEENS5_IS9_EEE5clearEv, symObjAddr: 0x1810, symBinAddr: 0x1000135D8, symSize: 0x74 }
  - { offsetInCU: 0xDBDF, offset: 0x4F253, size: 0x8, addend: 0x0, symName: __ZNKSt3__16__treeINS_12__value_typeINS_12basic_stringIcNS_11char_traitsIcEENS_9allocatorIcEEEE9ECAirportEENS_19__map_value_compareIS7_S9_NS_4lessIS7_EELb1EEENS5_IS9_EEE10value_compB8ue170006Ev, symObjAddr: 0x1884, symBinAddr: 0x10001364C, symSize: 0x28 }
  - { offsetInCU: 0xDC05, offset: 0x4F279, size: 0x8, addend: 0x0, symName: __ZNSt3__16__treeINS_12__value_typeINS_12basic_stringIcNS_11char_traitsIcEENS_9allocatorIcEEEE9ECAirportEENS_19__map_value_compareIS7_S9_NS_4lessIS7_EELb1EEENS5_IS9_EEE10value_compB8ue170006Ev, symObjAddr: 0x18AC, symBinAddr: 0x100013674, symSize: 0x28 }
  - { offsetInCU: 0xDC2B, offset: 0x4F29F, size: 0x8, addend: 0x0, symName: __ZNSt3__16__treeINS_12__value_typeINS_12basic_stringIcNS_11char_traitsIcEENS_9allocatorIcEEEE9ECAirportEENS_19__map_value_compareIS7_S9_NS_4lessIS7_EELb1EEENS5_IS9_EEE19__copy_assign_allocB8ue170006ERKSF_, symObjAddr: 0x18D4, symBinAddr: 0x10001369C, symSize: 0x2C }
  - { offsetInCU: 0xDC60, offset: 0x4F2D4, size: 0x8, addend: 0x0, symName: __ZNSt3__13mapINS_12basic_stringIcNS_11char_traitsIcEENS_9allocatorIcEEEE9ECAirportNS_4lessIS6_EENS4_INS_4pairIKS6_S7_EEEEE6insertB8ue170006INS_20__map_const_iteratorINS_21__tree_const_iteratorINS_12__value_typeIS6_S7_EEPNS_11__tree_nodeISJ_PvEElEEEEEEvT_SQ_, symObjAddr: 0x1900, symBinAddr: 0x1000136C8, symSize: 0x8C }
  - { offsetInCU: 0xDCCA, offset: 0x4F33E, size: 0x8, addend: 0x0, symName: __ZNSt3__16__treeINS_12__value_typeINS_12basic_stringIcNS_11char_traitsIcEENS_9allocatorIcEEEE9ECAirportEENS_19__map_value_compareIS7_S9_NS_4lessIS7_EELb1EEENS5_IS9_EEE7destroyEPNS_11__tree_nodeIS9_PvEE, symObjAddr: 0x198C, symBinAddr: 0x100013754, symSize: 0xC0 }
  - { offsetInCU: 0xDD1F, offset: 0x4F393, size: 0x8, addend: 0x0, symName: __ZNKSt3__16__treeINS_12__value_typeINS_12basic_stringIcNS_11char_traitsIcEENS_9allocatorIcEEEE9ECAirportEENS_19__map_value_compareIS7_S9_NS_4lessIS7_EELb1EEENS5_IS9_EEE6__rootB8ue170006Ev, symObjAddr: 0x1A4C, symBinAddr: 0x100013814, symSize: 0x28 }
  - { offsetInCU: 0xDD45, offset: 0x4F3B9, size: 0x8, addend: 0x0, symName: __ZNSt3__16__treeINS_12__value_typeINS_12basic_stringIcNS_11char_traitsIcEENS_9allocatorIcEEEE9ECAirportEENS_19__map_value_compareIS7_S9_NS_4lessIS7_EELb1EEENS5_IS9_EEE4sizeB8ue170006Ev, symObjAddr: 0x1A74, symBinAddr: 0x10001383C, symSize: 0x28 }
  - { offsetInCU: 0xDD6B, offset: 0x4F3DF, size: 0x8, addend: 0x0, symName: __ZNSt3__16__treeINS_12__value_typeINS_12basic_stringIcNS_11char_traitsIcEENS_9allocatorIcEEEE9ECAirportEENS_19__map_value_compareIS7_S9_NS_4lessIS7_EELb1EEENS5_IS9_EEE12__node_allocB8ue170006Ev, symObjAddr: 0x1A9C, symBinAddr: 0x100013864, symSize: 0x28 }
  - { offsetInCU: 0xDD91, offset: 0x4F405, size: 0x8, addend: 0x0, symName: __ZNSt3__116allocator_traitsINS_9allocatorINS_11__tree_nodeINS_12__value_typeINS_12basic_stringIcNS_11char_traitsIcEENS1_IcEEEE9ECAirportEEPvEEEEE7destroyB8ue170006INS_4pairIKS8_S9_EEvvEEvRSD_PT_, symObjAddr: 0x1AC4, symBinAddr: 0x10001388C, symSize: 0x28 }
  - { offsetInCU: 0xDDCB, offset: 0x4F43F, size: 0x8, addend: 0x0, symName: __ZNSt3__122__tree_key_value_typesINS_12__value_typeINS_12basic_stringIcNS_11char_traitsIcEENS_9allocatorIcEEEE9ECAirportEEE9__get_ptrB8ue170006ERS9_, symObjAddr: 0x1AEC, symBinAddr: 0x1000138B4, symSize: 0x24 }
  - { offsetInCU: 0xDDEF, offset: 0x4F463, size: 0x8, addend: 0x0, symName: __ZNSt3__116allocator_traitsINS_9allocatorINS_11__tree_nodeINS_12__value_typeINS_12basic_stringIcNS_11char_traitsIcEENS1_IcEEEE9ECAirportEEPvEEEEE10deallocateB8ue170006ERSD_PSC_m, symObjAddr: 0x1B10, symBinAddr: 0x1000138D8, symSize: 0x34 }
  - { offsetInCU: 0xDE31, offset: 0x4F4A5, size: 0x8, addend: 0x0, symName: __ZNSt3__117__compressed_pairINS_15__tree_end_nodeIPNS_16__tree_node_baseIPvEEEENS_9allocatorINS_11__tree_nodeINS_12__value_typeINS_12basic_stringIcNS_11char_traitsIcEENS7_IcEEEE9ECAirportEES3_EEEEE6secondB8ue170006Ev, symObjAddr: 0x1B44, symBinAddr: 0x10001390C, symSize: 0x24 }
  - { offsetInCU: 0xDE57, offset: 0x4F4CB, size: 0x8, addend: 0x0, symName: __ZNSt3__122__compressed_pair_elemINS_9allocatorINS_11__tree_nodeINS_12__value_typeINS_12basic_stringIcNS_11char_traitsIcEENS1_IcEEEE9ECAirportEEPvEEEELi1ELb1EE5__getB8ue170006Ev, symObjAddr: 0x1B68, symBinAddr: 0x100013930, symSize: 0x14 }
  - { offsetInCU: 0xDE7D, offset: 0x4F4F1, size: 0x8, addend: 0x0, symName: __ZNSt3__14pairIKNS_12basic_stringIcNS_11char_traitsIcEENS_9allocatorIcEEEE9ECAirportED1Ev, symObjAddr: 0x1B7C, symBinAddr: 0x100013944, symSize: 0x2C }
  - { offsetInCU: 0xDEA9, offset: 0x4F51D, size: 0x8, addend: 0x0, symName: __ZNSt3__14pairIKNS_12basic_stringIcNS_11char_traitsIcEENS_9allocatorIcEEEE9ECAirportED2Ev, symObjAddr: 0x1BA8, symBinAddr: 0x100013970, symSize: 0x68 }
  - { offsetInCU: 0xDED5, offset: 0x4F549, size: 0x8, addend: 0x0, symName: __ZNSt3__112__value_typeINS_12basic_stringIcNS_11char_traitsIcEENS_9allocatorIcEEEE9ECAirportE11__get_valueB8ue170006Ev, symObjAddr: 0x1C10, symBinAddr: 0x1000139D8, symSize: 0x14 }
  - { offsetInCU: 0xDEFB, offset: 0x4F56F, size: 0x8, addend: 0x0, symName: __ZNSt3__19allocatorINS_11__tree_nodeINS_12__value_typeINS_12basic_stringIcNS_11char_traitsIcEENS0_IcEEEE9ECAirportEEPvEEE10deallocateB8ue170006EPSB_m, symObjAddr: 0x1C24, symBinAddr: 0x1000139EC, symSize: 0x74 }
  - { offsetInCU: 0xDF3D, offset: 0x4F5B1, size: 0x8, addend: 0x0, symName: __ZNKSt3__16__treeINS_12__value_typeINS_12basic_stringIcNS_11char_traitsIcEENS_9allocatorIcEEEE9ECAirportEENS_19__map_value_compareIS7_S9_NS_4lessIS7_EELb1EEENS5_IS9_EEE10__end_nodeB8ue170006Ev, symObjAddr: 0x1D20, symBinAddr: 0x100013A60, symSize: 0x2C }
  - { offsetInCU: 0xDF63, offset: 0x4F5D7, size: 0x8, addend: 0x0, symName: __ZNKSt3__117__compressed_pairINS_15__tree_end_nodeIPNS_16__tree_node_baseIPvEEEENS_9allocatorINS_11__tree_nodeINS_12__value_typeINS_12basic_stringIcNS_11char_traitsIcEENS7_IcEEEE9ECAirportEES3_EEEEE5firstB8ue170006Ev, symObjAddr: 0x1D4C, symBinAddr: 0x100013A8C, symSize: 0x24 }
  - { offsetInCU: 0xDF89, offset: 0x4F5FD, size: 0x8, addend: 0x0, symName: __ZNSt3__117__compressed_pairImNS_19__map_value_compareINS_12basic_stringIcNS_11char_traitsIcEENS_9allocatorIcEEEENS_12__value_typeIS7_9ECAirportEENS_4lessIS7_EELb1EEEE5firstB8ue170006Ev, symObjAddr: 0x1D84, symBinAddr: 0x100013AB0, symSize: 0x24 }
  - { offsetInCU: 0xDFAF, offset: 0x4F623, size: 0x8, addend: 0x0, symName: __ZNKSt3__117__compressed_pairImNS_19__map_value_compareINS_12basic_stringIcNS_11char_traitsIcEENS_9allocatorIcEEEENS_12__value_typeIS7_9ECAirportEENS_4lessIS7_EELb1EEEE6secondB8ue170006Ev, symObjAddr: 0x1DBC, symBinAddr: 0x100013AD4, symSize: 0x24 }
  - { offsetInCU: 0xDFD5, offset: 0x4F649, size: 0x8, addend: 0x0, symName: __ZNKSt3__122__compressed_pair_elemINS_19__map_value_compareINS_12basic_stringIcNS_11char_traitsIcEENS_9allocatorIcEEEENS_12__value_typeIS7_9ECAirportEENS_4lessIS7_EELb1EEELi1ELb1EE5__getB8ue170006Ev, symObjAddr: 0x1DE0, symBinAddr: 0x100013AF8, symSize: 0x14 }
  - { offsetInCU: 0xDFFB, offset: 0x4F66F, size: 0x8, addend: 0x0, symName: __ZNSt3__117__compressed_pairImNS_19__map_value_compareINS_12basic_stringIcNS_11char_traitsIcEENS_9allocatorIcEEEENS_12__value_typeIS7_9ECAirportEENS_4lessIS7_EELb1EEEE6secondB8ue170006Ev, symObjAddr: 0x1DF4, symBinAddr: 0x100013B0C, symSize: 0x24 }
  - { offsetInCU: 0xE021, offset: 0x4F695, size: 0x8, addend: 0x0, symName: __ZNSt3__122__compressed_pair_elemINS_19__map_value_compareINS_12basic_stringIcNS_11char_traitsIcEENS_9allocatorIcEEEENS_12__value_typeIS7_9ECAirportEENS_4lessIS7_EELb1EEELi1ELb1EE5__getB8ue170006Ev, symObjAddr: 0x1E18, symBinAddr: 0x100013B30, symSize: 0x14 }
  - { offsetInCU: 0xE047, offset: 0x4F6BB, size: 0x8, addend: 0x0, symName: __ZNSt3__16__treeINS_12__value_typeINS_12basic_stringIcNS_11char_traitsIcEENS_9allocatorIcEEEE9ECAirportEENS_19__map_value_compareIS7_S9_NS_4lessIS7_EELb1EEENS5_IS9_EEE19__copy_assign_allocB8ue170006ERKSF_NS_17integral_constantIbLb0EEE, symObjAddr: 0x1E2C, symBinAddr: 0x100013B44, symSize: 0x14 }
  - { offsetInCU: 0xE083, offset: 0x4F6F7, size: 0x8, addend: 0x0, symName: __ZNKSt3__13mapINS_12basic_stringIcNS_11char_traitsIcEENS_9allocatorIcEEEE9ECAirportNS_4lessIS6_EENS4_INS_4pairIKS6_S7_EEEEE4cendB8ue170006Ev, symObjAddr: 0x1E40, symBinAddr: 0x100013B58, symSize: 0x2C }
  - { offsetInCU: 0xE0A9, offset: 0x4F71D, size: 0x8, addend: 0x0, symName: __ZNSt3__13mapINS_12basic_stringIcNS_11char_traitsIcEENS_9allocatorIcEEEE9ECAirportNS_4lessIS6_EENS4_INS_4pairIKS6_S7_EEEEE6insertB8ue170006ENS_20__map_const_iteratorINS_21__tree_const_iteratorINS_12__value_typeIS6_S7_EEPNS_11__tree_nodeISI_PvEElEEEERKSC_, symObjAddr: 0x1E6C, symBinAddr: 0x100013B84, symSize: 0x50 }
  - { offsetInCU: 0xE0ED, offset: 0x4F761, size: 0x8, addend: 0x0, symName: __ZNSt3__120__map_const_iteratorINS_21__tree_const_iteratorINS_12__value_typeINS_12basic_stringIcNS_11char_traitsIcEENS_9allocatorIcEEEE9ECAirportEEPNS_11__tree_nodeISA_PvEElEEEC1B8ue170006ESF_, symObjAddr: 0x1EBC, symBinAddr: 0x100013BD4, symSize: 0x34 }
  - { offsetInCU: 0xE126, offset: 0x4F79A, size: 0x8, addend: 0x0, symName: __ZNKSt3__120__map_const_iteratorINS_21__tree_const_iteratorINS_12__value_typeINS_12basic_stringIcNS_11char_traitsIcEENS_9allocatorIcEEEE9ECAirportEEPNS_11__tree_nodeISA_PvEElEEEdeB8ue170006Ev, symObjAddr: 0x1EF0, symBinAddr: 0x100013C08, symSize: 0x28 }
  - { offsetInCU: 0xE14C, offset: 0x4F7C0, size: 0x8, addend: 0x0, symName: __ZNSt3__120__map_const_iteratorINS_21__tree_const_iteratorINS_12__value_typeINS_12basic_stringIcNS_11char_traitsIcEENS_9allocatorIcEEEE9ECAirportEEPNS_11__tree_nodeISA_PvEElEEEppB8ue170006Ev, symObjAddr: 0x1F18, symBinAddr: 0x100013C30, symSize: 0x2C }
  - { offsetInCU: 0xE172, offset: 0x4F7E6, size: 0x8, addend: 0x0, symName: __ZNSt3__16__treeINS_12__value_typeINS_12basic_stringIcNS_11char_traitsIcEENS_9allocatorIcEEEE9ECAirportEENS_19__map_value_compareIS7_S9_NS_4lessIS7_EELb1EEENS5_IS9_EEE15__insert_uniqueB8ue170006ENS_21__tree_const_iteratorIS9_PNS_11__tree_nodeIS9_PvEElEERKNS_4pairIKS7_S8_EE, symObjAddr: 0x1F44, symBinAddr: 0x100013C5C, symSize: 0x64 }
  - { offsetInCU: 0xE1B6, offset: 0x4F82A, size: 0x8, addend: 0x0, symName: __ZNSt3__114__map_iteratorINS_15__tree_iteratorINS_12__value_typeINS_12basic_stringIcNS_11char_traitsIcEENS_9allocatorIcEEEE9ECAirportEEPNS_11__tree_nodeISA_PvEElEEEC1B8ue170006ESF_, symObjAddr: 0x1FA8, symBinAddr: 0x100013CC0, symSize: 0x34 }
  - { offsetInCU: 0xE1EE, offset: 0x4F862, size: 0x8, addend: 0x0, symName: __ZNSt3__16__treeINS_12__value_typeINS_12basic_stringIcNS_11char_traitsIcEENS_9allocatorIcEEEE9ECAirportEENS_19__map_value_compareIS7_S9_NS_4lessIS7_EELb1EEENS5_IS9_EEE30__emplace_hint_unique_key_argsIS7_JRKNS_4pairIKS7_S8_EEEEENSH_INS_15__tree_iteratorIS9_PNS_11__tree_nodeIS9_PvEElEEbEENS_21__tree_const_iteratorIS9_SQ_lEERKT_DpOT0_, symObjAddr: 0x1FDC, symBinAddr: 0x100013CF4, symSize: 0x104 }
  - { offsetInCU: 0xE2BA, offset: 0x4F92E, size: 0x8, addend: 0x0, symName: __ZNSt3__122__tree_key_value_typesINS_12__value_typeINS_12basic_stringIcNS_11char_traitsIcEENS_9allocatorIcEEEE9ECAirportEEE9__get_keyB8ue170006IKNS_4pairIKS7_S8_EEEENS_9enable_ifIXsr17__is_same_uncvrefIT_SE_EE5valueERSD_E4typeERSH_, symObjAddr: 0x20E0, symBinAddr: 0x100013DF8, symSize: 0x14 }
  - { offsetInCU: 0xE2E6, offset: 0x4F95A, size: 0x8, addend: 0x0, symName: __ZNSt3__16__treeINS_12__value_typeINS_12basic_stringIcNS_11char_traitsIcEENS_9allocatorIcEEEE9ECAirportEENS_19__map_value_compareIS7_S9_NS_4lessIS7_EELb1EEENS5_IS9_EEE12__find_equalIS7_EERPNS_16__tree_node_baseIPvEENS_21__tree_const_iteratorIS9_PNS_11__tree_nodeIS9_SI_EElEERPNS_15__tree_end_nodeISK_EESL_RKT_, symObjAddr: 0x20F4, symBinAddr: 0x100013E0C, symSize: 0x304 }
  - { offsetInCU: 0xE390, offset: 0x4FA04, size: 0x8, addend: 0x0, symName: __ZNSt3__16__treeINS_12__value_typeINS_12basic_stringIcNS_11char_traitsIcEENS_9allocatorIcEEEE9ECAirportEENS_19__map_value_compareIS7_S9_NS_4lessIS7_EELb1EEENS5_IS9_EEE16__construct_nodeIJRKNS_4pairIKS7_S8_EEEEENS_10unique_ptrINS_11__tree_nodeIS9_PvEENS_22__tree_node_destructorINS5_ISP_EEEEEEDpOT_, symObjAddr: 0x23F8, symBinAddr: 0x100014110, symSize: 0x118 }
  - { offsetInCU: 0xE3F0, offset: 0x4FA64, size: 0x8, addend: 0x0, symName: __ZNSt3__16__treeINS_12__value_typeINS_12basic_stringIcNS_11char_traitsIcEENS_9allocatorIcEEEE9ECAirportEENS_19__map_value_compareIS7_S9_NS_4lessIS7_EELb1EEENS5_IS9_EEE16__insert_node_atEPNS_15__tree_end_nodeIPNS_16__tree_node_baseIPvEEEERSK_SK_, symObjAddr: 0x2510, symBinAddr: 0x100014228, symSize: 0xCC }
  - { offsetInCU: 0xE445, offset: 0x4FAB9, size: 0x8, addend: 0x0, symName: __ZNKSt3__110unique_ptrINS_11__tree_nodeINS_12__value_typeINS_12basic_stringIcNS_11char_traitsIcEENS_9allocatorIcEEEE9ECAirportEEPvEENS_22__tree_node_destructorINS6_ISC_EEEEE3getB8ue170006Ev, symObjAddr: 0x25DC, symBinAddr: 0x1000142F4, symSize: 0x28 }
  - { offsetInCU: 0xE46B, offset: 0x4FADF, size: 0x8, addend: 0x0, symName: __ZNSt3__110unique_ptrINS_11__tree_nodeINS_12__value_typeINS_12basic_stringIcNS_11char_traitsIcEENS_9allocatorIcEEEE9ECAirportEEPvEENS_22__tree_node_destructorINS6_ISC_EEEEE7releaseB8ue170006Ev, symObjAddr: 0x2604, symBinAddr: 0x10001431C, symSize: 0x44 }
  - { offsetInCU: 0xE4A0, offset: 0x4FB14, size: 0x8, addend: 0x0, symName: __ZNSt3__110unique_ptrINS_11__tree_nodeINS_12__value_typeINS_12basic_stringIcNS_11char_traitsIcEENS_9allocatorIcEEEE9ECAirportEEPvEENS_22__tree_node_destructorINS6_ISC_EEEEED1B8ue170006Ev, symObjAddr: 0x2648, symBinAddr: 0x100014360, symSize: 0x2C }
  - { offsetInCU: 0xE4CA, offset: 0x4FB3E, size: 0x8, addend: 0x0, symName: __ZNSt3__115__tree_iteratorINS_12__value_typeINS_12basic_stringIcNS_11char_traitsIcEENS_9allocatorIcEEEE9ECAirportEEPNS_11__tree_nodeIS9_PvEElEC1B8ue170006ESD_, symObjAddr: 0x2674, symBinAddr: 0x10001438C, symSize: 0x34 }
  - { offsetInCU: 0xE503, offset: 0x4FB77, size: 0x8, addend: 0x0, symName: __ZNSt3__14pairINS_15__tree_iteratorINS_12__value_typeINS_12basic_stringIcNS_11char_traitsIcEENS_9allocatorIcEEEE9ECAirportEEPNS_11__tree_nodeISA_PvEElEEbEC1B8ue170006ERKSF_RKb, symObjAddr: 0x26A8, symBinAddr: 0x1000143C0, symSize: 0x3C }
  - { offsetInCU: 0xE549, offset: 0x4FBBD, size: 0x8, addend: 0x0, symName: __ZNSt3__16__treeINS_12__value_typeINS_12basic_stringIcNS_11char_traitsIcEENS_9allocatorIcEEEE9ECAirportEENS_19__map_value_compareIS7_S9_NS_4lessIS7_EELb1EEENS5_IS9_EEE3endB8ue170006Ev, symObjAddr: 0x2714, symBinAddr: 0x10001442C, symSize: 0x34 }
  - { offsetInCU: 0xE56F, offset: 0x4FBE3, size: 0x8, addend: 0x0, symName: __ZNSt3__121__tree_const_iteratorINS_12__value_typeINS_12basic_stringIcNS_11char_traitsIcEENS_9allocatorIcEEEE9ECAirportEEPNS_11__tree_nodeIS9_PvEElEC1B8ue170006ENS_15__tree_iteratorIS9_SD_lEE, symObjAddr: 0x2748, symBinAddr: 0x100014460, symSize: 0x34 }
  - { offsetInCU: 0xE5A8, offset: 0x4FC1C, size: 0x8, addend: 0x0, symName: __ZNKSt3__119__map_value_compareINS_12basic_stringIcNS_11char_traitsIcEENS_9allocatorIcEEEENS_12__value_typeIS6_9ECAirportEENS_4lessIS6_EELb1EEclB8ue170006ERKS6_RKS9_, symObjAddr: 0x277C, symBinAddr: 0x100014494, symSize: 0x50 }
  - { offsetInCU: 0xE5EC, offset: 0x4FC60, size: 0x8, addend: 0x0, symName: __ZNKSt3__121__tree_const_iteratorINS_12__value_typeINS_12basic_stringIcNS_11char_traitsIcEENS_9allocatorIcEEEE9ECAirportEEPNS_11__tree_nodeIS9_PvEElEdeB8ue170006Ev, symObjAddr: 0x27CC, symBinAddr: 0x1000144E4, symSize: 0x28 }
  - { offsetInCU: 0xE612, offset: 0x4FC86, size: 0x8, addend: 0x0, symName: __ZNSt3__16__treeINS_12__value_typeINS_12basic_stringIcNS_11char_traitsIcEENS_9allocatorIcEEEE9ECAirportEENS_19__map_value_compareIS7_S9_NS_4lessIS7_EELb1EEENS5_IS9_EEE5beginB8ue170006Ev, symObjAddr: 0x27F4, symBinAddr: 0x10001450C, symSize: 0x34 }
  - { offsetInCU: 0xE638, offset: 0x4FCAC, size: 0x8, addend: 0x0, symName: __ZNKSt3__119__map_value_compareINS_12basic_stringIcNS_11char_traitsIcEENS_9allocatorIcEEEENS_12__value_typeIS6_9ECAirportEENS_4lessIS6_EELb1EEclB8ue170006ERKS9_RKS6_, symObjAddr: 0x2828, symBinAddr: 0x100014540, symSize: 0x48 }
  - { offsetInCU: 0xE67C, offset: 0x4FCF0, size: 0x8, addend: 0x0, symName: __ZNSt3__121__tree_const_iteratorINS_12__value_typeINS_12basic_stringIcNS_11char_traitsIcEENS_9allocatorIcEEEE9ECAirportEEPNS_11__tree_nodeIS9_PvEElEmmB8ue170006Ev, symObjAddr: 0x2870, symBinAddr: 0x100014588, symSize: 0x38 }
  - { offsetInCU: 0xE6A1, offset: 0x4FD15, size: 0x8, addend: 0x0, symName: __ZNSt3__16__treeINS_12__value_typeINS_12basic_stringIcNS_11char_traitsIcEENS_9allocatorIcEEEE9ECAirportEENS_19__map_value_compareIS7_S9_NS_4lessIS7_EELb1EEENS5_IS9_EEE12__find_equalIS7_EERPNS_16__tree_node_baseIPvEERPNS_15__tree_end_nodeISK_EERKT_, symObjAddr: 0x28A8, symBinAddr: 0x1000145C0, symSize: 0x184 }
  - { offsetInCU: 0xE70E, offset: 0x4FD82, size: 0x8, addend: 0x0, symName: __ZNKSt3__121__tree_const_iteratorINS_12__value_typeINS_12basic_stringIcNS_11char_traitsIcEENS_9allocatorIcEEEE9ECAirportEEPNS_11__tree_nodeIS9_PvEElE8__get_npB8ue170006Ev, symObjAddr: 0x2A68, symBinAddr: 0x100014780, symSize: 0x18 }
  - { offsetInCU: 0xE734, offset: 0x4FDA8, size: 0x8, addend: 0x0, symName: __ZNSt3__115__tree_iteratorINS_12__value_typeINS_12basic_stringIcNS_11char_traitsIcEENS_9allocatorIcEEEE9ECAirportEEPNS_11__tree_nodeIS9_PvEElEC1B8ue170006EPNS_15__tree_end_nodeIPNS_16__tree_node_baseISB_EEEE, symObjAddr: 0x2A80, symBinAddr: 0x100014798, symSize: 0x34 }
  - { offsetInCU: 0xE76D, offset: 0x4FDE1, size: 0x8, addend: 0x0, symName: __ZNSt3__115__tree_iteratorINS_12__value_typeINS_12basic_stringIcNS_11char_traitsIcEENS_9allocatorIcEEEE9ECAirportEEPNS_11__tree_nodeIS9_PvEElEC2B8ue170006EPNS_15__tree_end_nodeIPNS_16__tree_node_baseISB_EEEE, symObjAddr: 0x2AB4, symBinAddr: 0x1000147CC, symSize: 0x20 }
  - { offsetInCU: 0xE7A6, offset: 0x4FE1A, size: 0x8, addend: 0x0, symName: __ZNSt3__121__tree_const_iteratorINS_12__value_typeINS_12basic_stringIcNS_11char_traitsIcEENS_9allocatorIcEEEE9ECAirportEEPNS_11__tree_nodeIS9_PvEElEC2B8ue170006ENS_15__tree_iteratorIS9_SD_lEE, symObjAddr: 0x2AD4, symBinAddr: 0x1000147EC, symSize: 0x20 }
  - { offsetInCU: 0xE7DF, offset: 0x4FE53, size: 0x8, addend: 0x0, symName: __ZNKSt3__112__value_typeINS_12basic_stringIcNS_11char_traitsIcEENS_9allocatorIcEEEE9ECAirportE11__get_valueB8ue170006Ev, symObjAddr: 0x2B28, symBinAddr: 0x10001480C, symSize: 0x14 }
  - { offsetInCU: 0xE805, offset: 0x4FE79, size: 0x8, addend: 0x0, symName: __ZNKSt3__16__treeINS_12__value_typeINS_12basic_stringIcNS_11char_traitsIcEENS_9allocatorIcEEEE9ECAirportEENS_19__map_value_compareIS7_S9_NS_4lessIS7_EELb1EEENS5_IS9_EEE10__root_ptrB8ue170006Ev, symObjAddr: 0x328C, symBinAddr: 0x100014918, symSize: 0x24 }
  - { offsetInCU: 0xE82B, offset: 0x4FE9F, size: 0x8, addend: 0x0, symName: __ZNSt3__121__tree_const_iteratorINS_12__value_typeINS_12basic_stringIcNS_11char_traitsIcEENS_9allocatorIcEEEE9ECAirportEEPNS_11__tree_nodeIS9_PvEElEppB8ue170006Ev, symObjAddr: 0x33A0, symBinAddr: 0x100014A2C, symSize: 0x38 }
  - { offsetInCU: 0xE851, offset: 0x4FEC5, size: 0x8, addend: 0x0, symName: __ZNSt3__116allocator_traitsINS_9allocatorINS_11__tree_nodeINS_12__value_typeINS_12basic_stringIcNS_11char_traitsIcEENS1_IcEEEE9ECAirportEEPvEEEEE8allocateB8ue170006ERSD_m, symObjAddr: 0x3498, symBinAddr: 0x100014A64, symSize: 0x2C }
  - { offsetInCU: 0xE884, offset: 0x4FEF8, size: 0x8, addend: 0x0, symName: __ZNSt3__122__tree_node_destructorINS_9allocatorINS_11__tree_nodeINS_12__value_typeINS_12basic_stringIcNS_11char_traitsIcEENS1_IcEEEE9ECAirportEEPvEEEEEC1B8ue170006ERSD_b, symObjAddr: 0x34C4, symBinAddr: 0x100014A90, symSize: 0x48 }
  - { offsetInCU: 0xE8D1, offset: 0x4FF45, size: 0x8, addend: 0x0, symName: __ZNSt3__110unique_ptrINS_11__tree_nodeINS_12__value_typeINS_12basic_stringIcNS_11char_traitsIcEENS_9allocatorIcEEEE9ECAirportEEPvEENS_22__tree_node_destructorINS6_ISC_EEEEEC1B8ue170006ILb1EvEEPSC_NS_16__dependent_typeINS_27__unique_ptr_deleter_sfinaeISF_EEXT_EE20__good_rval_ref_typeE, symObjAddr: 0x350C, symBinAddr: 0x100014AD8, symSize: 0x3C }
  - { offsetInCU: 0xE922, offset: 0x4FF96, size: 0x8, addend: 0x0, symName: __ZNSt3__116allocator_traitsINS_9allocatorINS_11__tree_nodeINS_12__value_typeINS_12basic_stringIcNS_11char_traitsIcEENS1_IcEEEE9ECAirportEEPvEEEEE9constructB8ue170006INS_4pairIKS8_S9_EEJRKSI_EvEEvRSD_PT_DpOT0_, symObjAddr: 0x3548, symBinAddr: 0x100014B14, symSize: 0x34 }
  - { offsetInCU: 0xE979, offset: 0x4FFED, size: 0x8, addend: 0x0, symName: __ZNKSt3__110unique_ptrINS_11__tree_nodeINS_12__value_typeINS_12basic_stringIcNS_11char_traitsIcEENS_9allocatorIcEEEE9ECAirportEEPvEENS_22__tree_node_destructorINS6_ISC_EEEEEptB8ue170006Ev, symObjAddr: 0x357C, symBinAddr: 0x100014B48, symSize: 0x28 }
  - { offsetInCU: 0xE99F, offset: 0x50013, size: 0x8, addend: 0x0, symName: __ZNSt3__110unique_ptrINS_11__tree_nodeINS_12__value_typeINS_12basic_stringIcNS_11char_traitsIcEENS_9allocatorIcEEEE9ECAirportEEPvEENS_22__tree_node_destructorINS6_ISC_EEEEE11get_deleterB8ue170006Ev, symObjAddr: 0x35A4, symBinAddr: 0x100014B70, symSize: 0x24 }
  - { offsetInCU: 0xE9C5, offset: 0x50039, size: 0x8, addend: 0x0, symName: __ZNSt3__19allocatorINS_11__tree_nodeINS_12__value_typeINS_12basic_stringIcNS_11char_traitsIcEENS0_IcEEEE9ECAirportEEPvEEE8allocateB8ue170006Em, symObjAddr: 0x35C8, symBinAddr: 0x100014B94, symSize: 0x8C }
  - { offsetInCU: 0xEA03, offset: 0x50077, size: 0x8, addend: 0x0, symName: __ZNSt3__116allocator_traitsINS_9allocatorINS_11__tree_nodeINS_12__value_typeINS_12basic_stringIcNS_11char_traitsIcEENS1_IcEEEE9ECAirportEEPvEEEEE8max_sizeB8ue170006ISD_vEEmRKSD_, symObjAddr: 0x3654, symBinAddr: 0x100014C20, symSize: 0x24 }
  - { offsetInCU: 0xEA31, offset: 0x500A5, size: 0x8, addend: 0x0, symName: __ZNKSt3__19allocatorINS_11__tree_nodeINS_12__value_typeINS_12basic_stringIcNS_11char_traitsIcEENS0_IcEEEE9ECAirportEEPvEEE8max_sizeB8ue170006Ev, symObjAddr: 0x36D4, symBinAddr: 0x100014C44, symSize: 0x20 }
  - { offsetInCU: 0xEA57, offset: 0x500CB, size: 0x8, addend: 0x0, symName: __ZNSt3__122__tree_node_destructorINS_9allocatorINS_11__tree_nodeINS_12__value_typeINS_12basic_stringIcNS_11char_traitsIcEENS1_IcEEEE9ECAirportEEPvEEEEEC2B8ue170006ERSD_b, symObjAddr: 0x3718, symBinAddr: 0x100014C64, symSize: 0x38 }
  - { offsetInCU: 0xEA9F, offset: 0x50113, size: 0x8, addend: 0x0, symName: __ZNSt3__110unique_ptrINS_11__tree_nodeINS_12__value_typeINS_12basic_stringIcNS_11char_traitsIcEENS_9allocatorIcEEEE9ECAirportEEPvEENS_22__tree_node_destructorINS6_ISC_EEEEEC2B8ue170006ILb1EvEEPSC_NS_16__dependent_typeINS_27__unique_ptr_deleter_sfinaeISF_EEXT_EE20__good_rval_ref_typeE, symObjAddr: 0x3750, symBinAddr: 0x100014C9C, symSize: 0x5C }
  - { offsetInCU: 0xEAF0, offset: 0x50164, size: 0x8, addend: 0x0, symName: __ZNSt3__117__compressed_pairIPNS_11__tree_nodeINS_12__value_typeINS_12basic_stringIcNS_11char_traitsIcEENS_9allocatorIcEEEE9ECAirportEEPvEENS_22__tree_node_destructorINS6_ISC_EEEEEC1B8ue170006IRSD_SG_EEOT_OT0_, symObjAddr: 0x37AC, symBinAddr: 0x100014CF8, symSize: 0x3C }
  - { offsetInCU: 0xEB48, offset: 0x501BC, size: 0x8, addend: 0x0, symName: __ZNSt3__117__compressed_pairIPNS_11__tree_nodeINS_12__value_typeINS_12basic_stringIcNS_11char_traitsIcEENS_9allocatorIcEEEE9ECAirportEEPvEENS_22__tree_node_destructorINS6_ISC_EEEEEC2B8ue170006IRSD_SG_EEOT_OT0_, symObjAddr: 0x37E8, symBinAddr: 0x100014D34, symSize: 0x48 }
  - { offsetInCU: 0xEBA0, offset: 0x50214, size: 0x8, addend: 0x0, symName: __ZNSt3__122__compressed_pair_elemIPNS_11__tree_nodeINS_12__value_typeINS_12basic_stringIcNS_11char_traitsIcEENS_9allocatorIcEEEE9ECAirportEEPvEELi0ELb0EEC2B8ue170006IRSD_vEEOT_, symObjAddr: 0x3830, symBinAddr: 0x100014D7C, symSize: 0x24 }
  - { offsetInCU: 0xEBE2, offset: 0x50256, size: 0x8, addend: 0x0, symName: __ZNSt3__122__compressed_pair_elemINS_22__tree_node_destructorINS_9allocatorINS_11__tree_nodeINS_12__value_typeINS_12basic_stringIcNS_11char_traitsIcEENS2_IcEEEE9ECAirportEEPvEEEEEELi1ELb0EEC2B8ue170006ISF_vEEOT_, symObjAddr: 0x3854, symBinAddr: 0x100014DA0, symSize: 0x24 }
  - { offsetInCU: 0xEC24, offset: 0x50298, size: 0x8, addend: 0x0, symName: __ZNSt3__19allocatorINS_11__tree_nodeINS_12__value_typeINS_12basic_stringIcNS_11char_traitsIcEENS0_IcEEEE9ECAirportEEPvEEE9constructB8ue170006INS_4pairIKS7_S8_EEJRKSG_EEEvPT_DpOT0_, symObjAddr: 0x3878, symBinAddr: 0x100014DC4, symSize: 0x30 }
  - { offsetInCU: 0xEC7A, offset: 0x502EE, size: 0x8, addend: 0x0, symName: __ZNSt3__14pairIKNS_12basic_stringIcNS_11char_traitsIcEENS_9allocatorIcEEEE9ECAirportEC1B8ue170006ERKS9_, symObjAddr: 0x38A8, symBinAddr: 0x100014DF4, symSize: 0x34 }
  - { offsetInCU: 0xECAF, offset: 0x50323, size: 0x8, addend: 0x0, symName: __ZNSt3__14pairIKNS_12basic_stringIcNS_11char_traitsIcEENS_9allocatorIcEEEE9ECAirportEC2B8ue170006ERKS9_, symObjAddr: 0x38DC, symBinAddr: 0x100014E28, symSize: 0x78 }
  - { offsetInCU: 0xECE4, offset: 0x50358, size: 0x8, addend: 0x0, symName: __ZNKSt3__117__compressed_pairIPNS_11__tree_nodeINS_12__value_typeINS_12basic_stringIcNS_11char_traitsIcEENS_9allocatorIcEEEE9ECAirportEEPvEENS_22__tree_node_destructorINS6_ISC_EEEEE5firstB8ue170006Ev, symObjAddr: 0x3954, symBinAddr: 0x100014EA0, symSize: 0x24 }
  - { offsetInCU: 0xED0A, offset: 0x5037E, size: 0x8, addend: 0x0, symName: __ZNKSt3__122__compressed_pair_elemIPNS_11__tree_nodeINS_12__value_typeINS_12basic_stringIcNS_11char_traitsIcEENS_9allocatorIcEEEE9ECAirportEEPvEELi0ELb0EE5__getB8ue170006Ev, symObjAddr: 0x3978, symBinAddr: 0x100014EC4, symSize: 0x14 }
  - { offsetInCU: 0xED30, offset: 0x503A4, size: 0x8, addend: 0x0, symName: __ZNSt3__117__compressed_pairIPNS_11__tree_nodeINS_12__value_typeINS_12basic_stringIcNS_11char_traitsIcEENS_9allocatorIcEEEE9ECAirportEEPvEENS_22__tree_node_destructorINS6_ISC_EEEEE6secondB8ue170006Ev, symObjAddr: 0x398C, symBinAddr: 0x100014ED8, symSize: 0x28 }
  - { offsetInCU: 0xED56, offset: 0x503CA, size: 0x8, addend: 0x0, symName: __ZNSt3__122__compressed_pair_elemINS_22__tree_node_destructorINS_9allocatorINS_11__tree_nodeINS_12__value_typeINS_12basic_stringIcNS_11char_traitsIcEENS2_IcEEEE9ECAirportEEPvEEEEEELi1ELb0EE5__getB8ue170006Ev, symObjAddr: 0x39B4, symBinAddr: 0x100014F00, symSize: 0x14 }
  - { offsetInCU: 0xED7C, offset: 0x503F0, size: 0x8, addend: 0x0, symName: __ZNSt3__117__compressed_pairIPNS_11__tree_nodeINS_12__value_typeINS_12basic_stringIcNS_11char_traitsIcEENS_9allocatorIcEEEE9ECAirportEEPvEENS_22__tree_node_destructorINS6_ISC_EEEEE5firstB8ue170006Ev, symObjAddr: 0x3E1C, symBinAddr: 0x100014F14, symSize: 0x24 }
  - { offsetInCU: 0xEDA2, offset: 0x50416, size: 0x8, addend: 0x0, symName: __ZNSt3__122__compressed_pair_elemIPNS_11__tree_nodeINS_12__value_typeINS_12basic_stringIcNS_11char_traitsIcEENS_9allocatorIcEEEE9ECAirportEEPvEELi0ELb0EE5__getB8ue170006Ev, symObjAddr: 0x3E40, symBinAddr: 0x100014F38, symSize: 0x14 }
  - { offsetInCU: 0xEDC8, offset: 0x5043C, size: 0x8, addend: 0x0, symName: __ZNSt3__110unique_ptrINS_11__tree_nodeINS_12__value_typeINS_12basic_stringIcNS_11char_traitsIcEENS_9allocatorIcEEEE9ECAirportEEPvEENS_22__tree_node_destructorINS6_ISC_EEEEED2B8ue170006Ev, symObjAddr: 0x3E54, symBinAddr: 0x100014F4C, symSize: 0x30 }
  - { offsetInCU: 0xEDF2, offset: 0x50466, size: 0x8, addend: 0x0, symName: __ZNSt3__110unique_ptrINS_11__tree_nodeINS_12__value_typeINS_12basic_stringIcNS_11char_traitsIcEENS_9allocatorIcEEEE9ECAirportEEPvEENS_22__tree_node_destructorINS6_ISC_EEEEE5resetB8ue170006EPSC_, symObjAddr: 0x3E84, symBinAddr: 0x100014F7C, symSize: 0x78 }
  - { offsetInCU: 0xEE36, offset: 0x504AA, size: 0x8, addend: 0x0, symName: __ZNSt3__122__tree_node_destructorINS_9allocatorINS_11__tree_nodeINS_12__value_typeINS_12basic_stringIcNS_11char_traitsIcEENS1_IcEEEE9ECAirportEEPvEEEEEclB8ue170006EPSC_, symObjAddr: 0x3EFC, symBinAddr: 0x100014FF4, symSize: 0xAC }
  - { offsetInCU: 0xEE6B, offset: 0x504DF, size: 0x8, addend: 0x0, symName: __ZNSt3__115__tree_iteratorINS_12__value_typeINS_12basic_stringIcNS_11char_traitsIcEENS_9allocatorIcEEEE9ECAirportEEPNS_11__tree_nodeIS9_PvEElEC2B8ue170006ESD_, symObjAddr: 0x3FA8, symBinAddr: 0x1000150A0, symSize: 0x20 }
  - { offsetInCU: 0xEEA4, offset: 0x50518, size: 0x8, addend: 0x0, symName: __ZNSt3__14pairINS_15__tree_iteratorINS_12__value_typeINS_12basic_stringIcNS_11char_traitsIcEENS_9allocatorIcEEEE9ECAirportEEPNS_11__tree_nodeISA_PvEElEEbEC2B8ue170006ERKSF_RKb, symObjAddr: 0x3FC8, symBinAddr: 0x1000150C0, symSize: 0x38 }
  - { offsetInCU: 0xEEEA, offset: 0x5055E, size: 0x8, addend: 0x0, symName: __ZNSt3__114__map_iteratorINS_15__tree_iteratorINS_12__value_typeINS_12basic_stringIcNS_11char_traitsIcEENS_9allocatorIcEEEE9ECAirportEEPNS_11__tree_nodeISA_PvEElEEEC2B8ue170006ESF_, symObjAddr: 0x4000, symBinAddr: 0x1000150F8, symSize: 0x20 }
  - { offsetInCU: 0xEF23, offset: 0x50597, size: 0x8, addend: 0x0, symName: __ZNSt3__120__map_const_iteratorINS_21__tree_const_iteratorINS_12__value_typeINS_12basic_stringIcNS_11char_traitsIcEENS_9allocatorIcEEEE9ECAirportEEPNS_11__tree_nodeISA_PvEElEEEC2B8ue170006ESF_, symObjAddr: 0x4020, symBinAddr: 0x100015118, symSize: 0x20 }
  - { offsetInCU: 0xEF5C, offset: 0x505D0, size: 0x8, addend: 0x0, symName: __ZNKSt3__121__tree_const_iteratorINS_12__value_typeINS_12basic_stringIcNS_11char_traitsIcEENS_9allocatorIcEEEE9ECAirportEEPNS_11__tree_nodeIS9_PvEElEptB8ue170006Ev, symObjAddr: 0x4040, symBinAddr: 0x100015138, symSize: 0x2C }
  - { offsetInCU: 0xEF82, offset: 0x505F6, size: 0x8, addend: 0x0, symName: __ZNSt3__114pointer_traitsIPKNS_12__value_typeINS_12basic_stringIcNS_11char_traitsIcEENS_9allocatorIcEEEE9ECAirportEEE10pointer_toB8ue170006ERSA_, symObjAddr: 0x406C, symBinAddr: 0x100015164, symSize: 0x14 }
  - { offsetInCU: 0xEFA5, offset: 0x50619, size: 0x8, addend: 0x0, symName: __ZNSt3__13mapINS_12basic_stringIcNS_11char_traitsIcEENS_9allocatorIcEEEE9ECAirportNS_4lessIS6_EENS4_INS_4pairIKS6_S7_EEEEED2B8ue170006Ev, symObjAddr: 0x4080, symBinAddr: 0x100015178, symSize: 0x2C }
  - { offsetInCU: 0xEFCF, offset: 0x50643, size: 0x8, addend: 0x0, symName: __ZNSt3__16__treeINS_12__value_typeINS_12basic_stringIcNS_11char_traitsIcEENS_9allocatorIcEEEE9ECAirportEENS_19__map_value_compareIS7_S9_NS_4lessIS7_EELb1EEENS5_IS9_EEED1Ev, symObjAddr: 0x40AC, symBinAddr: 0x1000151A4, symSize: 0x2C }
  - { offsetInCU: 0xEFFB, offset: 0x5066F, size: 0x8, addend: 0x0, symName: __ZNSt3__16__treeINS_12__value_typeINS_12basic_stringIcNS_11char_traitsIcEENS_9allocatorIcEEEE9ECAirportEENS_19__map_value_compareIS7_S9_NS_4lessIS7_EELb1EEENS5_IS9_EEED2Ev, symObjAddr: 0x40D8, symBinAddr: 0x1000151D0, symSize: 0x38 }
  - { offsetInCU: 0xF027, offset: 0x5069B, size: 0x8, addend: 0x0, symName: __ZNSt3__13mapINS_4pairINS_12basic_stringIcNS_11char_traitsIcEENS_9allocatorIcEEEES7_EEiNS_4lessIS8_EENS5_INS1_IKS8_iEEEEED2B8ue170006Ev, symObjAddr: 0x4110, symBinAddr: 0x100015208, symSize: 0x2C }
  - { offsetInCU: 0xF051, offset: 0x506C5, size: 0x8, addend: 0x0, symName: __ZNSt3__16__treeINS_12__value_typeINS_4pairINS_12basic_stringIcNS_11char_traitsIcEENS_9allocatorIcEEEES8_EEiEENS_19__map_value_compareIS9_SA_NS_4lessIS9_EELb1EEENS6_ISA_EEED1Ev, symObjAddr: 0x413C, symBinAddr: 0x100015234, symSize: 0x2C }
  - { offsetInCU: 0xF07D, offset: 0x506F1, size: 0x8, addend: 0x0, symName: __ZNSt3__16__treeINS_12__value_typeINS_4pairINS_12basic_stringIcNS_11char_traitsIcEENS_9allocatorIcEEEES8_EEiEENS_19__map_value_compareIS9_SA_NS_4lessIS9_EELb1EEENS6_ISA_EEED2Ev, symObjAddr: 0x4168, symBinAddr: 0x100015260, symSize: 0x38 }
  - { offsetInCU: 0xF0A8, offset: 0x5071C, size: 0x8, addend: 0x0, symName: __ZNSt3__16__treeINS_12__value_typeINS_4pairINS_12basic_stringIcNS_11char_traitsIcEENS_9allocatorIcEEEES8_EEiEENS_19__map_value_compareIS9_SA_NS_4lessIS9_EELb1EEENS6_ISA_EEE7destroyEPNS_11__tree_nodeISA_PvEE, symObjAddr: 0x41A0, symBinAddr: 0x100015298, symSize: 0xC0 }
  - { offsetInCU: 0xF0FD, offset: 0x50771, size: 0x8, addend: 0x0, symName: __ZNKSt3__16__treeINS_12__value_typeINS_4pairINS_12basic_stringIcNS_11char_traitsIcEENS_9allocatorIcEEEES8_EEiEENS_19__map_value_compareIS9_SA_NS_4lessIS9_EELb1EEENS6_ISA_EEE6__rootB8ue170006Ev, symObjAddr: 0x4260, symBinAddr: 0x100015358, symSize: 0x28 }
  - { offsetInCU: 0xF123, offset: 0x50797, size: 0x8, addend: 0x0, symName: __ZNSt3__16__treeINS_12__value_typeINS_4pairINS_12basic_stringIcNS_11char_traitsIcEENS_9allocatorIcEEEES8_EEiEENS_19__map_value_compareIS9_SA_NS_4lessIS9_EELb1EEENS6_ISA_EEE12__node_allocB8ue170006Ev, symObjAddr: 0x4288, symBinAddr: 0x100015380, symSize: 0x28 }
  - { offsetInCU: 0xF149, offset: 0x507BD, size: 0x8, addend: 0x0, symName: __ZNSt3__116allocator_traitsINS_9allocatorINS_11__tree_nodeINS_12__value_typeINS_4pairINS_12basic_stringIcNS_11char_traitsIcEENS1_IcEEEES9_EEiEEPvEEEEE7destroyB8ue170006INS4_IKSA_iEEvvEEvRSE_PT_, symObjAddr: 0x42B0, symBinAddr: 0x1000153A8, symSize: 0x28 }
  - { offsetInCU: 0xF183, offset: 0x507F7, size: 0x8, addend: 0x0, symName: __ZNSt3__122__tree_key_value_typesINS_12__value_typeINS_4pairINS_12basic_stringIcNS_11char_traitsIcEENS_9allocatorIcEEEES8_EEiEEE9__get_ptrB8ue170006ERSA_, symObjAddr: 0x42D8, symBinAddr: 0x1000153D0, symSize: 0x24 }
  - { offsetInCU: 0xF1A7, offset: 0x5081B, size: 0x8, addend: 0x0, symName: __ZNSt3__116allocator_traitsINS_9allocatorINS_11__tree_nodeINS_12__value_typeINS_4pairINS_12basic_stringIcNS_11char_traitsIcEENS1_IcEEEES9_EEiEEPvEEEEE10deallocateB8ue170006ERSE_PSD_m, symObjAddr: 0x42FC, symBinAddr: 0x1000153F4, symSize: 0x34 }
  - { offsetInCU: 0xF1E9, offset: 0x5085D, size: 0x8, addend: 0x0, symName: __ZNSt3__117__compressed_pairINS_15__tree_end_nodeIPNS_16__tree_node_baseIPvEEEENS_9allocatorINS_11__tree_nodeINS_12__value_typeINS_4pairINS_12basic_stringIcNS_11char_traitsIcEENS7_IcEEEESF_EEiEES3_EEEEE6secondB8ue170006Ev, symObjAddr: 0x4330, symBinAddr: 0x100015428, symSize: 0x24 }
  - { offsetInCU: 0xF20F, offset: 0x50883, size: 0x8, addend: 0x0, symName: __ZNSt3__122__compressed_pair_elemINS_9allocatorINS_11__tree_nodeINS_12__value_typeINS_4pairINS_12basic_stringIcNS_11char_traitsIcEENS1_IcEEEES9_EEiEEPvEEEELi1ELb1EE5__getB8ue170006Ev, symObjAddr: 0x4354, symBinAddr: 0x10001544C, symSize: 0x14 }
  - { offsetInCU: 0xF235, offset: 0x508A9, size: 0x8, addend: 0x0, symName: __ZNSt3__14pairIKNS0_INS_12basic_stringIcNS_11char_traitsIcEENS_9allocatorIcEEEES6_EEiED1Ev, symObjAddr: 0x4368, symBinAddr: 0x100015460, symSize: 0x2C }
  - { offsetInCU: 0xF261, offset: 0x508D5, size: 0x8, addend: 0x0, symName: __ZNSt3__14pairIKNS0_INS_12basic_stringIcNS_11char_traitsIcEENS_9allocatorIcEEEES6_EEiED2Ev, symObjAddr: 0x4394, symBinAddr: 0x10001548C, symSize: 0x2C }
  - { offsetInCU: 0xF28D, offset: 0x50901, size: 0x8, addend: 0x0, symName: __ZNSt3__112__value_typeINS_4pairINS_12basic_stringIcNS_11char_traitsIcEENS_9allocatorIcEEEES7_EEiE11__get_valueB8ue170006Ev, symObjAddr: 0x43C0, symBinAddr: 0x1000154B8, symSize: 0x14 }
  - { offsetInCU: 0xF2B3, offset: 0x50927, size: 0x8, addend: 0x0, symName: __ZNSt3__19allocatorINS_11__tree_nodeINS_12__value_typeINS_4pairINS_12basic_stringIcNS_11char_traitsIcEENS0_IcEEEES8_EEiEEPvEEE10deallocateB8ue170006EPSC_m, symObjAddr: 0x43D4, symBinAddr: 0x1000154CC, symSize: 0x74 }
  - { offsetInCU: 0xF2F5, offset: 0x50969, size: 0x8, addend: 0x0, symName: __ZNKSt3__16__treeINS_12__value_typeINS_4pairINS_12basic_stringIcNS_11char_traitsIcEENS_9allocatorIcEEEES8_EEiEENS_19__map_value_compareIS9_SA_NS_4lessIS9_EELb1EEENS6_ISA_EEE10__end_nodeB8ue170006Ev, symObjAddr: 0x4448, symBinAddr: 0x100015540, symSize: 0x2C }
  - { offsetInCU: 0xF31B, offset: 0x5098F, size: 0x8, addend: 0x0, symName: __ZNKSt3__117__compressed_pairINS_15__tree_end_nodeIPNS_16__tree_node_baseIPvEEEENS_9allocatorINS_11__tree_nodeINS_12__value_typeINS_4pairINS_12basic_stringIcNS_11char_traitsIcEENS7_IcEEEESF_EEiEES3_EEEEE5firstB8ue170006Ev, symObjAddr: 0x4474, symBinAddr: 0x10001556C, symSize: 0x24 }
  - { offsetInCU: 0xF34F, offset: 0x509C3, size: 0x8, addend: 0x0, symName: __ZNSt3__13mapINS_12basic_stringIcNS_11char_traitsIcEENS_9allocatorIcEEEE9ECAirportNS_4lessIS6_EENS4_INS_4pairIKS6_S7_EEEEE25__construct_node_with_keyERSB_, symObjAddr: 0x49A4, symBinAddr: 0x100015590, symSize: 0x144 }
  - { offsetInCU: 0xF3A5, offset: 0x50A19, size: 0x8, addend: 0x0, symName: __ZNKSt3__110unique_ptrINS_11__tree_nodeINS_12__value_typeINS_12basic_stringIcNS_11char_traitsIcEENS_9allocatorIcEEEE9ECAirportEEPvEENS_21__map_node_destructorINS6_ISC_EEEEE3getB8ue170006Ev, symObjAddr: 0x4AE8, symBinAddr: 0x1000156D4, symSize: 0x28 }
  - { offsetInCU: 0xF3CB, offset: 0x50A3F, size: 0x8, addend: 0x0, symName: __ZNSt3__110unique_ptrINS_11__tree_nodeINS_12__value_typeINS_12basic_stringIcNS_11char_traitsIcEENS_9allocatorIcEEEE9ECAirportEEPvEENS_21__map_node_destructorINS6_ISC_EEEEE7releaseB8ue170006Ev, symObjAddr: 0x4B10, symBinAddr: 0x1000156FC, symSize: 0x44 }
  - { offsetInCU: 0xF400, offset: 0x50A74, size: 0x8, addend: 0x0, symName: __ZNSt3__110unique_ptrINS_11__tree_nodeINS_12__value_typeINS_12basic_stringIcNS_11char_traitsIcEENS_9allocatorIcEEEE9ECAirportEEPvEENS_21__map_node_destructorINS6_ISC_EEEEED1B8ue170006Ev, symObjAddr: 0x4B54, symBinAddr: 0x100015740, symSize: 0x2C }
  - { offsetInCU: 0xF42A, offset: 0x50A9E, size: 0x8, addend: 0x0, symName: __ZNSt3__121__map_node_destructorINS_9allocatorINS_11__tree_nodeINS_12__value_typeINS_12basic_stringIcNS_11char_traitsIcEENS1_IcEEEE9ECAirportEEPvEEEEEC1B8ue170006ERSD_, symObjAddr: 0x4B80, symBinAddr: 0x10001576C, symSize: 0x34 }
  - { offsetInCU: 0xF468, offset: 0x50ADC, size: 0x8, addend: 0x0, symName: __ZNSt3__110unique_ptrINS_11__tree_nodeINS_12__value_typeINS_12basic_stringIcNS_11char_traitsIcEENS_9allocatorIcEEEE9ECAirportEEPvEENS_21__map_node_destructorINS6_ISC_EEEEEC1B8ue170006ILb1EvEEPSC_NS_16__dependent_typeINS_27__unique_ptr_deleter_sfinaeISF_EEXT_EE20__good_rval_ref_typeE, symObjAddr: 0x4BB4, symBinAddr: 0x1000157A0, symSize: 0x3C }
  - { offsetInCU: 0xF4B9, offset: 0x50B2D, size: 0x8, addend: 0x0, symName: __ZNSt3__116allocator_traitsINS_9allocatorINS_11__tree_nodeINS_12__value_typeINS_12basic_stringIcNS_11char_traitsIcEENS1_IcEEEE9ECAirportEEPvEEEEE9constructB8ue170006IKS8_JRSG_EvEEvRSD_PT_DpOT0_, symObjAddr: 0x4BF0, symBinAddr: 0x1000157DC, symSize: 0x34 }
  - { offsetInCU: 0xF510, offset: 0x50B84, size: 0x8, addend: 0x0, symName: __ZNKSt3__110unique_ptrINS_11__tree_nodeINS_12__value_typeINS_12basic_stringIcNS_11char_traitsIcEENS_9allocatorIcEEEE9ECAirportEEPvEENS_21__map_node_destructorINS6_ISC_EEEEEptB8ue170006Ev, symObjAddr: 0x4C24, symBinAddr: 0x100015810, symSize: 0x28 }
  - { offsetInCU: 0xF536, offset: 0x50BAA, size: 0x8, addend: 0x0, symName: __ZNSt3__110unique_ptrINS_11__tree_nodeINS_12__value_typeINS_12basic_stringIcNS_11char_traitsIcEENS_9allocatorIcEEEE9ECAirportEEPvEENS_21__map_node_destructorINS6_ISC_EEEEE11get_deleterB8ue170006Ev, symObjAddr: 0x4C4C, symBinAddr: 0x100015838, symSize: 0x24 }
  - { offsetInCU: 0xF561, offset: 0x50BD5, size: 0x8, addend: 0x0, symName: __ZNSt3__116allocator_traitsINS_9allocatorINS_11__tree_nodeINS_12__value_typeINS_12basic_stringIcNS_11char_traitsIcEENS1_IcEEEE9ECAirportEEPvEEEEE9constructB8ue170006IS9_JEvEEvRSD_PT_DpOT0_, symObjAddr: 0x4C70, symBinAddr: 0x10001585C, symSize: 0x2C }
  - { offsetInCU: 0xF5A3, offset: 0x50C17, size: 0x8, addend: 0x0, symName: __ZNSt3__121__map_node_destructorINS_9allocatorINS_11__tree_nodeINS_12__value_typeINS_12basic_stringIcNS_11char_traitsIcEENS1_IcEEEE9ECAirportEEPvEEEEEC2B8ue170006ERSD_, symObjAddr: 0x4C9C, symBinAddr: 0x100015888, symSize: 0x28 }
  - { offsetInCU: 0xF5DC, offset: 0x50C50, size: 0x8, addend: 0x0, symName: __ZNSt3__110unique_ptrINS_11__tree_nodeINS_12__value_typeINS_12basic_stringIcNS_11char_traitsIcEENS_9allocatorIcEEEE9ECAirportEEPvEENS_21__map_node_destructorINS6_ISC_EEEEEC2B8ue170006ILb1EvEEPSC_NS_16__dependent_typeINS_27__unique_ptr_deleter_sfinaeISF_EEXT_EE20__good_rval_ref_typeE, symObjAddr: 0x4CC4, symBinAddr: 0x1000158B0, symSize: 0x5C }
  - { offsetInCU: 0xF62D, offset: 0x50CA1, size: 0x8, addend: 0x0, symName: __ZNSt3__117__compressed_pairIPNS_11__tree_nodeINS_12__value_typeINS_12basic_stringIcNS_11char_traitsIcEENS_9allocatorIcEEEE9ECAirportEEPvEENS_21__map_node_destructorINS6_ISC_EEEEEC1B8ue170006IRSD_SG_EEOT_OT0_, symObjAddr: 0x4D20, symBinAddr: 0x10001590C, symSize: 0x3C }
  - { offsetInCU: 0xF685, offset: 0x50CF9, size: 0x8, addend: 0x0, symName: __ZNSt3__117__compressed_pairIPNS_11__tree_nodeINS_12__value_typeINS_12basic_stringIcNS_11char_traitsIcEENS_9allocatorIcEEEE9ECAirportEEPvEENS_21__map_node_destructorINS6_ISC_EEEEEC2B8ue170006IRSD_SG_EEOT_OT0_, symObjAddr: 0x4D5C, symBinAddr: 0x100015948, symSize: 0x48 }
  - { offsetInCU: 0xF6DD, offset: 0x50D51, size: 0x8, addend: 0x0, symName: __ZNSt3__122__compressed_pair_elemINS_21__map_node_destructorINS_9allocatorINS_11__tree_nodeINS_12__value_typeINS_12basic_stringIcNS_11char_traitsIcEENS2_IcEEEE9ECAirportEEPvEEEEEELi1ELb0EEC2B8ue170006ISF_vEEOT_, symObjAddr: 0x4DA4, symBinAddr: 0x100015990, symSize: 0x24 }
  - { offsetInCU: 0xF71F, offset: 0x50D93, size: 0x8, addend: 0x0, symName: __ZNSt3__19allocatorINS_11__tree_nodeINS_12__value_typeINS_12basic_stringIcNS_11char_traitsIcEENS0_IcEEEE9ECAirportEEPvEEE9constructB8ue170006IKS7_JRSE_EEEvPT_DpOT0_, symObjAddr: 0x4DC8, symBinAddr: 0x1000159B4, symSize: 0x30 }
  - { offsetInCU: 0xF775, offset: 0x50DE9, size: 0x8, addend: 0x0, symName: __ZNKSt3__117__compressed_pairIPNS_11__tree_nodeINS_12__value_typeINS_12basic_stringIcNS_11char_traitsIcEENS_9allocatorIcEEEE9ECAirportEEPvEENS_21__map_node_destructorINS6_ISC_EEEEE5firstB8ue170006Ev, symObjAddr: 0x4DF8, symBinAddr: 0x1000159E4, symSize: 0x24 }
  - { offsetInCU: 0xF79B, offset: 0x50E0F, size: 0x8, addend: 0x0, symName: __ZNSt3__117__compressed_pairIPNS_11__tree_nodeINS_12__value_typeINS_12basic_stringIcNS_11char_traitsIcEENS_9allocatorIcEEEE9ECAirportEEPvEENS_21__map_node_destructorINS6_ISC_EEEEE6secondB8ue170006Ev, symObjAddr: 0x4E1C, symBinAddr: 0x100015A08, symSize: 0x28 }
  - { offsetInCU: 0xF7C1, offset: 0x50E35, size: 0x8, addend: 0x0, symName: __ZNSt3__122__compressed_pair_elemINS_21__map_node_destructorINS_9allocatorINS_11__tree_nodeINS_12__value_typeINS_12basic_stringIcNS_11char_traitsIcEENS2_IcEEEE9ECAirportEEPvEEEEEELi1ELb0EE5__getB8ue170006Ev, symObjAddr: 0x4E44, symBinAddr: 0x100015A30, symSize: 0x14 }
  - { offsetInCU: 0xF7E7, offset: 0x50E5B, size: 0x8, addend: 0x0, symName: __ZNSt3__19allocatorINS_11__tree_nodeINS_12__value_typeINS_12basic_stringIcNS_11char_traitsIcEENS0_IcEEEE9ECAirportEEPvEEE9constructB8ue170006IS8_JEEEvPT_DpOT0_, symObjAddr: 0x4E58, symBinAddr: 0x100015A44, symSize: 0x28 }
  - { offsetInCU: 0xF829, offset: 0x50E9D, size: 0x8, addend: 0x0, symName: __ZNSt3__117__compressed_pairIPNS_11__tree_nodeINS_12__value_typeINS_12basic_stringIcNS_11char_traitsIcEENS_9allocatorIcEEEE9ECAirportEEPvEENS_21__map_node_destructorINS6_ISC_EEEEE5firstB8ue170006Ev, symObjAddr: 0x4E80, symBinAddr: 0x100015A6C, symSize: 0x24 }
  - { offsetInCU: 0xF84F, offset: 0x50EC3, size: 0x8, addend: 0x0, symName: __ZNSt3__110unique_ptrINS_11__tree_nodeINS_12__value_typeINS_12basic_stringIcNS_11char_traitsIcEENS_9allocatorIcEEEE9ECAirportEEPvEENS_21__map_node_destructorINS6_ISC_EEEEED2B8ue170006Ev, symObjAddr: 0x4EA4, symBinAddr: 0x100015A90, symSize: 0x30 }
  - { offsetInCU: 0xF879, offset: 0x50EED, size: 0x8, addend: 0x0, symName: __ZNSt3__110unique_ptrINS_11__tree_nodeINS_12__value_typeINS_12basic_stringIcNS_11char_traitsIcEENS_9allocatorIcEEEE9ECAirportEEPvEENS_21__map_node_destructorINS6_ISC_EEEEE5resetB8ue170006EPSC_, symObjAddr: 0x4ED4, symBinAddr: 0x100015AC0, symSize: 0x78 }
  - { offsetInCU: 0xF8BD, offset: 0x50F31, size: 0x8, addend: 0x0, symName: __ZNSt3__121__map_node_destructorINS_9allocatorINS_11__tree_nodeINS_12__value_typeINS_12basic_stringIcNS_11char_traitsIcEENS1_IcEEEE9ECAirportEEPvEEEEEclB8ue170006EPSC_, symObjAddr: 0x4F4C, symBinAddr: 0x100015B38, symSize: 0xE4 }
  - { offsetInCU: 0xF8F2, offset: 0x50F66, size: 0x8, addend: 0x0, symName: __ZNSt3__116allocator_traitsINS_9allocatorINS_11__tree_nodeINS_12__value_typeINS_12basic_stringIcNS_11char_traitsIcEENS1_IcEEEE9ECAirportEEPvEEEEE7destroyB8ue170006IS9_vvEEvRSD_PT_, symObjAddr: 0x5030, symBinAddr: 0x100015C1C, symSize: 0x28 }
  - { offsetInCU: 0xF92C, offset: 0x50FA0, size: 0x8, addend: 0x0, symName: __ZNSt3__116allocator_traitsINS_9allocatorINS_11__tree_nodeINS_12__value_typeINS_12basic_stringIcNS_11char_traitsIcEENS1_IcEEEE9ECAirportEEPvEEEEE7destroyB8ue170006IKS8_vvEEvRSD_PT_, symObjAddr: 0x5058, symBinAddr: 0x100015C44, symSize: 0x28 }
  - { offsetInCU: 0xF965, offset: 0x50FD9, size: 0x8, addend: 0x0, symName: __ZNKSt3__16__treeINS_12__value_typeINS_12basic_stringIcNS_11char_traitsIcEENS_9allocatorIcEEEE9ECAirportEENS_19__map_value_compareIS7_S9_NS_4lessIS7_EELb1EEENS5_IS9_EEE4findIS7_EENS_21__tree_const_iteratorIS9_PNS_11__tree_nodeIS9_PvEElEERKT_, symObjAddr: 0x5080, symBinAddr: 0x100015C6C, symSize: 0xF8 }
  - { offsetInCU: 0xF9B3, offset: 0x51027, size: 0x8, addend: 0x0, symName: __ZNKSt3__16__treeINS_12__value_typeINS_12basic_stringIcNS_11char_traitsIcEENS_9allocatorIcEEEE9ECAirportEENS_19__map_value_compareIS7_S9_NS_4lessIS7_EELb1EEENS5_IS9_EEE13__lower_boundIS7_EENS_21__tree_const_iteratorIS9_PNS_11__tree_nodeIS9_PvEElEERKT_SL_PNS_15__tree_end_nodeIPNS_16__tree_node_baseISJ_EEEE, symObjAddr: 0x5178, symBinAddr: 0x100015D64, symSize: 0xA4 }
  - { offsetInCU: 0xFA11, offset: 0x51085, size: 0x8, addend: 0x0, symName: __ZNKSt3__16__treeINS_12__value_typeINS_12basic_stringIcNS_11char_traitsIcEENS_9allocatorIcEEEE9ECAirportEENS_19__map_value_compareIS7_S9_NS_4lessIS7_EELb1EEENS5_IS9_EEE3endB8ue170006Ev, symObjAddr: 0x5250, symBinAddr: 0x100015E3C, symSize: 0x34 }
  - { offsetInCU: 0xFA37, offset: 0x510AB, size: 0x8, addend: 0x0, symName: __ZNSt3__121__tree_const_iteratorINS_12__value_typeINS_12basic_stringIcNS_11char_traitsIcEENS_9allocatorIcEEEE9ECAirportEEPNS_11__tree_nodeIS9_PvEElEC1B8ue170006EPNS_15__tree_end_nodeIPNS_16__tree_node_baseISB_EEEE, symObjAddr: 0x5284, symBinAddr: 0x100015E70, symSize: 0x34 }
  - { offsetInCU: 0xFA70, offset: 0x510E4, size: 0x8, addend: 0x0, symName: __ZNSt3__121__tree_const_iteratorINS_12__value_typeINS_12basic_stringIcNS_11char_traitsIcEENS_9allocatorIcEEEE9ECAirportEEPNS_11__tree_nodeIS9_PvEElEC2B8ue170006EPNS_15__tree_end_nodeIPNS_16__tree_node_baseISB_EEEE, symObjAddr: 0x52B8, symBinAddr: 0x100015EA4, symSize: 0x20 }
  - { offsetInCU: 0xFAA9, offset: 0x5111D, size: 0x8, addend: 0x0, symName: __ZNSt3__116allocator_traitsINS_9allocatorIcEEE37select_on_container_copy_constructionB8ue170006IS2_vvEES2_RKS2_, symObjAddr: 0x539C, symBinAddr: 0x100015EC4, symSize: 0x10 }
  - { offsetInCU: 0xFAD8, offset: 0x5114C, size: 0x8, addend: 0x0, symName: __ZNKSt3__112basic_stringIcNS_11char_traitsIcEENS_9allocatorIcEEE13get_allocatorB8ue170006Ev, symObjAddr: 0x53AC, symBinAddr: 0x100015ED4, symSize: 0x24 }
  - { offsetInCU: 0xFAFE, offset: 0x51172, size: 0x8, addend: 0x0, symName: __ZNSt3__112basic_stringIcNS_11char_traitsIcEENS_9allocatorIcEEEC1B8ue170006ENS_24__uninitialized_size_tagEmRKS4_, symObjAddr: 0x53D0, symBinAddr: 0x100015EF8, symSize: 0x3C }
  - { offsetInCU: 0xFB51, offset: 0x511C5, size: 0x8, addend: 0x0, symName: __ZNSt3__111char_traitsIcE4copyB8ue170006EPcPKcm, symObjAddr: 0x5474, symBinAddr: 0x100015F48, symSize: 0x64 }
  - { offsetInCU: 0xFB90, offset: 0x51204, size: 0x8, addend: 0x0, symName: __ZNSt3__111char_traitsIcE6assignB8ue170006EPcmc, symObjAddr: 0x54D8, symBinAddr: 0x100015FAC, symSize: 0x58 }
  - { offsetInCU: 0xFBCF, offset: 0x51243, size: 0x8, addend: 0x0, symName: __ZNSt3__112basic_stringIcNS_11char_traitsIcEENS_9allocatorIcEEEC2B8ue170006ENS_24__uninitialized_size_tagEmRKS4_, symObjAddr: 0x558C, symBinAddr: 0x100016004, symSize: 0x110 }
  - { offsetInCU: 0xFC4F, offset: 0x512C3, size: 0x8, addend: 0x0, symName: __ZNSt3__117__compressed_pairINS_12basic_stringIcNS_11char_traitsIcEENS_9allocatorIcEEE5__repES5_EC1B8ue170006INS_18__default_init_tagERKS5_EEOT_OT0_, symObjAddr: 0x569C, symBinAddr: 0x100016114, symSize: 0x3C }
  - { offsetInCU: 0xFCA7, offset: 0x5131B, size: 0x8, addend: 0x0, symName: __ZNKSt3__112basic_stringIcNS_11char_traitsIcEENS_9allocatorIcEEE20__throw_length_errorB8ue170006Ev, symObjAddr: 0x5784, symBinAddr: 0x100016150, symSize: 0x1C }
  - { offsetInCU: 0xFCCD, offset: 0x51341, size: 0x8, addend: 0x0, symName: __ZNSt3__112basic_stringIcNS_11char_traitsIcEENS_9allocatorIcEEE13__fits_in_ssoB8ue170006Em, symObjAddr: 0x57A0, symBinAddr: 0x10001616C, symSize: 0x4C }
  - { offsetInCU: 0xFCF1, offset: 0x51365, size: 0x8, addend: 0x0, symName: __ZNSt3__117__compressed_pairINS_12basic_stringIcNS_11char_traitsIcEENS_9allocatorIcEEE5__repES5_EC2B8ue170006INS_18__default_init_tagERKS5_EEOT_OT0_, symObjAddr: 0x5864, symBinAddr: 0x1000161B8, symSize: 0x40 }
  - { offsetInCU: 0xFD49, offset: 0x513BD, size: 0x8, addend: 0x0, symName: __ZNSt3__122__compressed_pair_elemINS_9allocatorIcEELi1ELb1EEC2B8ue170006IRKS2_vEEOT_, symObjAddr: 0x58A4, symBinAddr: 0x1000161F8, symSize: 0x18 }
  - { offsetInCU: 0xFDC2, offset: 0x51436, size: 0x8, addend: 0x0, symName: __ZNKSt3__114__copy_trivialclB8ue170006IKccLi0EEENS_4pairIPT_PT0_EES5_S5_S7_, symObjAddr: 0x5C40, symBinAddr: 0x100016430, symSize: 0x48 }
  - { offsetInCU: 0xFE43, offset: 0x514B7, size: 0x8, addend: 0x0, symName: __ZNSt3__14pairIPKcS2_EC1B8ue170006ERKS2_S5_, symObjAddr: 0x5DBC, symBinAddr: 0x1000165AC, symSize: 0x3C }
  - { offsetInCU: 0xFE89, offset: 0x514FD, size: 0x8, addend: 0x0, symName: __ZNSt3__14pairIPKcS2_EC2B8ue170006ERKS2_S5_, symObjAddr: 0x5DF8, symBinAddr: 0x1000165E8, symSize: 0x34 }
  - { offsetInCU: 0xFECF, offset: 0x51543, size: 0x8, addend: 0x0, symName: __ZNSt3__118__unwrap_iter_implIPKcLb1EE8__unwrapB8ue170006ES2_, symObjAddr: 0x5E2C, symBinAddr: 0x10001661C, symSize: 0x24 }
  - { offsetInCU: 0xFEF2, offset: 0x51566, size: 0x8, addend: 0x0, symName: __ZNSt3__14pairIPKcPcEC1B8ue170006ERKS2_RKS3_, symObjAddr: 0x5FA0, symBinAddr: 0x100016790, symSize: 0x3C }
  - { offsetInCU: 0xFF38, offset: 0x515AC, size: 0x8, addend: 0x0, symName: __ZNSt3__14pairIPKcPcEC2B8ue170006ERKS2_RKS3_, symObjAddr: 0x5FDC, symBinAddr: 0x1000167CC, symSize: 0x34 }
  - { offsetInCU: 0xFF7E, offset: 0x515F2, size: 0x8, addend: 0x0, symName: __ZNSt3__118__unwrap_iter_implIPcLb1EE8__unwrapB8ue170006ES1_, symObjAddr: 0x6010, symBinAddr: 0x100016800, symSize: 0x24 }
  - { offsetInCU: 0xFFA1, offset: 0x51615, size: 0x8, addend: 0x0, symName: __ZNSt3__118__unwrap_iter_implIPKcLb1EE8__rewrapB8ue170006ES2_S2_, symObjAddr: 0x6084, symBinAddr: 0x100016874, symSize: 0x48 }
  - { offsetInCU: 0xFFD2, offset: 0x51646, size: 0x8, addend: 0x0, symName: __ZNSt3__118__unwrap_iter_implIPcLb1EE8__rewrapB8ue170006ES1_S1_, symObjAddr: 0x60CC, symBinAddr: 0x1000168BC, symSize: 0x48 }
  - { offsetInCU: 0x10003, offset: 0x51677, size: 0x8, addend: 0x0, symName: __ZNSt3__114pointer_traitsIPKNS_4pairIKNS_12basic_stringIcNS_11char_traitsIcEENS_9allocatorIcEEEE9ECAirportEEE10pointer_toB8ue170006ERSB_, symObjAddr: 0x61D0, symBinAddr: 0x1000169C0, symSize: 0x14 }
  - { offsetInCU: 0x10026, offset: 0x5169A, size: 0x8, addend: 0x0, symName: __ZNSt3__14pairINS_12basic_stringIcNS_11char_traitsIcEENS_9allocatorIcEEEES6_EC2B8ue170006ERKS6_S9_, symObjAddr: 0x61E4, symBinAddr: 0x1000169D4, symSize: 0x78 }
  - { offsetInCU: 0x1006B, offset: 0x516DF, size: 0x8, addend: 0x0, symName: __ZNSt3__16__treeINS_12__value_typeINS_4pairINS_12basic_stringIcNS_11char_traitsIcEENS_9allocatorIcEEEES8_EEiEENS_19__map_value_compareIS9_SA_NS_4lessIS9_EELb1EEENS6_ISA_EEE12__find_equalIS9_EERPNS_16__tree_node_baseIPvEERPNS_15__tree_end_nodeISL_EERKT_, symObjAddr: 0x625C, symBinAddr: 0x100016A4C, symSize: 0x184 }
  - { offsetInCU: 0x100D7, offset: 0x5174B, size: 0x8, addend: 0x0, symName: __ZNSt3__13mapINS_4pairINS_12basic_stringIcNS_11char_traitsIcEENS_9allocatorIcEEEES7_EEiNS_4lessIS8_EENS5_INS1_IKS8_iEEEEE25__construct_node_with_keyERSB_, symObjAddr: 0x63E0, symBinAddr: 0x100016BD0, symSize: 0x144 }
  - { offsetInCU: 0x1012C, offset: 0x517A0, size: 0x8, addend: 0x0, symName: __ZNSt3__16__treeINS_12__value_typeINS_4pairINS_12basic_stringIcNS_11char_traitsIcEENS_9allocatorIcEEEES8_EEiEENS_19__map_value_compareIS9_SA_NS_4lessIS9_EELb1EEENS6_ISA_EEE16__insert_node_atEPNS_15__tree_end_nodeIPNS_16__tree_node_baseIPvEEEERSL_SL_, symObjAddr: 0x6524, symBinAddr: 0x100016D14, symSize: 0xCC }
  - { offsetInCU: 0x10181, offset: 0x517F5, size: 0x8, addend: 0x0, symName: __ZNKSt3__110unique_ptrINS_11__tree_nodeINS_12__value_typeINS_4pairINS_12basic_stringIcNS_11char_traitsIcEENS_9allocatorIcEEEES9_EEiEEPvEENS_21__map_node_destructorINS7_ISD_EEEEE3getB8ue170006Ev, symObjAddr: 0x65F0, symBinAddr: 0x100016DE0, symSize: 0x28 }
  - { offsetInCU: 0x101A7, offset: 0x5181B, size: 0x8, addend: 0x0, symName: __ZNSt3__110unique_ptrINS_11__tree_nodeINS_12__value_typeINS_4pairINS_12basic_stringIcNS_11char_traitsIcEENS_9allocatorIcEEEES9_EEiEEPvEENS_21__map_node_destructorINS7_ISD_EEEEE7releaseB8ue170006Ev, symObjAddr: 0x6618, symBinAddr: 0x100016E08, symSize: 0x44 }
  - { offsetInCU: 0x101DC, offset: 0x51850, size: 0x8, addend: 0x0, symName: __ZNSt3__110unique_ptrINS_11__tree_nodeINS_12__value_typeINS_4pairINS_12basic_stringIcNS_11char_traitsIcEENS_9allocatorIcEEEES9_EEiEEPvEENS_21__map_node_destructorINS7_ISD_EEEEED1B8ue170006Ev, symObjAddr: 0x665C, symBinAddr: 0x100016E4C, symSize: 0x2C }
  - { offsetInCU: 0x10206, offset: 0x5187A, size: 0x8, addend: 0x0, symName: __ZNKSt3__16__treeINS_12__value_typeINS_4pairINS_12basic_stringIcNS_11char_traitsIcEENS_9allocatorIcEEEES8_EEiEENS_19__map_value_compareIS9_SA_NS_4lessIS9_EELb1EEENS6_ISA_EEE10__root_ptrB8ue170006Ev, symObjAddr: 0x6688, symBinAddr: 0x100016E78, symSize: 0x24 }
  - { offsetInCU: 0x1022C, offset: 0x518A0, size: 0x8, addend: 0x0, symName: __ZNSt3__16__treeINS_12__value_typeINS_4pairINS_12basic_stringIcNS_11char_traitsIcEENS_9allocatorIcEEEES8_EEiEENS_19__map_value_compareIS9_SA_NS_4lessIS9_EELb1EEENS6_ISA_EEE10value_compB8ue170006Ev, symObjAddr: 0x66AC, symBinAddr: 0x100016E9C, symSize: 0x28 }
  - { offsetInCU: 0x10252, offset: 0x518C6, size: 0x8, addend: 0x0, symName: __ZNKSt3__119__map_value_compareINS_4pairINS_12basic_stringIcNS_11char_traitsIcEENS_9allocatorIcEEEES7_EENS_12__value_typeIS8_iEENS_4lessIS8_EELb1EEclB8ue170006ERKS8_RKSA_, symObjAddr: 0x66D4, symBinAddr: 0x100016EC4, symSize: 0x50 }
  - { offsetInCU: 0x10296, offset: 0x5190A, size: 0x8, addend: 0x0, symName: __ZNKSt3__119__map_value_compareINS_4pairINS_12basic_stringIcNS_11char_traitsIcEENS_9allocatorIcEEEES7_EENS_12__value_typeIS8_iEENS_4lessIS8_EELb1EEclB8ue170006ERKSA_RKS8_, symObjAddr: 0x6724, symBinAddr: 0x100016F14, symSize: 0x48 }
  - { offsetInCU: 0x102DA, offset: 0x5194E, size: 0x8, addend: 0x0, symName: __ZNSt3__117__compressed_pairImNS_19__map_value_compareINS_4pairINS_12basic_stringIcNS_11char_traitsIcEENS_9allocatorIcEEEES8_EENS_12__value_typeIS9_iEENS_4lessIS9_EELb1EEEE6secondB8ue170006Ev, symObjAddr: 0x676C, symBinAddr: 0x100016F5C, symSize: 0x24 }
  - { offsetInCU: 0x10300, offset: 0x51974, size: 0x8, addend: 0x0, symName: __ZNSt3__122__compressed_pair_elemINS_19__map_value_compareINS_4pairINS_12basic_stringIcNS_11char_traitsIcEENS_9allocatorIcEEEES8_EENS_12__value_typeIS9_iEENS_4lessIS9_EELb1EEELi1ELb1EE5__getB8ue170006Ev, symObjAddr: 0x6790, symBinAddr: 0x100016F80, symSize: 0x14 }
  - { offsetInCU: 0x10326, offset: 0x5199A, size: 0x8, addend: 0x0, symName: __ZNKSt3__14lessINS_4pairINS_12basic_stringIcNS_11char_traitsIcEENS_9allocatorIcEEEES7_EEEclB8ue170006ERKS8_SB_, symObjAddr: 0x67A4, symBinAddr: 0x100016F94, symSize: 0x34 }
  - { offsetInCU: 0x1036A, offset: 0x519DE, size: 0x8, addend: 0x0, symName: __ZNKSt3__112__value_typeINS_4pairINS_12basic_stringIcNS_11char_traitsIcEENS_9allocatorIcEEEES7_EEiE11__get_valueB8ue170006Ev, symObjAddr: 0x67D8, symBinAddr: 0x100016FC8, symSize: 0x14 }
  - { offsetInCU: 0x10390, offset: 0x51A04, size: 0x8, addend: 0x0, symName: __ZNSt3__116allocator_traitsINS_9allocatorINS_11__tree_nodeINS_12__value_typeINS_4pairINS_12basic_stringIcNS_11char_traitsIcEENS1_IcEEEES9_EEiEEPvEEEEE8allocateB8ue170006ERSE_m, symObjAddr: 0x6874, symBinAddr: 0x100017064, symSize: 0x2C }
  - { offsetInCU: 0x103C3, offset: 0x51A37, size: 0x8, addend: 0x0, symName: __ZNSt3__121__map_node_destructorINS_9allocatorINS_11__tree_nodeINS_12__value_typeINS_4pairINS_12basic_stringIcNS_11char_traitsIcEENS1_IcEEEES9_EEiEEPvEEEEEC1B8ue170006ERSE_, symObjAddr: 0x68A0, symBinAddr: 0x100017090, symSize: 0x34 }
  - { offsetInCU: 0x10401, offset: 0x51A75, size: 0x8, addend: 0x0, symName: __ZNSt3__110unique_ptrINS_11__tree_nodeINS_12__value_typeINS_4pairINS_12basic_stringIcNS_11char_traitsIcEENS_9allocatorIcEEEES9_EEiEEPvEENS_21__map_node_destructorINS7_ISD_EEEEEC1B8ue170006ILb1EvEEPSD_NS_16__dependent_typeINS_27__unique_ptr_deleter_sfinaeISG_EEXT_EE20__good_rval_ref_typeE, symObjAddr: 0x68D4, symBinAddr: 0x1000170C4, symSize: 0x3C }
  - { offsetInCU: 0x10457, offset: 0x51ACB, size: 0x8, addend: 0x0, symName: __ZNSt3__116allocator_traitsINS_9allocatorINS_11__tree_nodeINS_12__value_typeINS_4pairINS_12basic_stringIcNS_11char_traitsIcEENS1_IcEEEES9_EEiEEPvEEEEE9constructB8ue170006IKSA_JRSH_EvEEvRSE_PT_DpOT0_, symObjAddr: 0x6910, symBinAddr: 0x100017100, symSize: 0x34 }
  - { offsetInCU: 0x104AE, offset: 0x51B22, size: 0x8, addend: 0x0, symName: __ZNKSt3__110unique_ptrINS_11__tree_nodeINS_12__value_typeINS_4pairINS_12basic_stringIcNS_11char_traitsIcEENS_9allocatorIcEEEES9_EEiEEPvEENS_21__map_node_destructorINS7_ISD_EEEEEptB8ue170006Ev, symObjAddr: 0x6944, symBinAddr: 0x100017134, symSize: 0x28 }
  - { offsetInCU: 0x104D4, offset: 0x51B48, size: 0x8, addend: 0x0, symName: __ZNSt3__110unique_ptrINS_11__tree_nodeINS_12__value_typeINS_4pairINS_12basic_stringIcNS_11char_traitsIcEENS_9allocatorIcEEEES9_EEiEEPvEENS_21__map_node_destructorINS7_ISD_EEEEE11get_deleterB8ue170006Ev, symObjAddr: 0x696C, symBinAddr: 0x10001715C, symSize: 0x24 }
  - { offsetInCU: 0x104FA, offset: 0x51B6E, size: 0x8, addend: 0x0, symName: __ZNSt3__116allocator_traitsINS_9allocatorINS_11__tree_nodeINS_12__value_typeINS_4pairINS_12basic_stringIcNS_11char_traitsIcEENS1_IcEEEES9_EEiEEPvEEEEE9constructB8ue170006IiJEvEEvRSE_PT_DpOT0_, symObjAddr: 0x6990, symBinAddr: 0x100017180, symSize: 0x2C }
  - { offsetInCU: 0x1053C, offset: 0x51BB0, size: 0x8, addend: 0x0, symName: __ZNSt3__19allocatorINS_11__tree_nodeINS_12__value_typeINS_4pairINS_12basic_stringIcNS_11char_traitsIcEENS0_IcEEEES8_EEiEEPvEEE8allocateB8ue170006Em, symObjAddr: 0x69BC, symBinAddr: 0x1000171AC, symSize: 0x8C }
  - { offsetInCU: 0x1057A, offset: 0x51BEE, size: 0x8, addend: 0x0, symName: __ZNSt3__116allocator_traitsINS_9allocatorINS_11__tree_nodeINS_12__value_typeINS_4pairINS_12basic_stringIcNS_11char_traitsIcEENS1_IcEEEES9_EEiEEPvEEEEE8max_sizeB8ue170006ISE_vEEmRKSE_, symObjAddr: 0x6A48, symBinAddr: 0x100017238, symSize: 0x24 }
  - { offsetInCU: 0x105A8, offset: 0x51C1C, size: 0x8, addend: 0x0, symName: __ZNKSt3__19allocatorINS_11__tree_nodeINS_12__value_typeINS_4pairINS_12basic_stringIcNS_11char_traitsIcEENS0_IcEEEES8_EEiEEPvEEE8max_sizeB8ue170006Ev, symObjAddr: 0x6A6C, symBinAddr: 0x10001725C, symSize: 0x20 }
  - { offsetInCU: 0x105CE, offset: 0x51C42, size: 0x8, addend: 0x0, symName: __ZNSt3__121__map_node_destructorINS_9allocatorINS_11__tree_nodeINS_12__value_typeINS_4pairINS_12basic_stringIcNS_11char_traitsIcEENS1_IcEEEES9_EEiEEPvEEEEEC2B8ue170006ERSE_, symObjAddr: 0x6A8C, symBinAddr: 0x10001727C, symSize: 0x28 }
  - { offsetInCU: 0x10607, offset: 0x51C7B, size: 0x8, addend: 0x0, symName: __ZNSt3__110unique_ptrINS_11__tree_nodeINS_12__value_typeINS_4pairINS_12basic_stringIcNS_11char_traitsIcEENS_9allocatorIcEEEES9_EEiEEPvEENS_21__map_node_destructorINS7_ISD_EEEEEC2B8ue170006ILb1EvEEPSD_NS_16__dependent_typeINS_27__unique_ptr_deleter_sfinaeISG_EEXT_EE20__good_rval_ref_typeE, symObjAddr: 0x6AB4, symBinAddr: 0x1000172A4, symSize: 0x5C }
  - { offsetInCU: 0x10658, offset: 0x51CCC, size: 0x8, addend: 0x0, symName: __ZNSt3__117__compressed_pairIPNS_11__tree_nodeINS_12__value_typeINS_4pairINS_12basic_stringIcNS_11char_traitsIcEENS_9allocatorIcEEEES9_EEiEEPvEENS_21__map_node_destructorINS7_ISD_EEEEEC1B8ue170006IRSE_SH_EEOT_OT0_, symObjAddr: 0x6B10, symBinAddr: 0x100017300, symSize: 0x3C }
  - { offsetInCU: 0x106B0, offset: 0x51D24, size: 0x8, addend: 0x0, symName: __ZNSt3__117__compressed_pairIPNS_11__tree_nodeINS_12__value_typeINS_4pairINS_12basic_stringIcNS_11char_traitsIcEENS_9allocatorIcEEEES9_EEiEEPvEENS_21__map_node_destructorINS7_ISD_EEEEEC2B8ue170006IRSE_SH_EEOT_OT0_, symObjAddr: 0x6B4C, symBinAddr: 0x10001733C, symSize: 0x48 }
  - { offsetInCU: 0x10708, offset: 0x51D7C, size: 0x8, addend: 0x0, symName: __ZNSt3__122__compressed_pair_elemIPNS_11__tree_nodeINS_12__value_typeINS_4pairINS_12basic_stringIcNS_11char_traitsIcEENS_9allocatorIcEEEES9_EEiEEPvEELi0ELb0EEC2B8ue170006IRSE_vEEOT_, symObjAddr: 0x6B94, symBinAddr: 0x100017384, symSize: 0x24 }
  - { offsetInCU: 0x1074A, offset: 0x51DBE, size: 0x8, addend: 0x0, symName: __ZNSt3__122__compressed_pair_elemINS_21__map_node_destructorINS_9allocatorINS_11__tree_nodeINS_12__value_typeINS_4pairINS_12basic_stringIcNS_11char_traitsIcEENS2_IcEEEESA_EEiEEPvEEEEEELi1ELb0EEC2B8ue170006ISG_vEEOT_, symObjAddr: 0x6BB8, symBinAddr: 0x1000173A8, symSize: 0x24 }
  - { offsetInCU: 0x1078C, offset: 0x51E00, size: 0x8, addend: 0x0, symName: __ZNSt3__19allocatorINS_11__tree_nodeINS_12__value_typeINS_4pairINS_12basic_stringIcNS_11char_traitsIcEENS0_IcEEEES8_EEiEEPvEEE9constructB8ue170006IKS9_JRSF_EEEvPT_DpOT0_, symObjAddr: 0x6BDC, symBinAddr: 0x1000173CC, symSize: 0x30 }
  - { offsetInCU: 0x107E2, offset: 0x51E56, size: 0x8, addend: 0x0, symName: __ZNSt3__14pairINS_12basic_stringIcNS_11char_traitsIcEENS_9allocatorIcEEEES6_EC1B8ue170006ERKS7_, symObjAddr: 0x6C0C, symBinAddr: 0x1000173FC, symSize: 0x34 }
  - { offsetInCU: 0x10817, offset: 0x51E8B, size: 0x8, addend: 0x0, symName: __ZNSt3__14pairINS_12basic_stringIcNS_11char_traitsIcEENS_9allocatorIcEEEES6_EC2B8ue170006ERKS7_, symObjAddr: 0x6C40, symBinAddr: 0x100017430, symSize: 0x78 }
  - { offsetInCU: 0x1084C, offset: 0x51EC0, size: 0x8, addend: 0x0, symName: __ZNKSt3__117__compressed_pairIPNS_11__tree_nodeINS_12__value_typeINS_4pairINS_12basic_stringIcNS_11char_traitsIcEENS_9allocatorIcEEEES9_EEiEEPvEENS_21__map_node_destructorINS7_ISD_EEEEE5firstB8ue170006Ev, symObjAddr: 0x6CB8, symBinAddr: 0x1000174A8, symSize: 0x24 }
  - { offsetInCU: 0x10872, offset: 0x51EE6, size: 0x8, addend: 0x0, symName: __ZNKSt3__122__compressed_pair_elemIPNS_11__tree_nodeINS_12__value_typeINS_4pairINS_12basic_stringIcNS_11char_traitsIcEENS_9allocatorIcEEEES9_EEiEEPvEELi0ELb0EE5__getB8ue170006Ev, symObjAddr: 0x6CDC, symBinAddr: 0x1000174CC, symSize: 0x14 }
  - { offsetInCU: 0x10898, offset: 0x51F0C, size: 0x8, addend: 0x0, symName: __ZNSt3__117__compressed_pairIPNS_11__tree_nodeINS_12__value_typeINS_4pairINS_12basic_stringIcNS_11char_traitsIcEENS_9allocatorIcEEEES9_EEiEEPvEENS_21__map_node_destructorINS7_ISD_EEEEE6secondB8ue170006Ev, symObjAddr: 0x6CF0, symBinAddr: 0x1000174E0, symSize: 0x28 }
  - { offsetInCU: 0x108BE, offset: 0x51F32, size: 0x8, addend: 0x0, symName: __ZNSt3__122__compressed_pair_elemINS_21__map_node_destructorINS_9allocatorINS_11__tree_nodeINS_12__value_typeINS_4pairINS_12basic_stringIcNS_11char_traitsIcEENS2_IcEEEESA_EEiEEPvEEEEEELi1ELb0EE5__getB8ue170006Ev, symObjAddr: 0x6D18, symBinAddr: 0x100017508, symSize: 0x14 }
  - { offsetInCU: 0x108E4, offset: 0x51F58, size: 0x8, addend: 0x0, symName: __ZNSt3__19allocatorINS_11__tree_nodeINS_12__value_typeINS_4pairINS_12basic_stringIcNS_11char_traitsIcEENS0_IcEEEES8_EEiEEPvEEE9constructB8ue170006IiJEEEvPT_DpOT0_, symObjAddr: 0x6D2C, symBinAddr: 0x10001751C, symSize: 0x1C }
  - { offsetInCU: 0x10926, offset: 0x51F9A, size: 0x8, addend: 0x0, symName: __ZNSt3__16__treeINS_12__value_typeINS_4pairINS_12basic_stringIcNS_11char_traitsIcEENS_9allocatorIcEEEES8_EEiEENS_19__map_value_compareIS9_SA_NS_4lessIS9_EELb1EEENS6_ISA_EEE4sizeB8ue170006Ev, symObjAddr: 0x6D48, symBinAddr: 0x100017538, symSize: 0x28 }
  - { offsetInCU: 0x1094C, offset: 0x51FC0, size: 0x8, addend: 0x0, symName: __ZNSt3__117__compressed_pairImNS_19__map_value_compareINS_4pairINS_12basic_stringIcNS_11char_traitsIcEENS_9allocatorIcEEEES8_EENS_12__value_typeIS9_iEENS_4lessIS9_EELb1EEEE5firstB8ue170006Ev, symObjAddr: 0x6D70, symBinAddr: 0x100017560, symSize: 0x24 }
  - { offsetInCU: 0x10972, offset: 0x51FE6, size: 0x8, addend: 0x0, symName: __ZNSt3__117__compressed_pairIPNS_11__tree_nodeINS_12__value_typeINS_4pairINS_12basic_stringIcNS_11char_traitsIcEENS_9allocatorIcEEEES9_EEiEEPvEENS_21__map_node_destructorINS7_ISD_EEEEE5firstB8ue170006Ev, symObjAddr: 0x6D94, symBinAddr: 0x100017584, symSize: 0x24 }
  - { offsetInCU: 0x10998, offset: 0x5200C, size: 0x8, addend: 0x0, symName: __ZNSt3__122__compressed_pair_elemIPNS_11__tree_nodeINS_12__value_typeINS_4pairINS_12basic_stringIcNS_11char_traitsIcEENS_9allocatorIcEEEES9_EEiEEPvEELi0ELb0EE5__getB8ue170006Ev, symObjAddr: 0x6DB8, symBinAddr: 0x1000175A8, symSize: 0x14 }
  - { offsetInCU: 0x109BE, offset: 0x52032, size: 0x8, addend: 0x0, symName: __ZNSt3__110unique_ptrINS_11__tree_nodeINS_12__value_typeINS_4pairINS_12basic_stringIcNS_11char_traitsIcEENS_9allocatorIcEEEES9_EEiEEPvEENS_21__map_node_destructorINS7_ISD_EEEEED2B8ue170006Ev, symObjAddr: 0x6DCC, symBinAddr: 0x1000175BC, symSize: 0x30 }
  - { offsetInCU: 0x109E8, offset: 0x5205C, size: 0x8, addend: 0x0, symName: __ZNSt3__110unique_ptrINS_11__tree_nodeINS_12__value_typeINS_4pairINS_12basic_stringIcNS_11char_traitsIcEENS_9allocatorIcEEEES9_EEiEEPvEENS_21__map_node_destructorINS7_ISD_EEEEE5resetB8ue170006EPSD_, symObjAddr: 0x6DFC, symBinAddr: 0x1000175EC, symSize: 0x78 }
  - { offsetInCU: 0x10A2C, offset: 0x520A0, size: 0x8, addend: 0x0, symName: __ZNSt3__121__map_node_destructorINS_9allocatorINS_11__tree_nodeINS_12__value_typeINS_4pairINS_12basic_stringIcNS_11char_traitsIcEENS1_IcEEEES9_EEiEEPvEEEEEclB8ue170006EPSD_, symObjAddr: 0x6E74, symBinAddr: 0x100017664, symSize: 0xE4 }
  - { offsetInCU: 0x10A61, offset: 0x520D5, size: 0x8, addend: 0x0, symName: __ZNSt3__116allocator_traitsINS_9allocatorINS_11__tree_nodeINS_12__value_typeINS_4pairINS_12basic_stringIcNS_11char_traitsIcEENS1_IcEEEES9_EEiEEPvEEEEE7destroyB8ue170006IivvEEvRSE_PT_, symObjAddr: 0x6F58, symBinAddr: 0x100017748, symSize: 0x14 }
  - { offsetInCU: 0x10A9B, offset: 0x5210F, size: 0x8, addend: 0x0, symName: __ZNSt3__116allocator_traitsINS_9allocatorINS_11__tree_nodeINS_12__value_typeINS_4pairINS_12basic_stringIcNS_11char_traitsIcEENS1_IcEEEES9_EEiEEPvEEEEE7destroyB8ue170006IKSA_vvEEvRSE_PT_, symObjAddr: 0x6F6C, symBinAddr: 0x10001775C, symSize: 0x28 }
  - { offsetInCU: 0x10AD5, offset: 0x52149, size: 0x8, addend: 0x0, symName: __ZNKSt3__16__treeINS_12__value_typeINS_4pairINS_12basic_stringIcNS_11char_traitsIcEENS_9allocatorIcEEEES8_EEiEENS_19__map_value_compareIS9_SA_NS_4lessIS9_EELb1EEENS6_ISA_EEE12__find_equalB8ue170006IS9_EERPNS_16__tree_node_baseIPvEERPNS_15__tree_end_nodeISL_EERKT_, symObjAddr: 0x6F94, symBinAddr: 0x100017784, symSize: 0x34 }
  - { offsetInCU: 0x10B22, offset: 0x52196, size: 0x8, addend: 0x0, symName: __ZNSt12out_of_rangeC1B8ue170006EPKc, symObjAddr: 0x702C, symBinAddr: 0x10001781C, symSize: 0x34 }
  - { offsetInCU: 0x10B5A, offset: 0x521CE, size: 0x8, addend: 0x0, symName: __ZNSt12out_of_rangeC2B8ue170006EPKc, symObjAddr: 0x7060, symBinAddr: 0x100017850, symSize: 0x4C }
  - { offsetInCU: 0x10B92, offset: 0x52206, size: 0x8, addend: 0x0, symName: __ZNKSt3__16__treeINS_12__value_typeINS_12basic_stringIcNS_11char_traitsIcEENS_9allocatorIcEEEE9ECAirportEENS_19__map_value_compareIS7_S9_NS_4lessIS7_EELb1EEENS5_IS9_EEE5beginB8ue170006Ev, symObjAddr: 0x70AC, symBinAddr: 0x10001789C, symSize: 0x34 }
  - { offsetInCU: 0x10BB8, offset: 0x5222C, size: 0x8, addend: 0x0, symName: __ZNKSt3__16__treeINS_12__value_typeINS_12basic_stringIcNS_11char_traitsIcEENS_9allocatorIcEEEE9ECAirportEENS_19__map_value_compareIS7_S9_NS_4lessIS7_EELb1EEENS5_IS9_EEE12__begin_nodeB8ue170006Ev, symObjAddr: 0x70E0, symBinAddr: 0x1000178D0, symSize: 0x14 }
  - { offsetInCU: 0x10BDE, offset: 0x52252, size: 0x8, addend: 0x0, symName: __ZNSt3__16vectorINS_12basic_stringIcNS_11char_traitsIcEENS_9allocatorIcEEEENS4_IS6_EEE9__end_capB8ue170006Ev, symObjAddr: 0x70F4, symBinAddr: 0x1000178E4, symSize: 0x28 }
  - { offsetInCU: 0x10C04, offset: 0x52278, size: 0x8, addend: 0x0, symName: __ZNSt3__16vectorINS_12basic_stringIcNS_11char_traitsIcEENS_9allocatorIcEEEENS4_IS6_EEE22__construct_one_at_endB8ue170006IJRKS6_EEEvDpOT_, symObjAddr: 0x711C, symBinAddr: 0x10001790C, symSize: 0x98 }
  - { offsetInCU: 0x10C52, offset: 0x522C6, size: 0x8, addend: 0x0, symName: __ZNSt3__16vectorINS_12basic_stringIcNS_11char_traitsIcEENS_9allocatorIcEEEENS4_IS6_EEE21__push_back_slow_pathIRKS6_EEvOT_, symObjAddr: 0x71B4, symBinAddr: 0x1000179A4, symSize: 0xE0 }
  - { offsetInCU: 0x10CB0, offset: 0x52324, size: 0x8, addend: 0x0, symName: __ZNSt3__117__compressed_pairIPNS_12basic_stringIcNS_11char_traitsIcEENS_9allocatorIcEEEENS4_IS6_EEE5firstB8ue170006Ev, symObjAddr: 0x7294, symBinAddr: 0x100017A84, symSize: 0x24 }
  - { offsetInCU: 0x10CD6, offset: 0x5234A, size: 0x8, addend: 0x0, symName: __ZNSt3__122__compressed_pair_elemIPNS_12basic_stringIcNS_11char_traitsIcEENS_9allocatorIcEEEELi0ELb0EE5__getB8ue170006Ev, symObjAddr: 0x72B8, symBinAddr: 0x100017AA8, symSize: 0x14 }
  - { offsetInCU: 0x10D15, offset: 0x52389, size: 0x8, addend: 0x0, symName: __ZNSt3__16vectorINS_12basic_stringIcNS_11char_traitsIcEENS_9allocatorIcEEEENS4_IS6_EEE21_ConstructTransactionC1B8ue170006ERS8_m, symObjAddr: 0x72CC, symBinAddr: 0x100017ABC, symSize: 0x3C }
  - { offsetInCU: 0x10D5D, offset: 0x523D1, size: 0x8, addend: 0x0, symName: __ZNSt3__116allocator_traitsINS_9allocatorINS_12basic_stringIcNS_11char_traitsIcEENS1_IcEEEEEEE9constructB8ue170006IS6_JRKS6_EvEEvRS7_PT_DpOT0_, symObjAddr: 0x7308, symBinAddr: 0x100017AF8, symSize: 0x34 }
  - { offsetInCU: 0x10DB4, offset: 0x52428, size: 0x8, addend: 0x0, symName: __ZNSt3__16vectorINS_12basic_stringIcNS_11char_traitsIcEENS_9allocatorIcEEEENS4_IS6_EEE21_ConstructTransactionD1B8ue170006Ev, symObjAddr: 0x7378, symBinAddr: 0x100017B2C, symSize: 0x2C }
  - { offsetInCU: 0x10DDE, offset: 0x52452, size: 0x8, addend: 0x0, symName: __ZNSt3__16vectorINS_12basic_stringIcNS_11char_traitsIcEENS_9allocatorIcEEEENS4_IS6_EEE21_ConstructTransactionC2B8ue170006ERS8_m, symObjAddr: 0x73A4, symBinAddr: 0x100017B58, symSize: 0x4C }
  - { offsetInCU: 0x10E26, offset: 0x5249A, size: 0x8, addend: 0x0, symName: __ZNSt3__19allocatorINS_12basic_stringIcNS_11char_traitsIcEENS0_IcEEEEE9constructB8ue170006IS5_JRKS5_EEEvPT_DpOT0_, symObjAddr: 0x73F0, symBinAddr: 0x100017BA4, symSize: 0x30 }
  - { offsetInCU: 0x10E7C, offset: 0x524F0, size: 0x8, addend: 0x0, symName: __ZNSt3__16vectorINS_12basic_stringIcNS_11char_traitsIcEENS_9allocatorIcEEEENS4_IS6_EEE21_ConstructTransactionD2B8ue170006Ev, symObjAddr: 0x7458, symBinAddr: 0x100017BD4, symSize: 0x20 }
  - { offsetInCU: 0x10EA5, offset: 0x52519, size: 0x8, addend: 0x0, symName: __ZNKSt3__16vectorINS_12basic_stringIcNS_11char_traitsIcEENS_9allocatorIcEEEENS4_IS6_EEE11__recommendB8ue170006Em, symObjAddr: 0x7478, symBinAddr: 0x100017BF4, symSize: 0xB4 }
  - { offsetInCU: 0x10EFA, offset: 0x5256E, size: 0x8, addend: 0x0, symName: __ZNSt3__114__split_bufferINS_12basic_stringIcNS_11char_traitsIcEENS_9allocatorIcEEEERNS4_IS6_EEEC1EmmS8_, symObjAddr: 0x7554, symBinAddr: 0x100017CA8, symSize: 0x44 }
  - { offsetInCU: 0x10F50, offset: 0x525C4, size: 0x8, addend: 0x0, symName: __ZNSt3__114__split_bufferINS_12basic_stringIcNS_11char_traitsIcEENS_9allocatorIcEEEERNS4_IS6_EEED1Ev, symObjAddr: 0x76A8, symBinAddr: 0x100017DFC, symSize: 0x2C }
  - { offsetInCU: 0x10F7B, offset: 0x525EF, size: 0x8, addend: 0x0, symName: __ZNKSt3__16vectorINS_12basic_stringIcNS_11char_traitsIcEENS_9allocatorIcEEEENS4_IS6_EEE8max_sizeEv, symObjAddr: 0x76D4, symBinAddr: 0x100017E28, symSize: 0x74 }
  - { offsetInCU: 0x10FA3, offset: 0x52617, size: 0x8, addend: 0x0, symName: __ZNKSt3__16vectorINS_12basic_stringIcNS_11char_traitsIcEENS_9allocatorIcEEEENS4_IS6_EEE20__throw_length_errorB8ue170006Ev, symObjAddr: 0x7748, symBinAddr: 0x100017E9C, symSize: 0x1C }
  - { offsetInCU: 0x10FD3, offset: 0x52647, size: 0x8, addend: 0x0, symName: __ZNSt3__116allocator_traitsINS_9allocatorINS_12basic_stringIcNS_11char_traitsIcEENS1_IcEEEEEEE8max_sizeB8ue170006IS7_vEEmRKS7_, symObjAddr: 0x77D0, symBinAddr: 0x100017EB8, symSize: 0x24 }
  - { offsetInCU: 0x11001, offset: 0x52675, size: 0x8, addend: 0x0, symName: __ZNKSt3__16vectorINS_12basic_stringIcNS_11char_traitsIcEENS_9allocatorIcEEEENS4_IS6_EEE7__allocB8ue170006Ev, symObjAddr: 0x77F4, symBinAddr: 0x100017EDC, symSize: 0x28 }
  - { offsetInCU: 0x11027, offset: 0x5269B, size: 0x8, addend: 0x0, symName: __ZNKSt3__19allocatorINS_12basic_stringIcNS_11char_traitsIcEENS0_IcEEEEE8max_sizeB8ue170006Ev, symObjAddr: 0x7830, symBinAddr: 0x100017F04, symSize: 0x18 }
  - { offsetInCU: 0x1104D, offset: 0x526C1, size: 0x8, addend: 0x0, symName: __ZNKSt3__117__compressed_pairIPNS_12basic_stringIcNS_11char_traitsIcEENS_9allocatorIcEEEENS4_IS6_EEE6secondB8ue170006Ev, symObjAddr: 0x7848, symBinAddr: 0x100017F1C, symSize: 0x24 }
  - { offsetInCU: 0x11073, offset: 0x526E7, size: 0x8, addend: 0x0, symName: __ZNKSt3__122__compressed_pair_elemINS_9allocatorINS_12basic_stringIcNS_11char_traitsIcEENS1_IcEEEEEELi1ELb1EE5__getB8ue170006Ev, symObjAddr: 0x786C, symBinAddr: 0x100017F40, symSize: 0x14 }
  - { offsetInCU: 0x11099, offset: 0x5270D, size: 0x8, addend: 0x0, symName: __ZNSt3__114__split_bufferINS_12basic_stringIcNS_11char_traitsIcEENS_9allocatorIcEEEERNS4_IS6_EEEC2EmmS8_, symObjAddr: 0x793C, symBinAddr: 0x100017F54, symSize: 0xE0 }
  - { offsetInCU: 0x11112, offset: 0x52786, size: 0x8, addend: 0x0, symName: __ZNSt3__117__compressed_pairIPNS_12basic_stringIcNS_11char_traitsIcEENS_9allocatorIcEEEERNS4_IS6_EEEC1B8ue170006IDnS9_EEOT_OT0_, symObjAddr: 0x7A1C, symBinAddr: 0x100018034, symSize: 0x3C }
  - { offsetInCU: 0x1116A, offset: 0x527DE, size: 0x8, addend: 0x0, symName: __ZNSt3__114__split_bufferINS_12basic_stringIcNS_11char_traitsIcEENS_9allocatorIcEEEERNS4_IS6_EEE7__allocB8ue170006Ev, symObjAddr: 0x7A98, symBinAddr: 0x1000180B0, symSize: 0x28 }
  - { offsetInCU: 0x11190, offset: 0x52804, size: 0x8, addend: 0x0, symName: __ZNSt3__114__split_bufferINS_12basic_stringIcNS_11char_traitsIcEENS_9allocatorIcEEEERNS4_IS6_EEE9__end_capB8ue170006Ev, symObjAddr: 0x7AC0, symBinAddr: 0x1000180D8, symSize: 0x28 }
  - { offsetInCU: 0x111B6, offset: 0x5282A, size: 0x8, addend: 0x0, symName: __ZNSt3__117__compressed_pairIPNS_12basic_stringIcNS_11char_traitsIcEENS_9allocatorIcEEEERNS4_IS6_EEEC2B8ue170006IDnS9_EEOT_OT0_, symObjAddr: 0x7AE8, symBinAddr: 0x100018100, symSize: 0x48 }
  - { offsetInCU: 0x1120E, offset: 0x52882, size: 0x8, addend: 0x0, symName: __ZNSt3__122__compressed_pair_elemIRNS_9allocatorINS_12basic_stringIcNS_11char_traitsIcEENS1_IcEEEEEELi1ELb0EEC2B8ue170006IS8_vEEOT_, symObjAddr: 0x7B4C, symBinAddr: 0x100018148, symSize: 0x20 }
  - { offsetInCU: 0x11250, offset: 0x528C4, size: 0x8, addend: 0x0, symName: __ZNSt3__19allocatorINS_12basic_stringIcNS_11char_traitsIcEENS0_IcEEEEE8allocateB8ue170006Em, symObjAddr: 0x7B6C, symBinAddr: 0x100018168, symSize: 0x8C }
  - { offsetInCU: 0x11284, offset: 0x528F8, size: 0x8, addend: 0x0, symName: __ZNSt3__117__compressed_pairIPNS_12basic_stringIcNS_11char_traitsIcEENS_9allocatorIcEEEERNS4_IS6_EEE6secondB8ue170006Ev, symObjAddr: 0x7BF8, symBinAddr: 0x1000181F4, symSize: 0x28 }
  - { offsetInCU: 0x112AA, offset: 0x5291E, size: 0x8, addend: 0x0, symName: __ZNSt3__122__compressed_pair_elemIRNS_9allocatorINS_12basic_stringIcNS_11char_traitsIcEENS1_IcEEEEEELi1ELb0EE5__getB8ue170006Ev, symObjAddr: 0x7C20, symBinAddr: 0x10001821C, symSize: 0x18 }
  - { offsetInCU: 0x112D0, offset: 0x52944, size: 0x8, addend: 0x0, symName: __ZNSt3__117__compressed_pairIPNS_12basic_stringIcNS_11char_traitsIcEENS_9allocatorIcEEEERNS4_IS6_EEE5firstB8ue170006Ev, symObjAddr: 0x7C38, symBinAddr: 0x100018234, symSize: 0x24 }
  - { offsetInCU: 0x112F6, offset: 0x5296A, size: 0x8, addend: 0x0, symName: __ZNSt3__116reverse_iteratorIPNS_12basic_stringIcNS_11char_traitsIcEENS_9allocatorIcEEEEEC1B8ue170006ES7_, symObjAddr: 0x7E64, symBinAddr: 0x10001838C, symSize: 0x34 }
  - { offsetInCU: 0x1132E, offset: 0x529A2, size: 0x8, addend: 0x0, symName: __ZNKSt3__116reverse_iteratorIPNS_12basic_stringIcNS_11char_traitsIcEENS_9allocatorIcEEEEE4baseB8ue170006Ev, symObjAddr: 0x7E98, symBinAddr: 0x1000183C0, symSize: 0x18 }
  - { offsetInCU: 0x11354, offset: 0x529C8, size: 0x8, addend: 0x0, symName: __ZNKSt3__16vectorINS_12basic_stringIcNS_11char_traitsIcEENS_9allocatorIcEEEENS4_IS6_EEE14__annotate_newB8ue170006Em, symObjAddr: 0x7EEC, symBinAddr: 0x100018414, symSize: 0xC8 }
  - { offsetInCU: 0x11389, offset: 0x529FD, size: 0x8, addend: 0x0, symName: __ZNSt3__129_AllocatorDestroyRangeReverseINS_9allocatorINS_12basic_stringIcNS_11char_traitsIcEENS1_IcEEEEEENS_16reverse_iteratorIPS6_EEEC1B8ue170006ERS7_RSA_SD_, symObjAddr: 0x8048, symBinAddr: 0x100018528, symSize: 0x44 }
  - { offsetInCU: 0x113E0, offset: 0x52A54, size: 0x8, addend: 0x0, symName: __ZNKSt3__116reverse_iteratorIPNS_12basic_stringIcNS_11char_traitsIcEENS_9allocatorIcEEEEEdeB8ue170006Ev, symObjAddr: 0x80F8, symBinAddr: 0x1000185D8, symSize: 0x28 }
  - { offsetInCU: 0x11414, offset: 0x52A88, size: 0x8, addend: 0x0, symName: __ZNSt3__116reverse_iteratorIPNS_12basic_stringIcNS_11char_traitsIcEENS_9allocatorIcEEEEEppB8ue170006Ev, symObjAddr: 0x8120, symBinAddr: 0x100018600, symSize: 0x20 }
  - { offsetInCU: 0x1143A, offset: 0x52AAE, size: 0x8, addend: 0x0, symName: __ZNSt3__128__exception_guard_exceptionsINS_29_AllocatorDestroyRangeReverseINS_9allocatorINS_12basic_stringIcNS_11char_traitsIcEENS2_IcEEEEEENS_16reverse_iteratorIPS7_EEEEE10__completeB8ue170006Ev, symObjAddr: 0x8140, symBinAddr: 0x100018620, symSize: 0x1C }
  - { offsetInCU: 0x11460, offset: 0x52AD4, size: 0x8, addend: 0x0, symName: __ZNSt3__128__exception_guard_exceptionsINS_29_AllocatorDestroyRangeReverseINS_9allocatorINS_12basic_stringIcNS_11char_traitsIcEENS2_IcEEEEEENS_16reverse_iteratorIPS7_EEEEED1B8ue170006Ev, symObjAddr: 0x815C, symBinAddr: 0x10001863C, symSize: 0x2C }
  - { offsetInCU: 0x1148A, offset: 0x52AFE, size: 0x8, addend: 0x0, symName: __ZNSt3__128__exception_guard_exceptionsINS_29_AllocatorDestroyRangeReverseINS_9allocatorINS_12basic_stringIcNS_11char_traitsIcEENS2_IcEEEEEENS_16reverse_iteratorIPS7_EEEEEC1B8ue170006ESC_, symObjAddr: 0x8188, symBinAddr: 0x100018668, symSize: 0x34 }
  - { offsetInCU: 0x114C3, offset: 0x52B37, size: 0x8, addend: 0x0, symName: __ZNSt3__128__exception_guard_exceptionsINS_29_AllocatorDestroyRangeReverseINS_9allocatorINS_12basic_stringIcNS_11char_traitsIcEENS2_IcEEEEEENS_16reverse_iteratorIPS7_EEEEEC2B8ue170006ESC_, symObjAddr: 0x81BC, symBinAddr: 0x10001869C, symSize: 0x30 }
  - { offsetInCU: 0x114FC, offset: 0x52B70, size: 0x8, addend: 0x0, symName: __ZNSt3__129_AllocatorDestroyRangeReverseINS_9allocatorINS_12basic_stringIcNS_11char_traitsIcEENS1_IcEEEEEENS_16reverse_iteratorIPS6_EEEC2B8ue170006ERS7_RSA_SD_, symObjAddr: 0x81EC, symBinAddr: 0x1000186CC, symSize: 0x38 }
  - { offsetInCU: 0x11558, offset: 0x52BCC, size: 0x8, addend: 0x0, symName: __ZNSt3__119__to_address_helperINS_16reverse_iteratorIPNS_12basic_stringIcNS_11char_traitsIcEENS_9allocatorIcEEEEEEvE6__callB8ue170006ERKS9_, symObjAddr: 0x8224, symBinAddr: 0x100018704, symSize: 0x4C }
  - { offsetInCU: 0x1157B, offset: 0x52BEF, size: 0x8, addend: 0x0, symName: __ZNKSt3__116reverse_iteratorIPNS_12basic_stringIcNS_11char_traitsIcEENS_9allocatorIcEEEEEptB8ue170006Ev, symObjAddr: 0x8270, symBinAddr: 0x100018750, symSize: 0x24 }
  - { offsetInCU: 0x115A1, offset: 0x52C15, size: 0x8, addend: 0x0, symName: __ZNSt3__128__exception_guard_exceptionsINS_29_AllocatorDestroyRangeReverseINS_9allocatorINS_12basic_stringIcNS_11char_traitsIcEENS2_IcEEEEEENS_16reverse_iteratorIPS7_EEEEED2B8ue170006Ev, symObjAddr: 0x8294, symBinAddr: 0x100018774, symSize: 0x48 }
  - { offsetInCU: 0x115CB, offset: 0x52C3F, size: 0x8, addend: 0x0, symName: __ZNKSt3__129_AllocatorDestroyRangeReverseINS_9allocatorINS_12basic_stringIcNS_11char_traitsIcEENS1_IcEEEEEENS_16reverse_iteratorIPS6_EEEclB8ue170006Ev, symObjAddr: 0x82DC, symBinAddr: 0x1000187BC, symSize: 0xB4 }
  - { offsetInCU: 0x115F2, offset: 0x52C66, size: 0x8, addend: 0x0, symName: __ZNSt3__116reverse_iteratorINS0_IPNS_12basic_stringIcNS_11char_traitsIcEENS_9allocatorIcEEEEEEEC1B8ue170006ES8_, symObjAddr: 0x8400, symBinAddr: 0x1000188E0, symSize: 0x3C }
  - { offsetInCU: 0x1162A, offset: 0x52C9E, size: 0x8, addend: 0x0, symName: __ZNSt3__116reverse_iteratorINS0_IPNS_12basic_stringIcNS_11char_traitsIcEENS_9allocatorIcEEEEEEEppB8ue170006Ev, symObjAddr: 0x84EC, symBinAddr: 0x1000189A0, symSize: 0x30 }
  - { offsetInCU: 0x11650, offset: 0x52CC4, size: 0x8, addend: 0x0, symName: __ZNKSt3__116reverse_iteratorINS0_IPNS_12basic_stringIcNS_11char_traitsIcEENS_9allocatorIcEEEEEEE4baseB8ue170006Ev, symObjAddr: 0x851C, symBinAddr: 0x1000189D0, symSize: 0x24 }
  - { offsetInCU: 0x1167B, offset: 0x52CEF, size: 0x8, addend: 0x0, symName: __ZNSt3__119__to_address_helperINS_16reverse_iteratorINS1_IPNS_12basic_stringIcNS_11char_traitsIcEENS_9allocatorIcEEEEEEEEvE6__callB8ue170006ERKSA_, symObjAddr: 0x8568, symBinAddr: 0x1000189F4, symSize: 0x4C }
  - { offsetInCU: 0x1169E, offset: 0x52D12, size: 0x8, addend: 0x0, symName: __ZNKSt3__116reverse_iteratorINS0_IPNS_12basic_stringIcNS_11char_traitsIcEENS_9allocatorIcEEEEEEEptB8ue170006Ev, symObjAddr: 0x85B4, symBinAddr: 0x100018A40, symSize: 0x24 }
  - { offsetInCU: 0x116C4, offset: 0x52D38, size: 0x8, addend: 0x0, symName: __ZNKSt3__116reverse_iteratorINS0_IPNS_12basic_stringIcNS_11char_traitsIcEENS_9allocatorIcEEEEEEEdeB8ue170006Ev, symObjAddr: 0x85D8, symBinAddr: 0x100018A64, symSize: 0x34 }
  - { offsetInCU: 0x116F8, offset: 0x52D6C, size: 0x8, addend: 0x0, symName: __ZNSt3__116reverse_iteratorIPNS_12basic_stringIcNS_11char_traitsIcEENS_9allocatorIcEEEEEmmB8ue170006Ev, symObjAddr: 0x860C, symBinAddr: 0x100018A98, symSize: 0x20 }
  - { offsetInCU: 0x1171E, offset: 0x52D92, size: 0x8, addend: 0x0, symName: __ZNSt3__116reverse_iteratorINS0_IPNS_12basic_stringIcNS_11char_traitsIcEENS_9allocatorIcEEEEEEEC2B8ue170006ES8_, symObjAddr: 0x862C, symBinAddr: 0x100018AB8, symSize: 0x2C }
  - { offsetInCU: 0x11756, offset: 0x52DCA, size: 0x8, addend: 0x0, symName: __ZNSt3__116reverse_iteratorIPNS_12basic_stringIcNS_11char_traitsIcEENS_9allocatorIcEEEEEC2B8ue170006ES7_, symObjAddr: 0x8658, symBinAddr: 0x100018AE4, symSize: 0x28 }
  - { offsetInCU: 0x1178E, offset: 0x52E02, size: 0x8, addend: 0x0, symName: __ZNSt3__114__split_bufferINS_12basic_stringIcNS_11char_traitsIcEENS_9allocatorIcEEEERNS4_IS6_EEED2Ev, symObjAddr: 0x8680, symBinAddr: 0x100018B0C, symSize: 0x80 }
  - { offsetInCU: 0x117BA, offset: 0x52E2E, size: 0x8, addend: 0x0, symName: __ZNSt3__114__split_bufferINS_12basic_stringIcNS_11char_traitsIcEENS_9allocatorIcEEEERNS4_IS6_EEE5clearB8ue170006Ev, symObjAddr: 0x8700, symBinAddr: 0x100018B8C, symSize: 0x28 }
  - { offsetInCU: 0x117E0, offset: 0x52E54, size: 0x8, addend: 0x0, symName: __ZNKSt3__114__split_bufferINS_12basic_stringIcNS_11char_traitsIcEENS_9allocatorIcEEEERNS4_IS6_EEE8capacityB8ue170006Ev, symObjAddr: 0x875C, symBinAddr: 0x100018BB4, symSize: 0x40 }
  - { offsetInCU: 0x11806, offset: 0x52E7A, size: 0x8, addend: 0x0, symName: __ZNSt3__114__split_bufferINS_12basic_stringIcNS_11char_traitsIcEENS_9allocatorIcEEEERNS4_IS6_EEE17__destruct_at_endB8ue170006EPS6_, symObjAddr: 0x879C, symBinAddr: 0x100018BF4, symSize: 0x2C }
  - { offsetInCU: 0x11839, offset: 0x52EAD, size: 0x8, addend: 0x0, symName: __ZNSt3__114__split_bufferINS_12basic_stringIcNS_11char_traitsIcEENS_9allocatorIcEEEERNS4_IS6_EEE17__destruct_at_endB8ue170006EPS6_NS_17integral_constantIbLb0EEE, symObjAddr: 0x87C8, symBinAddr: 0x100018C20, symSize: 0x94 }
  - { offsetInCU: 0x1187A, offset: 0x52EEE, size: 0x8, addend: 0x0, symName: __ZNKSt3__114__split_bufferINS_12basic_stringIcNS_11char_traitsIcEENS_9allocatorIcEEEERNS4_IS6_EEE9__end_capB8ue170006Ev, symObjAddr: 0x88D0, symBinAddr: 0x100018CB4, symSize: 0x28 }
  - { offsetInCU: 0x118A0, offset: 0x52F14, size: 0x8, addend: 0x0, symName: __ZNKSt3__117__compressed_pairIPNS_12basic_stringIcNS_11char_traitsIcEENS_9allocatorIcEEEERNS4_IS6_EEE5firstB8ue170006Ev, symObjAddr: 0x88F8, symBinAddr: 0x100018CDC, symSize: 0x24 }
  - { offsetInCU: 0x481A, offset: 0x578D9, size: 0x8, addend: 0x0, symName: __ZN17ECConsoleUIButtonC2EiiiiRKNSt3__112basic_stringIcNS0_11char_traitsIcEENS0_9allocatorIcEEEE, symObjAddr: 0x0, symBinAddr: 0x100018D00, symSize: 0xA8 }
  - { offsetInCU: 0x488C, offset: 0x5794B, size: 0x8, addend: 0x0, symName: __ZN15ECConsoleUIItemC2Eiiii, symObjAddr: 0xA8, symBinAddr: 0x100018DA8, symSize: 0x54 }
  - { offsetInCU: 0x48EE, offset: 0x579AD, size: 0x8, addend: 0x0, symName: __ZN15ECConsoleUIItemD2Ev, symObjAddr: 0xFC, symBinAddr: 0x100018DFC, symSize: 0x14 }
  - { offsetInCU: 0x4918, offset: 0x579D7, size: 0x8, addend: 0x0, symName: __ZN17ECConsoleUIButtonC1EiiiiRKNSt3__112basic_stringIcNS0_11char_traitsIcEENS0_9allocatorIcEEEE, symObjAddr: 0x11C, symBinAddr: 0x100018E10, symSize: 0x54 }
  - { offsetInCU: 0x498A, offset: 0x57A49, size: 0x8, addend: 0x0, symName: __ZNK17ECConsoleUIButton12GetTextAtRowEi, symObjAddr: 0x170, symBinAddr: 0x100018E64, symSize: 0x414 }
  - { offsetInCU: 0x4A34, offset: 0x57AF3, size: 0x8, addend: 0x0, symName: __ZNK15ECConsoleUIItem8GetWidthEv, symObjAddr: 0x5E4, symBinAddr: 0x100019278, symSize: 0x48 }
  - { offsetInCU: 0x4A5A, offset: 0x57B19, size: 0x8, addend: 0x0, symName: __ZNSt3__112basic_stringIcNS_11char_traitsIcEENS_9allocatorIcEEEpLB8ue170006ERKS5_, symObjAddr: 0x680, symBinAddr: 0x1000192C0, symSize: 0x2C }
  - { offsetInCU: 0x4A8F, offset: 0x57B4E, size: 0x8, addend: 0x0, symName: __ZNK17ECConsoleUIButton20GetHighlightPositionERiS0_, symObjAddr: 0x714, symBinAddr: 0x1000192EC, symSize: 0x1C }
  - { offsetInCU: 0x4AD3, offset: 0x57B92, size: 0x8, addend: 0x0, symName: __ZN17ECConsoleUIButton11HdlKeyEnterEv, symObjAddr: 0x730, symBinAddr: 0x100019308, symSize: 0x10 }
  - { offsetInCU: 0x4AFB, offset: 0x57BBA, size: 0x8, addend: 0x0, symName: __ZN17ECConsoleUIButtonD1Ev, symObjAddr: 0x740, symBinAddr: 0x100019318, symSize: 0x2C }
  - { offsetInCU: 0x4B27, offset: 0x57BE6, size: 0x8, addend: 0x0, symName: __ZN17ECConsoleUIButtonD0Ev, symObjAddr: 0x76C, symBinAddr: 0x100019344, symSize: 0x58 }
  - { offsetInCU: 0x4B53, offset: 0x57C12, size: 0x8, addend: 0x0, symName: __ZNK17ECConsoleUIButton14IsHandlingKeysEv, symObjAddr: 0x7C4, symBinAddr: 0x10001939C, symSize: 0x18 }
  - { offsetInCU: 0x4B79, offset: 0x57C38, size: 0x8, addend: 0x0, symName: __ZN15ECConsoleUIItem8HdlKeyUpEv, symObjAddr: 0x7DC, symBinAddr: 0x1000193B4, symSize: 0x10 }
  - { offsetInCU: 0x4B9F, offset: 0x57C5E, size: 0x8, addend: 0x0, symName: __ZN15ECConsoleUIItem10HdlKeyDownEv, symObjAddr: 0x7EC, symBinAddr: 0x1000193C4, symSize: 0x10 }
  - { offsetInCU: 0x4BC5, offset: 0x57C84, size: 0x8, addend: 0x0, symName: __ZN15ECConsoleUIItem11HdlOtherKeyEv, symObjAddr: 0x7FC, symBinAddr: 0x1000193D4, symSize: 0x10 }
  - { offsetInCU: 0x4BEB, offset: 0x57CAA, size: 0x8, addend: 0x0, symName: __ZNK17ECConsoleUIButton6GetYULEv, symObjAddr: 0x80C, symBinAddr: 0x1000193E4, symSize: 0x28 }
  - { offsetInCU: 0x4C11, offset: 0x57CD0, size: 0x8, addend: 0x0, symName: __ZNK17ECConsoleUIButton6GetYLREv, symObjAddr: 0x834, symBinAddr: 0x10001940C, symSize: 0x28 }
  - { offsetInCU: 0x4C37, offset: 0x57CF6, size: 0x8, addend: 0x0, symName: __ZNK17ECConsoleUIButton9GetHeightEv, symObjAddr: 0x85C, symBinAddr: 0x100019434, symSize: 0x58 }
  - { offsetInCU: 0x4C5D, offset: 0x57D1C, size: 0x8, addend: 0x0, symName: __ZN15ECConsoleUIItemD1Ev, symObjAddr: 0x8B4, symBinAddr: 0x10001948C, symSize: 0x14 }
  - { offsetInCU: 0x4C87, offset: 0x57D46, size: 0x8, addend: 0x0, symName: __ZN15ECConsoleUIItemD0Ev, symObjAddr: 0x8C8, symBinAddr: 0x1000194A0, symSize: 0xC }
  - { offsetInCU: 0x4CB1, offset: 0x57D70, size: 0x8, addend: 0x0, symName: __ZNK15ECConsoleUIItem14IsHandlingKeysEv, symObjAddr: 0x8D4, symBinAddr: 0x1000194AC, symSize: 0x18 }
  - { offsetInCU: 0x4CD7, offset: 0x57D96, size: 0x8, addend: 0x0, symName: __ZN15ECConsoleUIItem11HdlKeyEnterEv, symObjAddr: 0x8EC, symBinAddr: 0x1000194C4, symSize: 0x10 }
  - { offsetInCU: 0x4CFD, offset: 0x57DBC, size: 0x8, addend: 0x0, symName: __ZNK15ECConsoleUIItem6GetXLREv, symObjAddr: 0x8FC, symBinAddr: 0x1000194D4, symSize: 0x18 }
  - { offsetInCU: 0x4D23, offset: 0x57DE2, size: 0x8, addend: 0x0, symName: __ZNK15ECConsoleUIItem6GetXULEv, symObjAddr: 0x914, symBinAddr: 0x1000194EC, symSize: 0x18 }
  - { offsetInCU: 0x4D49, offset: 0x57E08, size: 0x8, addend: 0x0, symName: __ZN17ECConsoleUIButtonD2Ev, symObjAddr: 0x92C, symBinAddr: 0x100019504, symSize: 0x70 }
  - { offsetInCU: 0x4D75, offset: 0x57E34, size: 0x8, addend: 0x0, symName: __ZNK15ECConsoleUIItem6GetYULEv, symObjAddr: 0x99C, symBinAddr: 0x100019574, symSize: 0x18 }
  - { offsetInCU: 0x4D9B, offset: 0x57E5A, size: 0x8, addend: 0x0, symName: __ZNK15ECConsoleUIItem6GetYLREv, symObjAddr: 0x9B4, symBinAddr: 0x10001958C, symSize: 0x18 }
  - { offsetInCU: 0x4DC1, offset: 0x57E80, size: 0x8, addend: 0x0, symName: __ZNSt3__112basic_stringIcNS_11char_traitsIcEENS_9allocatorIcEEE6appendB8ue170006ERKS5_, symObjAddr: 0x106C, symBinAddr: 0x1000195A4, symSize: 0x4C }
  - { offsetInCU: 0x5A9E, offset: 0x5D96C, size: 0x8, addend: 0x0, symName: __ZN18ECConsoleUIListBoxC2Eiiii, symObjAddr: 0x0, symBinAddr: 0x1000195F0, symSize: 0xC8 }
  - { offsetInCU: 0x5B02, offset: 0x5D9D0, size: 0x8, addend: 0x0, symName: __ZN18ECConsoleUIListBoxC1Eiiii, symObjAddr: 0x168, symBinAddr: 0x1000196B8, symSize: 0x4C }
  - { offsetInCU: 0x5B66, offset: 0x5DA34, size: 0x8, addend: 0x0, symName: __ZN18ECConsoleUIListBox9AddChoiceERKNSt3__112basic_stringIcNS0_11char_traitsIcEENS0_9allocatorIcEEEE, symObjAddr: 0x1B4, symBinAddr: 0x100019704, symSize: 0x30 }
  - { offsetInCU: 0x5B9C, offset: 0x5DA6A, size: 0x8, addend: 0x0, symName: __ZN18ECConsoleUIListBox6ChooseEi, symObjAddr: 0x250, symBinAddr: 0x100019734, symSize: 0x74 }
  - { offsetInCU: 0x5BD2, offset: 0x5DAA0, size: 0x8, addend: 0x0, symName: __ZNK18ECConsoleUIListBox12GetTextAtRowEi, symObjAddr: 0x2EC, symBinAddr: 0x1000197A8, symSize: 0xD4 }
  - { offsetInCU: 0x5C08, offset: 0x5DAD6, size: 0x8, addend: 0x0, symName: __ZNKSt3__16vectorINS_12basic_stringIcNS_11char_traitsIcEENS_9allocatorIcEEEENS4_IS6_EEEixB8ue170006Em, symObjAddr: 0x3F0, symBinAddr: 0x10001987C, symSize: 0x2C }
  - { offsetInCU: 0x5C44, offset: 0x5DB12, size: 0x8, addend: 0x0, symName: __ZNK18ECConsoleUIListBox20GetHighlightPositionERiS0_, symObjAddr: 0x450, symBinAddr: 0x1000198A8, symSize: 0x88 }
  - { offsetInCU: 0x5C88, offset: 0x5DB56, size: 0x8, addend: 0x0, symName: __ZN18ECConsoleUIListBox8HdlKeyUpEv, symObjAddr: 0x520, symBinAddr: 0x100019930, symSize: 0x6C }
  - { offsetInCU: 0x5CB0, offset: 0x5DB7E, size: 0x8, addend: 0x0, symName: __ZN18ECConsoleUIListBox10HdlKeyDownEv, symObjAddr: 0x58C, symBinAddr: 0x10001999C, symSize: 0xA4 }
  - { offsetInCU: 0x5CD8, offset: 0x5DBA6, size: 0x8, addend: 0x0, symName: __ZNK15ECConsoleUIItem9GetHeightEv, symObjAddr: 0x630, symBinAddr: 0x100019A40, symSize: 0x48 }
  - { offsetInCU: 0x5CFE, offset: 0x5DBCC, size: 0x8, addend: 0x0, symName: __ZN18ECConsoleUIListBoxD1Ev, symObjAddr: 0x678, symBinAddr: 0x100019A88, symSize: 0x2C }
  - { offsetInCU: 0x5D2A, offset: 0x5DBF8, size: 0x8, addend: 0x0, symName: __ZN18ECConsoleUIListBoxD0Ev, symObjAddr: 0x6A4, symBinAddr: 0x100019AB4, symSize: 0x58 }
  - { offsetInCU: 0x5D56, offset: 0x5DC24, size: 0x8, addend: 0x0, symName: __ZNK18ECConsoleUIListBox14IsHandlingKeysEv, symObjAddr: 0x6FC, symBinAddr: 0x100019B0C, symSize: 0x18 }
  - { offsetInCU: 0x5D7C, offset: 0x5DC4A, size: 0x8, addend: 0x0, symName: __ZN18ECConsoleUIListBoxD2Ev, symObjAddr: 0x7BC, symBinAddr: 0x100019B24, symSize: 0x70 }
  - { offsetInCU: 0x6365, offset: 0x64012, size: 0x8, addend: 0x0, symName: __ZNSt3__1eqB8ue170006IcNS_11char_traitsIcEENS_9allocatorIcEEEEbRKNS_12basic_stringIT_T0_T1_EEPKS6_, symObjAddr: 0x4E4, symBinAddr: 0x100019F34, symSize: 0xC0 }
  - { offsetInCU: 0x8DFA, offset: 0x66AA7, size: 0x8, addend: 0x0, symName: __ZN20ECConsoleUITextFieldC2EP13ECTextViewImpiii, symObjAddr: 0x0, symBinAddr: 0x100019B94, symSize: 0x100 }
  - { offsetInCU: 0x8E63, offset: 0x66B10, size: 0x8, addend: 0x0, symName: __ZN13ECTextViewImp10SetCursorYEi, symObjAddr: 0x188, symBinAddr: 0x100019C94, symSize: 0x30 }
  - { offsetInCU: 0x8E97, offset: 0x66B44, size: 0x8, addend: 0x0, symName: __ZN20ECConsoleUITextFieldC1EP13ECTextViewImpiii, symObjAddr: 0x1D8, symBinAddr: 0x100019CC4, symSize: 0x4C }
  - { offsetInCU: 0x8EFB, offset: 0x66BA8, size: 0x8, addend: 0x0, symName: __ZNK20ECConsoleUITextField12GetTextAtRowEi, symObjAddr: 0x224, symBinAddr: 0x100019D10, symSize: 0x78 }
  - { offsetInCU: 0x8F31, offset: 0x66BDE, size: 0x8, addend: 0x0, symName: __ZNK20ECConsoleUITextField20GetHighlightPositionERiS0_, symObjAddr: 0x2B4, symBinAddr: 0x100019D88, symSize: 0xC0 }
  - { offsetInCU: 0x8F75, offset: 0x66C22, size: 0x8, addend: 0x0, symName: __ZNK20ECConsoleUITextField7CanEditEv, symObjAddr: 0x3E0, symBinAddr: 0x100019E48, symSize: 0x1C }
  - { offsetInCU: 0x8F9B, offset: 0x66C48, size: 0x8, addend: 0x0, symName: __ZN13ECTextViewImp10SetCursorXEi, symObjAddr: 0x3FC, symBinAddr: 0x100019E64, symSize: 0x30 }
  - { offsetInCU: 0x8FCF, offset: 0x66C7C, size: 0x8, addend: 0x0, symName: __ZN20ECConsoleUITextField11HdlKeyEnterEv, symObjAddr: 0x444, symBinAddr: 0x100019E94, symSize: 0xA0 }
  - { offsetInCU: 0x8FF6, offset: 0x66CA3, size: 0x8, addend: 0x0, symName: __ZNSt3__112basic_stringIcNS_11char_traitsIcEENS_9allocatorIcEEEaSB8ue170006EPKc, symObjAddr: 0x61C, symBinAddr: 0x100019FF4, symSize: 0x2C }
  - { offsetInCU: 0x902B, offset: 0x66CD8, size: 0x8, addend: 0x0, symName: __ZN20ECConsoleUITextField15HdlBackspaceKeyEv, symObjAddr: 0x648, symBinAddr: 0x10001A020, symSize: 0x5C }
  - { offsetInCU: 0x9053, offset: 0x66D00, size: 0x8, addend: 0x0, symName: __ZNSt3__112basic_stringIcNS_11char_traitsIcEENS_9allocatorIcEEE8pop_backB8ue170006Ev, symObjAddr: 0x6A4, symBinAddr: 0x10001A07C, symSize: 0x38 }
  - { offsetInCU: 0x907A, offset: 0x66D27, size: 0x8, addend: 0x0, symName: __ZN20ECConsoleUITextField11HdlOtherKeyEv, symObjAddr: 0x6DC, symBinAddr: 0x10001A0B4, symSize: 0xB0 }
  - { offsetInCU: 0x90A2, offset: 0x66D4F, size: 0x8, addend: 0x0, symName: __ZN20ECConsoleUITextFieldD1Ev, symObjAddr: 0x78C, symBinAddr: 0x10001A164, symSize: 0x2C }
  - { offsetInCU: 0x90CE, offset: 0x66D7B, size: 0x8, addend: 0x0, symName: __ZN20ECConsoleUITextFieldD0Ev, symObjAddr: 0x7B8, symBinAddr: 0x10001A190, symSize: 0x58 }
  - { offsetInCU: 0x90FA, offset: 0x66DA7, size: 0x8, addend: 0x0, symName: __ZNK20ECConsoleUITextField14IsHandlingKeysEv, symObjAddr: 0x810, symBinAddr: 0x10001A1E8, symSize: 0x18 }
  - { offsetInCU: 0x9120, offset: 0x66DCD, size: 0x8, addend: 0x0, symName: __ZN16ECTextViewConfig10SetCursorYEi, symObjAddr: 0x8A0, symBinAddr: 0x10001A200, symSize: 0x20 }
  - { offsetInCU: 0x9154, offset: 0x66E01, size: 0x8, addend: 0x0, symName: __ZN16ECTextViewConfig10SetCursorXEi, symObjAddr: 0x8C0, symBinAddr: 0x10001A220, symSize: 0x20 }
  - { offsetInCU: 0x9188, offset: 0x66E35, size: 0x8, addend: 0x0, symName: __ZN20ECConsoleUITextFieldD2Ev, symObjAddr: 0x8E0, symBinAddr: 0x10001A240, symSize: 0x70 }
  - { offsetInCU: 0x91B4, offset: 0x66E61, size: 0x8, addend: 0x0, symName: __ZNSt3__112basic_stringIcNS_11char_traitsIcEENS_9allocatorIcEEE14__erase_to_endB8ue170006Em, symObjAddr: 0xD90, symBinAddr: 0x10001A2B0, symSize: 0x40 }
  - { offsetInCU: 0x91E9, offset: 0x66E96, size: 0x8, addend: 0x0, symName: __ZNSt3__112basic_stringIcNS_11char_traitsIcEENS_9allocatorIcEEE19__null_terminate_atB8ue170006EPcm, symObjAddr: 0xDD0, symBinAddr: 0x10001A2F0, symSize: 0x50 }
  - { offsetInCU: 0x922D, offset: 0x66EDA, size: 0x8, addend: 0x0, symName: __ZNSt3__112basic_stringIcNS_11char_traitsIcEENS_9allocatorIcEEE10__set_sizeB8ue170006Em, symObjAddr: 0xE88, symBinAddr: 0x10001A340, symSize: 0x54 }
  - { offsetInCU: 0x47D8, offset: 0x6B6F6, size: 0x8, addend: 0x0, symName: __ZN20ECConsoleUITextLabelC2EiiRKNSt3__112basic_stringIcNS0_11char_traitsIcEENS0_9allocatorIcEEEE, symObjAddr: 0x0, symBinAddr: 0x10001A394, symSize: 0x16C }
  - { offsetInCU: 0x4833, offset: 0x6B751, size: 0x8, addend: 0x0, symName: __ZN20ECConsoleUITextLabelC1EiiRKNSt3__112basic_stringIcNS0_11char_traitsIcEENS0_9allocatorIcEEEE, symObjAddr: 0x268, symBinAddr: 0x10001A500, symSize: 0x44 }
  - { offsetInCU: 0x4889, offset: 0x6B7A7, size: 0x8, addend: 0x0, symName: __ZNK20ECConsoleUITextLabel12GetTextAtRowEi, symObjAddr: 0x2AC, symBinAddr: 0x10001A544, symSize: 0xEC }
  - { offsetInCU: 0x48CE, offset: 0x6B7EC, size: 0x8, addend: 0x0, symName: __ZNK20ECConsoleUITextLabel20GetHighlightPositionERiS0_, symObjAddr: 0x3DC, symBinAddr: 0x10001A630, symSize: 0x74 }
  - { offsetInCU: 0x4912, offset: 0x6B830, size: 0x8, addend: 0x0, symName: __ZN20ECConsoleUITextLabel11HdlKeyEnterEv, symObjAddr: 0x498, symBinAddr: 0x10001A6A4, symSize: 0x10 }
  - { offsetInCU: 0x493A, offset: 0x6B858, size: 0x8, addend: 0x0, symName: __ZN20ECConsoleUITextLabelD1Ev, symObjAddr: 0x4A8, symBinAddr: 0x10001A6B4, symSize: 0x2C }
  - { offsetInCU: 0x4966, offset: 0x6B884, size: 0x8, addend: 0x0, symName: __ZN20ECConsoleUITextLabelD0Ev, symObjAddr: 0x4D4, symBinAddr: 0x10001A6E0, symSize: 0x58 }
  - { offsetInCU: 0x4992, offset: 0x6B8B0, size: 0x8, addend: 0x0, symName: __ZN20ECConsoleUITextLabelD2Ev, symObjAddr: 0x5D4, symBinAddr: 0x10001A738, symSize: 0x70 }
  - { offsetInCU: 0x8512, offset: 0x73DF8, size: 0x8, addend: 0x0, symName: __ZNSt3__112__to_addressB8ue170006IP10ECObserverEEPT_S4_, symObjAddr: 0x15A8, symBinAddr: 0x10001BB6C, symSize: 0x14 }
  - { offsetInCU: 0x8547, offset: 0x73E2D, size: 0x8, addend: 0x0, symName: __ZNSt3__119__allocate_at_leastB8ue170006INS_9allocatorIP10ECObserverEEEENS_19__allocation_resultINS_16allocator_traitsIT_E7pointerEEERS7_m, symObjAddr: 0x1E14, symBinAddr: 0x10001C1A4, symSize: 0x40 }
  - { offsetInCU: 0x858A, offset: 0x73E70, size: 0x8, addend: 0x0, symName: __ZNSt3__142__uninitialized_allocator_move_if_noexceptB8ue170006INS_9allocatorIP10ECObserverEENS_16reverse_iteratorIPS3_EES7_S3_vEET1_RT_T0_SB_S8_, symObjAddr: 0x2154, symBinAddr: 0x10001C458, symSize: 0xE8 }
  - { offsetInCU: 0x8607, offset: 0x73EED, size: 0x8, addend: 0x0, symName: __ZNSt3__14swapB8ue170006IPP10ECObserverEEvRT_S5_, symObjAddr: 0x2288, symBinAddr: 0x10001C58C, symSize: 0x3C }
  - { offsetInCU: 0x8658, offset: 0x73F3E, size: 0x8, addend: 0x0, symName: __ZNSt3__1neB8ue170006IPP10ECObserverS3_EEbRKNS_16reverse_iteratorIT_EERKNS4_IT0_EE, symObjAddr: 0x23B8, symBinAddr: 0x10001C6BC, symSize: 0x48 }
  - { offsetInCU: 0x86C9, offset: 0x73FAF, size: 0x8, addend: 0x0, symName: __ZNSt3__114__construct_atB8ue170006IP10ECObserverJS2_EPS2_EEPT_S5_DpOT0_, symObjAddr: 0x2400, symBinAddr: 0x10001C704, symSize: 0x2C }
  - { offsetInCU: 0x8739, offset: 0x7401F, size: 0x8, addend: 0x0, symName: __ZNSt3__112__to_addressB8ue170006INS_16reverse_iteratorIPP10ECObserverEEvEEu7__decayIDTclsr19__to_address_helperIT_EE6__callclsr3stdE7declvalIRKS6_EEEEES8_, symObjAddr: 0x242C, symBinAddr: 0x10001C730, symSize: 0x24 }
  - { offsetInCU: 0x876F, offset: 0x74055, size: 0x8, addend: 0x0, symName: __ZNSt3__14moveB8ue170006INS_16reverse_iteratorIPP10ECObserverEES5_EET0_T_S7_S6_, symObjAddr: 0x2498, symBinAddr: 0x10001C79C, symSize: 0x78 }
  - { offsetInCU: 0x87F2, offset: 0x740D8, size: 0x8, addend: 0x0, symName: __ZNSt3__16__moveB8ue170006INS_17_ClassicAlgPolicyENS_16reverse_iteratorIPP10ECObserverEES6_S6_EENS_4pairIT0_T2_EES8_T1_S9_, symObjAddr: 0x2580, symBinAddr: 0x10001C884, symSize: 0x64 }
  - { offsetInCU: 0x885E, offset: 0x74144, size: 0x8, addend: 0x0, symName: __ZNSt3__123__dispatch_copy_or_moveB8ue170006INS_17_ClassicAlgPolicyENS_11__move_loopIS1_EENS_14__move_trivialENS_16reverse_iteratorIPP10ECObserverEES9_S9_EENS_4pairIT2_T4_EESB_T3_SC_, symObjAddr: 0x25E4, symBinAddr: 0x10001C8E8, symSize: 0x64 }
  - { offsetInCU: 0x88DC, offset: 0x741C2, size: 0x8, addend: 0x0, symName: __ZNSt3__121__unwrap_and_dispatchB8ue170006INS_10__overloadINS_11__move_loopINS_17_ClassicAlgPolicyEEENS_14__move_trivialEEENS_16reverse_iteratorIPP10ECObserverEESB_SB_Li0EEENS_4pairIT0_T2_EESD_T1_SE_, symObjAddr: 0x2648, symBinAddr: 0x10001C94C, symSize: 0x12C }
  - { offsetInCU: 0x896C, offset: 0x74252, size: 0x8, addend: 0x0, symName: __ZNSt3__114__unwrap_rangeB8ue170006INS_16reverse_iteratorIPP10ECObserverEES5_EENS_4pairIT0_S7_EET_S9_, symObjAddr: 0x2774, symBinAddr: 0x10001CA78, symSize: 0x84 }
  - { offsetInCU: 0x8AF6, offset: 0x743DC, size: 0x8, addend: 0x0, symName: __ZNSt3__113__unwrap_iterB8ue170006INS_16reverse_iteratorIPP10ECObserverEENS_18__unwrap_iter_implIS5_Lb0EEELi0EEEDTclsrT0_8__unwrapclsr3stdE7declvalIT_EEEES9_, symObjAddr: 0x2898, symBinAddr: 0x10001CB9C, symSize: 0x44 }
  - { offsetInCU: 0x8B3A, offset: 0x74420, size: 0x8, addend: 0x0, symName: __ZNSt3__19make_pairB8ue170006INS_16reverse_iteratorIPP10ECObserverEES5_EENS_4pairINS_18__unwrap_ref_decayIT_E4typeENS7_IT0_E4typeEEEOS8_OSB_, symObjAddr: 0x28DC, symBinAddr: 0x10001CBE0, symSize: 0x38 }
  - { offsetInCU: 0x8B89, offset: 0x7446F, size: 0x8, addend: 0x0, symName: __ZNSt3__114__rewrap_rangeB8ue170006INS_16reverse_iteratorIPP10ECObserverEES5_EET_S6_T0_, symObjAddr: 0x2914, symBinAddr: 0x10001CC18, symSize: 0x5C }
  - { offsetInCU: 0x8BD5, offset: 0x744BB, size: 0x8, addend: 0x0, symName: __ZNSt3__113__rewrap_iterB8ue170006INS_16reverse_iteratorIPP10ECObserverEES5_NS_18__unwrap_iter_implIS5_Lb0EEEEET_S8_T0_, symObjAddr: 0x2970, symBinAddr: 0x10001CC74, symSize: 0x88 }
  - { offsetInCU: 0x8D0F, offset: 0x745F5, size: 0x8, addend: 0x0, symName: __ZNSt3__16removeB8ue170006INS_11__wrap_iterIPP10ECObserverEES3_EET_S6_S6_RKT0_, symObjAddr: 0x2F30, symBinAddr: 0x10001D1B8, symSize: 0x108 }
  - { offsetInCU: 0x8DA2, offset: 0x74688, size: 0x8, addend: 0x0, symName: __ZNSt3__1miB8ue170006IPKP10ECObserverPS2_EENS_11__wrap_iterIT_E15difference_typeERKS8_RKNS6_IT0_EE, symObjAddr: 0x30D4, symBinAddr: 0x10001D35C, symSize: 0x48 }
  - { offsetInCU: 0x8DEE, offset: 0x746D4, size: 0x8, addend: 0x0, symName: __ZNSt3__1neB8ue170006IPKP10ECObserverEEbRKNS_11__wrap_iterIT_EES9_, symObjAddr: 0x311C, symBinAddr: 0x10001D3A4, symSize: 0x34 }
  - { offsetInCU: 0x8E31, offset: 0x74717, size: 0x8, addend: 0x0, symName: __ZNSt3__14moveB8ue170006IPP10ECObserverS3_EET0_T_S5_S4_, symObjAddr: 0x319C, symBinAddr: 0x10001D424, symSize: 0x40 }
  - { offsetInCU: 0x8E8B, offset: 0x74771, size: 0x8, addend: 0x0, symName: __ZNSt3__1miB8ue170006IPKP10ECObserverS4_EENS_11__wrap_iterIT_E15difference_typeERKS7_RKNS5_IT0_EE, symObjAddr: 0x31DC, symBinAddr: 0x10001D464, symSize: 0x48 }
  - { offsetInCU: 0x8ED7, offset: 0x747BD, size: 0x8, addend: 0x0, symName: __ZNSt3__1eqB8ue170006IPKP10ECObserverEEbRKNS_11__wrap_iterIT_EES9_, symObjAddr: 0x3284, symBinAddr: 0x10001D50C, symSize: 0x48 }
  - { offsetInCU: 0x8F1A, offset: 0x74800, size: 0x8, addend: 0x0, symName: __ZNSt3__16__moveB8ue170006INS_17_ClassicAlgPolicyEPP10ECObserverS4_S4_EENS_4pairIT0_T2_EES6_T1_S7_, symObjAddr: 0x3420, symBinAddr: 0x10001D6A8, symSize: 0x44 }
  - { offsetInCU: 0x8F86, offset: 0x7486C, size: 0x8, addend: 0x0, symName: __ZNSt3__123__dispatch_copy_or_moveB8ue170006INS_17_ClassicAlgPolicyENS_11__move_loopIS1_EENS_14__move_trivialEPP10ECObserverS7_S7_EENS_4pairIT2_T4_EES9_T3_SA_, symObjAddr: 0x3464, symBinAddr: 0x10001D6EC, symSize: 0x44 }
  - { offsetInCU: 0x9004, offset: 0x748EA, size: 0x8, addend: 0x0, symName: __ZNSt3__121__unwrap_and_dispatchB8ue170006INS_10__overloadINS_11__move_loopINS_17_ClassicAlgPolicyEEENS_14__move_trivialEEEPP10ECObserverS9_S9_Li0EEENS_4pairIT0_T2_EESB_T1_SC_, symObjAddr: 0x34A8, symBinAddr: 0x10001D730, symSize: 0xB4 }
  - { offsetInCU: 0x9092, offset: 0x74978, size: 0x8, addend: 0x0, symName: __ZNSt3__114__unwrap_rangeB8ue170006IPP10ECObserverS3_EENS_4pairIT0_S5_EET_S7_, symObjAddr: 0x355C, symBinAddr: 0x10001D7E4, symSize: 0x60 }
  - { offsetInCU: 0x91D1, offset: 0x74AB7, size: 0x8, addend: 0x0, symName: __ZNSt3__113__unwrap_iterB8ue170006IPP10ECObserverNS_18__unwrap_iter_implIS3_Lb1EEELi0EEEDTclsrT0_8__unwrapclsr3stdE7declvalIT_EEEES7_, symObjAddr: 0x3604, symBinAddr: 0x10001D88C, symSize: 0x24 }
  - { offsetInCU: 0x9215, offset: 0x74AFB, size: 0x8, addend: 0x0, symName: __ZNSt3__19make_pairB8ue170006IPP10ECObserverS3_EENS_4pairINS_18__unwrap_ref_decayIT_E4typeENS5_IT0_E4typeEEEOS6_OS9_, symObjAddr: 0x3628, symBinAddr: 0x10001D8B0, symSize: 0x38 }
  - { offsetInCU: 0x9264, offset: 0x74B4A, size: 0x8, addend: 0x0, symName: __ZNSt3__114__rewrap_rangeB8ue170006IPP10ECObserverS3_EET_S4_T0_, symObjAddr: 0x3660, symBinAddr: 0x10001D8E8, symSize: 0x2C }
  - { offsetInCU: 0x92B0, offset: 0x74B96, size: 0x8, addend: 0x0, symName: __ZNSt3__113__rewrap_iterB8ue170006IPP10ECObserverS3_NS_18__unwrap_iter_implIS3_Lb1EEEEET_S6_T0_, symObjAddr: 0x368C, symBinAddr: 0x10001D914, symSize: 0x50 }
  - { offsetInCU: 0x9305, offset: 0x74BEB, size: 0x8, addend: 0x0, symName: __ZNSt3__119__copy_trivial_implB8ue170006IP10ECObserverS2_EENS_4pairIPT_PT0_EES5_S5_S7_, symObjAddr: 0x36DC, symBinAddr: 0x10001D964, symSize: 0x80 }
  - { offsetInCU: 0x936D, offset: 0x74C53, size: 0x8, addend: 0x0, symName: __ZNSt3__119__constexpr_memmoveB8ue170006IP10ECObserverS2_Li0EEEPT_S4_PT0_NS_15__element_countE, symObjAddr: 0x375C, symBinAddr: 0x10001D9E4, symSize: 0xA0 }
  - { offsetInCU: 0x93DB, offset: 0x74CC1, size: 0x8, addend: 0x0, symName: __ZNSt3__19make_pairB8ue170006IRPP10ECObserverS3_EENS_4pairINS_18__unwrap_ref_decayIT_E4typeENS6_IT0_E4typeEEEOS7_OSA_, symObjAddr: 0x37FC, symBinAddr: 0x10001DA84, symSize: 0x38 }
  - { offsetInCU: 0x947D, offset: 0x74D63, size: 0x8, addend: 0x0, symName: __ZNSt3__14findB8ue170006INS_11__wrap_iterIPP10ECObserverEES3_EET_S6_S6_RKT0_, symObjAddr: 0x396C, symBinAddr: 0x10001DBF4, symSize: 0x78 }
  - { offsetInCU: 0x94E5, offset: 0x74DCB, size: 0x8, addend: 0x0, symName: __ZNSt3__1neB8ue170006IPP10ECObserverEEbRKNS_11__wrap_iterIT_EES8_, symObjAddr: 0x39E4, symBinAddr: 0x10001DC6C, symSize: 0x34 }
  - { offsetInCU: 0x9528, offset: 0x74E0E, size: 0x8, addend: 0x0, symName: __ZNSt3__113__rewrap_iterB8ue170006INS_11__wrap_iterIPP10ECObserverEES4_NS_18__unwrap_iter_implIS5_Lb1EEEEET_S8_T0_, symObjAddr: 0x3A50, symBinAddr: 0x10001DCD8, symSize: 0x60 }
  - { offsetInCU: 0x957D, offset: 0x74E63, size: 0x8, addend: 0x0, symName: __ZNSt3__111__find_implB8ue170006IPP10ECObserverS3_S2_NS_10__identityEEET_S5_T0_RKT1_RT2_, symObjAddr: 0x3AB0, symBinAddr: 0x10001DD38, symSize: 0x88 }
  - { offsetInCU: 0x95F7, offset: 0x74EDD, size: 0x8, addend: 0x0, symName: __ZNSt3__113__unwrap_iterB8ue170006INS_11__wrap_iterIPP10ECObserverEENS_18__unwrap_iter_implIS5_Lb1EEELi0EEEDTclsrT0_8__unwrapclsr3stdE7declvalIT_EEEES9_, symObjAddr: 0x3B38, symBinAddr: 0x10001DDC0, symSize: 0x2C }
  - { offsetInCU: 0x968E, offset: 0x74F74, size: 0x8, addend: 0x0, symName: __ZNSt3__112__to_addressB8ue170006INS_11__wrap_iterIPP10ECObserverEEvEEu7__decayIDTclsr19__to_address_helperIT_EE6__callclsr3stdE7declvalIRKS6_EEEEES8_, symObjAddr: 0x3BFC, symBinAddr: 0x10001DE84, symSize: 0x24 }
  - { offsetInCU: 0x9769, offset: 0x7504F, size: 0x8, addend: 0x0, symName: __ZNSt3__18__invokeB8ue170006IRNS_10__identityEJRP10ECObserverEEEDTclclsr3stdE7declvalIT_EEspclsr3stdE7declvalIT0_EEEEOS6_DpOS7_, symObjAddr: 0x3CA4, symBinAddr: 0x10001DF2C, symSize: 0x2C }
  - { offsetInCU: 0x97E7, offset: 0x750CD, size: 0x8, addend: 0x0, symName: __ZNSt3__1eqB8ue170006IPP10ECObserverEEbRKNS_11__wrap_iterIT_EES8_, symObjAddr: 0x3D10, symBinAddr: 0x10001DF98, symSize: 0x48 }
  - { offsetInCU: 0x9944, offset: 0x7522A, size: 0x8, addend: 0x0, symName: __ZNSt3__112__to_addressB8ue170006IP15ECConsoleUIItemEEPT_S4_, symObjAddr: 0x4E68, symBinAddr: 0x10001EDC0, symSize: 0x14 }
  - { offsetInCU: 0x9979, offset: 0x7525F, size: 0x8, addend: 0x0, symName: __ZNSt3__119__allocate_at_leastB8ue170006INS_9allocatorIP15ECConsoleUIItemEEEENS_19__allocation_resultINS_16allocator_traitsIT_E7pointerEEERS7_m, symObjAddr: 0x574C, symBinAddr: 0x10001F6A4, symSize: 0x40 }
  - { offsetInCU: 0x99BC, offset: 0x752A2, size: 0x8, addend: 0x0, symName: __ZNSt3__142__uninitialized_allocator_move_if_noexceptB8ue170006INS_9allocatorIP15ECConsoleUIItemEENS_16reverse_iteratorIPS3_EES7_S3_vEET1_RT_T0_SB_S8_, symObjAddr: 0x592C, symBinAddr: 0x10001F884, symSize: 0xE8 }
  - { offsetInCU: 0x9A39, offset: 0x7531F, size: 0x8, addend: 0x0, symName: __ZNSt3__14swapB8ue170006IPP15ECConsoleUIItemEEvRT_S5_, symObjAddr: 0x5A60, symBinAddr: 0x10001F9B8, symSize: 0x3C }
  - { offsetInCU: 0x9A8A, offset: 0x75370, size: 0x8, addend: 0x0, symName: __ZNSt3__1neB8ue170006IPP15ECConsoleUIItemS3_EEbRKNS_16reverse_iteratorIT_EERKNS4_IT0_EE, symObjAddr: 0x5B48, symBinAddr: 0x10001FAA0, symSize: 0x48 }
  - { offsetInCU: 0x9AFB, offset: 0x753E1, size: 0x8, addend: 0x0, symName: __ZNSt3__114__construct_atB8ue170006IP15ECConsoleUIItemJS2_EPS2_EEPT_S5_DpOT0_, symObjAddr: 0x5B90, symBinAddr: 0x10001FAE8, symSize: 0x2C }
  - { offsetInCU: 0x9B6B, offset: 0x75451, size: 0x8, addend: 0x0, symName: __ZNSt3__112__to_addressB8ue170006INS_16reverse_iteratorIPP15ECConsoleUIItemEEvEEu7__decayIDTclsr19__to_address_helperIT_EE6__callclsr3stdE7declvalIRKS6_EEEEES8_, symObjAddr: 0x5BBC, symBinAddr: 0x10001FB14, symSize: 0x24 }
  - { offsetInCU: 0x9BA1, offset: 0x75487, size: 0x8, addend: 0x0, symName: __ZNSt3__14moveB8ue170006INS_16reverse_iteratorIPP15ECConsoleUIItemEES5_EET0_T_S7_S6_, symObjAddr: 0x5C28, symBinAddr: 0x10001FB80, symSize: 0x78 }
  - { offsetInCU: 0x9C24, offset: 0x7550A, size: 0x8, addend: 0x0, symName: __ZNSt3__16__moveB8ue170006INS_17_ClassicAlgPolicyENS_16reverse_iteratorIPP15ECConsoleUIItemEES6_S6_EENS_4pairIT0_T2_EES8_T1_S9_, symObjAddr: 0x5D10, symBinAddr: 0x10001FC68, symSize: 0x64 }
  - { offsetInCU: 0x9C90, offset: 0x75576, size: 0x8, addend: 0x0, symName: __ZNSt3__123__dispatch_copy_or_moveB8ue170006INS_17_ClassicAlgPolicyENS_11__move_loopIS1_EENS_14__move_trivialENS_16reverse_iteratorIPP15ECConsoleUIItemEES9_S9_EENS_4pairIT2_T4_EESB_T3_SC_, symObjAddr: 0x5D74, symBinAddr: 0x10001FCCC, symSize: 0x64 }
  - { offsetInCU: 0x9D0E, offset: 0x755F4, size: 0x8, addend: 0x0, symName: __ZNSt3__121__unwrap_and_dispatchB8ue170006INS_10__overloadINS_11__move_loopINS_17_ClassicAlgPolicyEEENS_14__move_trivialEEENS_16reverse_iteratorIPP15ECConsoleUIItemEESB_SB_Li0EEENS_4pairIT0_T2_EESD_T1_SE_, symObjAddr: 0x5DD8, symBinAddr: 0x10001FD30, symSize: 0x12C }
  - { offsetInCU: 0x9D9E, offset: 0x75684, size: 0x8, addend: 0x0, symName: __ZNSt3__114__unwrap_rangeB8ue170006INS_16reverse_iteratorIPP15ECConsoleUIItemEES5_EENS_4pairIT0_S7_EET_S9_, symObjAddr: 0x5F04, symBinAddr: 0x10001FE5C, symSize: 0x84 }
  - { offsetInCU: 0x9E97, offset: 0x7577D, size: 0x8, addend: 0x0, symName: __ZNSt3__113__unwrap_iterB8ue170006INS_16reverse_iteratorIPP15ECConsoleUIItemEENS_18__unwrap_iter_implIS5_Lb0EEELi0EEEDTclsrT0_8__unwrapclsr3stdE7declvalIT_EEEES9_, symObjAddr: 0x6028, symBinAddr: 0x10001FF80, symSize: 0x44 }
  - { offsetInCU: 0x9EDB, offset: 0x757C1, size: 0x8, addend: 0x0, symName: __ZNSt3__19make_pairB8ue170006INS_16reverse_iteratorIPP15ECConsoleUIItemEES5_EENS_4pairINS_18__unwrap_ref_decayIT_E4typeENS7_IT0_E4typeEEEOS8_OSB_, symObjAddr: 0x606C, symBinAddr: 0x10001FFC4, symSize: 0x38 }
  - { offsetInCU: 0x9F2A, offset: 0x75810, size: 0x8, addend: 0x0, symName: __ZNSt3__114__rewrap_rangeB8ue170006INS_16reverse_iteratorIPP15ECConsoleUIItemEES5_EET_S6_T0_, symObjAddr: 0x60A4, symBinAddr: 0x10001FFFC, symSize: 0x5C }
  - { offsetInCU: 0x9F76, offset: 0x7585C, size: 0x8, addend: 0x0, symName: __ZNSt3__113__rewrap_iterB8ue170006INS_16reverse_iteratorIPP15ECConsoleUIItemEES5_NS_18__unwrap_iter_implIS5_Lb0EEEEET_S8_T0_, symObjAddr: 0x6100, symBinAddr: 0x100020058, symSize: 0x88 }
  - { offsetInCU: 0xA30F, offset: 0x75BF5, size: 0x8, addend: 0x0, symName: __ZNSt3__16vectorIP10ECObserverNS_9allocatorIS2_EEE26__swap_out_circular_bufferERNS_14__split_bufferIS2_RS4_EE, symObjAddr: 0x17CC, symBinAddr: 0x10001BD90, symSize: 0x110 }
  - { offsetInCU: 0xA7F7, offset: 0x760DD, size: 0x8, addend: 0x0, symName: __ZNSt3__16vectorIP15ECConsoleUIItemNS_9allocatorIS2_EEE26__swap_out_circular_bufferERNS_14__split_bufferIS2_RS4_EE, symObjAddr: 0x53D8, symBinAddr: 0x10001F330, symSize: 0x110 }
  - { offsetInCU: 0xCE36, offset: 0x7871C, size: 0x8, addend: 0x0, symName: __ZN15ECConsoleUIViewC2EP13ECTextViewImp, symObjAddr: 0x0, symBinAddr: 0x10001A7A8, symSize: 0xC4 }
  - { offsetInCU: 0xCE70, offset: 0x78756, size: 0x8, addend: 0x0, symName: __ZN10ECObserverC2Ev, symObjAddr: 0xC4, symBinAddr: 0x10001A86C, symSize: 0x24 }
  - { offsetInCU: 0xCE9C, offset: 0x78782, size: 0x8, addend: 0x0, symName: __ZNSt3__16vectorIP15ECConsoleUIItemNS_9allocatorIS2_EEEC1B8ue170006Ev, symObjAddr: 0xE8, symBinAddr: 0x10001A890, symSize: 0x2C }
  - { offsetInCU: 0xCEC6, offset: 0x787AC, size: 0x8, addend: 0x0, symName: __ZN17ECObserverSubject6AttachEP10ECObserver, symObjAddr: 0x114, symBinAddr: 0x10001A8BC, symSize: 0x34 }
  - { offsetInCU: 0xCEFA, offset: 0x787E0, size: 0x8, addend: 0x0, symName: __ZNSt3__16vectorIP15ECConsoleUIItemNS_9allocatorIS2_EEED1B8ue170006Ev, symObjAddr: 0x148, symBinAddr: 0x10001A8F0, symSize: 0x2C }
  - { offsetInCU: 0xCF24, offset: 0x7880A, size: 0x8, addend: 0x0, symName: __ZN10ECObserverD2Ev, symObjAddr: 0x180, symBinAddr: 0x10001A91C, symSize: 0x14 }
  - { offsetInCU: 0xCF4E, offset: 0x78834, size: 0x8, addend: 0x0, symName: __ZN15ECConsoleUIViewC1EP13ECTextViewImp, symObjAddr: 0x194, symBinAddr: 0x10001A930, symSize: 0x34 }
  - { offsetInCU: 0xCF88, offset: 0x7886E, size: 0x8, addend: 0x0, symName: __ZN15ECConsoleUIViewD2Ev, symObjAddr: 0x1C8, symBinAddr: 0x10001A964, symSize: 0x13C }
  - { offsetInCU: 0xCFD1, offset: 0x788B7, size: 0x8, addend: 0x0, symName: __ZNKSt3__16vectorIP15ECConsoleUIItemNS_9allocatorIS2_EEE4sizeB8ue170006Ev, symObjAddr: 0x304, symBinAddr: 0x10001AAA0, symSize: 0x28 }
  - { offsetInCU: 0xCFF7, offset: 0x788DD, size: 0x8, addend: 0x0, symName: __ZNSt3__16vectorIP15ECConsoleUIItemNS_9allocatorIS2_EEEixB8ue170006Em, symObjAddr: 0x32C, symBinAddr: 0x10001AAC8, symSize: 0x24 }
  - { offsetInCU: 0xD02E, offset: 0x78914, size: 0x8, addend: 0x0, symName: __ZN17ECObserverSubject6DetachEP10ECObserver, symObjAddr: 0x350, symBinAddr: 0x10001AAEC, symSize: 0xAC }
  - { offsetInCU: 0xD062, offset: 0x78948, size: 0x8, addend: 0x0, symName: __ZN15ECConsoleUIViewD1Ev, symObjAddr: 0x3FC, symBinAddr: 0x10001AB98, symSize: 0x2C }
  - { offsetInCU: 0xD08E, offset: 0x78974, size: 0x8, addend: 0x0, symName: __ZN15ECConsoleUIViewD0Ev, symObjAddr: 0x428, symBinAddr: 0x10001ABC4, symSize: 0x58 }
  - { offsetInCU: 0xD0BA, offset: 0x789A0, size: 0x8, addend: 0x0, symName: __ZN15ECConsoleUIView9AddUIItemEP15ECConsoleUIItem, symObjAddr: 0x480, symBinAddr: 0x10001AC1C, symSize: 0x34 }
  - { offsetInCU: 0xD0EF, offset: 0x789D5, size: 0x8, addend: 0x0, symName: __ZNSt3__16vectorIP15ECConsoleUIItemNS_9allocatorIS2_EEE9push_backB8ue170006ERKS2_, symObjAddr: 0x4B4, symBinAddr: 0x10001AC50, symSize: 0x6C }
  - { offsetInCU: 0xD126, offset: 0x78A0C, size: 0x8, addend: 0x0, symName: __ZN15ECConsoleUIView7RefreshEv, symObjAddr: 0x520, symBinAddr: 0x10001ACBC, symSize: 0x3B0 }
  - { offsetInCU: 0xD227, offset: 0x78B0D, size: 0x8, addend: 0x0, symName: __ZN13ECTextViewImp8InitRowsEv, symObjAddr: 0x8D0, symBinAddr: 0x10001B06C, symSize: 0x28 }
  - { offsetInCU: 0xD24D, offset: 0x78B33, size: 0x8, addend: 0x0, symName: __ZNK15ECConsoleUIView15GetRowNumInViewEv, symObjAddr: 0x8F8, symBinAddr: 0x10001B094, symSize: 0x28 }
  - { offsetInCU: 0xD275, offset: 0x78B5B, size: 0x8, addend: 0x0, symName: __ZNK15ECConsoleUIView10ComposeRowEi, symObjAddr: 0x920, symBinAddr: 0x10001B0BC, symSize: 0x334 }
  - { offsetInCU: 0xD34A, offset: 0x78C30, size: 0x8, addend: 0x0, symName: __ZN13ECTextViewImp10ClearColorEv, symObjAddr: 0xC54, symBinAddr: 0x10001B3F0, symSize: 0x28 }
  - { offsetInCU: 0xD375, offset: 0x78C5B, size: 0x8, addend: 0x0, symName: __ZN15ECConsoleUIView6UpdateEv, symObjAddr: 0xD10, symBinAddr: 0x10001B418, symSize: 0x268 }
  - { offsetInCU: 0xD3D6, offset: 0x78CBC, size: 0x8, addend: 0x0, symName: __ZNK15ECConsoleUIView23GetRightmostUIItemAtRowEi, symObjAddr: 0x1004, symBinAddr: 0x10001B680, symSize: 0xF4 }
  - { offsetInCU: 0xD462, offset: 0x78D48, size: 0x8, addend: 0x0, symName: __ZNKSt3__16vectorIP15ECConsoleUIItemNS_9allocatorIS2_EEEixB8ue170006Em, symObjAddr: 0x10F8, symBinAddr: 0x10001B774, symSize: 0x24 }
  - { offsetInCU: 0xD499, offset: 0x78D7F, size: 0x8, addend: 0x0, symName: __ZNK13ECTextViewImp15GetRowNumInViewEv, symObjAddr: 0x11D4, symBinAddr: 0x10001B798, symSize: 0x28 }
  - { offsetInCU: 0xD4BF, offset: 0x78DA5, size: 0x8, addend: 0x0, symName: __ZNK15ECConsoleUIView15GetColNumInViewEv, symObjAddr: 0x11FC, symBinAddr: 0x10001B7C0, symSize: 0x28 }
  - { offsetInCU: 0xD4E7, offset: 0x78DCD, size: 0x8, addend: 0x0, symName: __ZNK13ECTextViewImp15GetColNumInViewEv, symObjAddr: 0x1224, symBinAddr: 0x10001B7E8, symSize: 0x28 }
  - { offsetInCU: 0xD50D, offset: 0x78DF3, size: 0x8, addend: 0x0, symName: __ZNK15ECConsoleUIItem17IsIntersectingRowEi, symObjAddr: 0x124C, symBinAddr: 0x10001B810, symSize: 0x60 }
  - { offsetInCU: 0xD541, offset: 0x78E27, size: 0x8, addend: 0x0, symName: __ZN10ECObserverD1Ev, symObjAddr: 0x12AC, symBinAddr: 0x10001B870, symSize: 0x14 }
  - { offsetInCU: 0xD56B, offset: 0x78E51, size: 0x8, addend: 0x0, symName: __ZN10ECObserverD0Ev, symObjAddr: 0x12C0, symBinAddr: 0x10001B884, symSize: 0xC }
  - { offsetInCU: 0xD594, offset: 0x78E7A, size: 0x8, addend: 0x0, symName: __ZNSt3__16vectorIP10ECObserverNS_9allocatorIS2_EEE9push_backB8ue170006ERKS2_, symObjAddr: 0x12CC, symBinAddr: 0x10001B890, symSize: 0x6C }
  - { offsetInCU: 0xD5CB, offset: 0x78EB1, size: 0x8, addend: 0x0, symName: __ZNSt3__16vectorIP10ECObserverNS_9allocatorIS2_EEE9__end_capB8ue170006Ev, symObjAddr: 0x1338, symBinAddr: 0x10001B8FC, symSize: 0x28 }
  - { offsetInCU: 0xD5F1, offset: 0x78ED7, size: 0x8, addend: 0x0, symName: __ZNSt3__16vectorIP10ECObserverNS_9allocatorIS2_EEE22__construct_one_at_endB8ue170006IJRKS2_EEEvDpOT_, symObjAddr: 0x1360, symBinAddr: 0x10001B924, symSize: 0x98 }
  - { offsetInCU: 0xD63F, offset: 0x78F25, size: 0x8, addend: 0x0, symName: __ZNSt3__16vectorIP10ECObserverNS_9allocatorIS2_EEE21__push_back_slow_pathIRKS2_EEvOT_, symObjAddr: 0x13F8, symBinAddr: 0x10001B9BC, symSize: 0xE0 }
  - { offsetInCU: 0xD69D, offset: 0x78F83, size: 0x8, addend: 0x0, symName: __ZNSt3__117__compressed_pairIPP10ECObserverNS_9allocatorIS2_EEE5firstB8ue170006Ev, symObjAddr: 0x14D8, symBinAddr: 0x10001BA9C, symSize: 0x24 }
  - { offsetInCU: 0xD6C3, offset: 0x78FA9, size: 0x8, addend: 0x0, symName: __ZNSt3__122__compressed_pair_elemIPP10ECObserverLi0ELb0EE5__getB8ue170006Ev, symObjAddr: 0x14FC, symBinAddr: 0x10001BAC0, symSize: 0x14 }
  - { offsetInCU: 0xD702, offset: 0x78FE8, size: 0x8, addend: 0x0, symName: __ZNSt3__16vectorIP10ECObserverNS_9allocatorIS2_EEE21_ConstructTransactionC1B8ue170006ERS5_m, symObjAddr: 0x1510, symBinAddr: 0x10001BAD4, symSize: 0x3C }
  - { offsetInCU: 0xD74A, offset: 0x79030, size: 0x8, addend: 0x0, symName: __ZNSt3__116allocator_traitsINS_9allocatorIP10ECObserverEEE9constructB8ue170006IS3_JRKS3_EvEEvRS4_PT_DpOT0_, symObjAddr: 0x154C, symBinAddr: 0x10001BB10, symSize: 0x34 }
  - { offsetInCU: 0xD7A1, offset: 0x79087, size: 0x8, addend: 0x0, symName: __ZNSt3__16vectorIP10ECObserverNS_9allocatorIS2_EEE7__allocB8ue170006Ev, symObjAddr: 0x1580, symBinAddr: 0x10001BB44, symSize: 0x28 }
  - { offsetInCU: 0xD7C7, offset: 0x790AD, size: 0x8, addend: 0x0, symName: __ZNSt3__16vectorIP10ECObserverNS_9allocatorIS2_EEE21_ConstructTransactionD1B8ue170006Ev, symObjAddr: 0x15BC, symBinAddr: 0x10001BB80, symSize: 0x2C }
  - { offsetInCU: 0xD7F1, offset: 0x790D7, size: 0x8, addend: 0x0, symName: __ZNSt3__16vectorIP10ECObserverNS_9allocatorIS2_EEE21_ConstructTransactionC2B8ue170006ERS5_m, symObjAddr: 0x15E8, symBinAddr: 0x10001BBAC, symSize: 0x44 }
  - { offsetInCU: 0xD839, offset: 0x7911F, size: 0x8, addend: 0x0, symName: __ZNSt3__19allocatorIP10ECObserverE9constructB8ue170006IS2_JRKS2_EEEvPT_DpOT0_, symObjAddr: 0x162C, symBinAddr: 0x10001BBF0, symSize: 0x28 }
  - { offsetInCU: 0xD88F, offset: 0x79175, size: 0x8, addend: 0x0, symName: __ZNSt3__117__compressed_pairIPP10ECObserverNS_9allocatorIS2_EEE6secondB8ue170006Ev, symObjAddr: 0x1654, symBinAddr: 0x10001BC18, symSize: 0x24 }
  - { offsetInCU: 0xD8B5, offset: 0x7919B, size: 0x8, addend: 0x0, symName: __ZNSt3__122__compressed_pair_elemINS_9allocatorIP10ECObserverEELi1ELb1EE5__getB8ue170006Ev, symObjAddr: 0x1678, symBinAddr: 0x10001BC3C, symSize: 0x14 }
  - { offsetInCU: 0xD8DB, offset: 0x791C1, size: 0x8, addend: 0x0, symName: __ZNSt3__16vectorIP10ECObserverNS_9allocatorIS2_EEE21_ConstructTransactionD2B8ue170006Ev, symObjAddr: 0x168C, symBinAddr: 0x10001BC50, symSize: 0x20 }
  - { offsetInCU: 0xD904, offset: 0x791EA, size: 0x8, addend: 0x0, symName: __ZNKSt3__16vectorIP10ECObserverNS_9allocatorIS2_EEE11__recommendB8ue170006Em, symObjAddr: 0x16AC, symBinAddr: 0x10001BC70, symSize: 0xB4 }
  - { offsetInCU: 0xD959, offset: 0x7923F, size: 0x8, addend: 0x0, symName: __ZNKSt3__16vectorIP10ECObserverNS_9allocatorIS2_EEE4sizeB8ue170006Ev, symObjAddr: 0x1760, symBinAddr: 0x10001BD24, symSize: 0x28 }
  - { offsetInCU: 0xD97F, offset: 0x79265, size: 0x8, addend: 0x0, symName: __ZNSt3__114__split_bufferIP10ECObserverRNS_9allocatorIS2_EEEC1EmmS5_, symObjAddr: 0x1788, symBinAddr: 0x10001BD4C, symSize: 0x44 }
  - { offsetInCU: 0xD9D5, offset: 0x792BB, size: 0x8, addend: 0x0, symName: __ZNSt3__114__split_bufferIP10ECObserverRNS_9allocatorIS2_EEED1Ev, symObjAddr: 0x18DC, symBinAddr: 0x10001BEA0, symSize: 0x2C }
  - { offsetInCU: 0xDA00, offset: 0x792E6, size: 0x8, addend: 0x0, symName: __ZNKSt3__16vectorIP10ECObserverNS_9allocatorIS2_EEE8max_sizeEv, symObjAddr: 0x1908, symBinAddr: 0x10001BECC, symSize: 0x74 }
  - { offsetInCU: 0xDA28, offset: 0x7930E, size: 0x8, addend: 0x0, symName: __ZNKSt3__16vectorIP10ECObserverNS_9allocatorIS2_EEE20__throw_length_errorB8ue170006Ev, symObjAddr: 0x197C, symBinAddr: 0x10001BF40, symSize: 0x1C }
  - { offsetInCU: 0xDA4E, offset: 0x79334, size: 0x8, addend: 0x0, symName: __ZNKSt3__16vectorIP10ECObserverNS_9allocatorIS2_EEE8capacityB8ue170006Ev, symObjAddr: 0x1998, symBinAddr: 0x10001BF5C, symSize: 0x40 }
  - { offsetInCU: 0xDA7E, offset: 0x79364, size: 0x8, addend: 0x0, symName: __ZNSt3__116allocator_traitsINS_9allocatorIP10ECObserverEEE8max_sizeB8ue170006IS4_vEEmRKS4_, symObjAddr: 0x1A30, symBinAddr: 0x10001BF9C, symSize: 0x24 }
  - { offsetInCU: 0xDAAC, offset: 0x79392, size: 0x8, addend: 0x0, symName: __ZNKSt3__16vectorIP10ECObserverNS_9allocatorIS2_EEE7__allocB8ue170006Ev, symObjAddr: 0x1A54, symBinAddr: 0x10001BFC0, symSize: 0x28 }
  - { offsetInCU: 0xDAD2, offset: 0x793B8, size: 0x8, addend: 0x0, symName: __ZNKSt3__19allocatorIP10ECObserverE8max_sizeB8ue170006Ev, symObjAddr: 0x1B18, symBinAddr: 0x10001BFE8, symSize: 0x14 }
  - { offsetInCU: 0xDAF8, offset: 0x793DE, size: 0x8, addend: 0x0, symName: __ZNKSt3__117__compressed_pairIPP10ECObserverNS_9allocatorIS2_EEE6secondB8ue170006Ev, symObjAddr: 0x1B2C, symBinAddr: 0x10001BFFC, symSize: 0x24 }
  - { offsetInCU: 0xDB1E, offset: 0x79404, size: 0x8, addend: 0x0, symName: __ZNKSt3__122__compressed_pair_elemINS_9allocatorIP10ECObserverEELi1ELb1EE5__getB8ue170006Ev, symObjAddr: 0x1B50, symBinAddr: 0x10001C020, symSize: 0x14 }
  - { offsetInCU: 0xDB44, offset: 0x7942A, size: 0x8, addend: 0x0, symName: __ZNKSt3__16vectorIP10ECObserverNS_9allocatorIS2_EEE9__end_capB8ue170006Ev, symObjAddr: 0x1C50, symBinAddr: 0x10001C034, symSize: 0x28 }
  - { offsetInCU: 0xDB6A, offset: 0x79450, size: 0x8, addend: 0x0, symName: __ZNKSt3__117__compressed_pairIPP10ECObserverNS_9allocatorIS2_EEE5firstB8ue170006Ev, symObjAddr: 0x1C78, symBinAddr: 0x10001C05C, symSize: 0x24 }
  - { offsetInCU: 0xDB90, offset: 0x79476, size: 0x8, addend: 0x0, symName: __ZNKSt3__122__compressed_pair_elemIPP10ECObserverLi0ELb0EE5__getB8ue170006Ev, symObjAddr: 0x1C9C, symBinAddr: 0x10001C080, symSize: 0x14 }
  - { offsetInCU: 0xDBB6, offset: 0x7949C, size: 0x8, addend: 0x0, symName: __ZNSt3__114__split_bufferIP10ECObserverRNS_9allocatorIS2_EEEC2EmmS5_, symObjAddr: 0x1D04, symBinAddr: 0x10001C094, symSize: 0xD4 }
  - { offsetInCU: 0xDC2F, offset: 0x79515, size: 0x8, addend: 0x0, symName: __ZNSt3__117__compressed_pairIPP10ECObserverRNS_9allocatorIS2_EEEC1B8ue170006IDnS6_EEOT_OT0_, symObjAddr: 0x1DD8, symBinAddr: 0x10001C168, symSize: 0x3C }
  - { offsetInCU: 0xDC87, offset: 0x7956D, size: 0x8, addend: 0x0, symName: __ZNSt3__114__split_bufferIP10ECObserverRNS_9allocatorIS2_EEE7__allocB8ue170006Ev, symObjAddr: 0x1E54, symBinAddr: 0x10001C1E4, symSize: 0x28 }
  - { offsetInCU: 0xDCAD, offset: 0x79593, size: 0x8, addend: 0x0, symName: __ZNSt3__114__split_bufferIP10ECObserverRNS_9allocatorIS2_EEE9__end_capB8ue170006Ev, symObjAddr: 0x1E7C, symBinAddr: 0x10001C20C, symSize: 0x28 }
  - { offsetInCU: 0xDCD3, offset: 0x795B9, size: 0x8, addend: 0x0, symName: __ZNSt3__117__compressed_pairIPP10ECObserverRNS_9allocatorIS2_EEEC2B8ue170006IDnS6_EEOT_OT0_, symObjAddr: 0x1EA4, symBinAddr: 0x10001C234, symSize: 0x48 }
  - { offsetInCU: 0xDD2B, offset: 0x79611, size: 0x8, addend: 0x0, symName: __ZNSt3__122__compressed_pair_elemIPP10ECObserverLi0ELb0EEC2B8ue170006IDnvEEOT_, symObjAddr: 0x1EEC, symBinAddr: 0x10001C27C, symSize: 0x1C }
  - { offsetInCU: 0xDD6D, offset: 0x79653, size: 0x8, addend: 0x0, symName: __ZNSt3__122__compressed_pair_elemIRNS_9allocatorIP10ECObserverEELi1ELb0EEC2B8ue170006IS5_vEEOT_, symObjAddr: 0x1F08, symBinAddr: 0x10001C298, symSize: 0x20 }
  - { offsetInCU: 0xDDAF, offset: 0x79695, size: 0x8, addend: 0x0, symName: __ZNSt3__19allocatorIP10ECObserverE8allocateB8ue170006Em, symObjAddr: 0x1F28, symBinAddr: 0x10001C2B8, symSize: 0x84 }
  - { offsetInCU: 0xDDE3, offset: 0x796C9, size: 0x8, addend: 0x0, symName: __ZNSt3__117__compressed_pairIPP10ECObserverRNS_9allocatorIS2_EEE6secondB8ue170006Ev, symObjAddr: 0x2038, symBinAddr: 0x10001C33C, symSize: 0x28 }
  - { offsetInCU: 0xDE09, offset: 0x796EF, size: 0x8, addend: 0x0, symName: __ZNSt3__122__compressed_pair_elemIRNS_9allocatorIP10ECObserverEELi1ELb0EE5__getB8ue170006Ev, symObjAddr: 0x2060, symBinAddr: 0x10001C364, symSize: 0x18 }
  - { offsetInCU: 0xDE2F, offset: 0x79715, size: 0x8, addend: 0x0, symName: __ZNSt3__117__compressed_pairIPP10ECObserverRNS_9allocatorIS2_EEE5firstB8ue170006Ev, symObjAddr: 0x2078, symBinAddr: 0x10001C37C, symSize: 0x24 }
  - { offsetInCU: 0xDE55, offset: 0x7973B, size: 0x8, addend: 0x0, symName: __ZNKSt3__16vectorIP10ECObserverNS_9allocatorIS2_EEE17__annotate_deleteB8ue170006Ev, symObjAddr: 0x209C, symBinAddr: 0x10001C3A0, symSize: 0xB8 }
  - { offsetInCU: 0xDE7B, offset: 0x79761, size: 0x8, addend: 0x0, symName: __ZNSt3__116reverse_iteratorIPP10ECObserverEC1B8ue170006ES3_, symObjAddr: 0x223C, symBinAddr: 0x10001C540, symSize: 0x34 }
  - { offsetInCU: 0xDEB3, offset: 0x79799, size: 0x8, addend: 0x0, symName: __ZNKSt3__116reverse_iteratorIPP10ECObserverE4baseB8ue170006Ev, symObjAddr: 0x2270, symBinAddr: 0x10001C574, symSize: 0x18 }
  - { offsetInCU: 0xDED9, offset: 0x797BF, size: 0x8, addend: 0x0, symName: __ZNKSt3__16vectorIP10ECObserverNS_9allocatorIS2_EEE14__annotate_newB8ue170006Em, symObjAddr: 0x22C4, symBinAddr: 0x10001C5C8, symSize: 0xAC }
  - { offsetInCU: 0xDF0E, offset: 0x797F4, size: 0x8, addend: 0x0, symName: __ZNKSt3__16vectorIP10ECObserverNS_9allocatorIS2_EEE31__annotate_contiguous_containerB8ue170006EPKvS7_S7_S7_, symObjAddr: 0x2370, symBinAddr: 0x10001C674, symSize: 0x20 }
  - { offsetInCU: 0xDF60, offset: 0x79846, size: 0x8, addend: 0x0, symName: __ZNKSt3__16vectorIP10ECObserverNS_9allocatorIS2_EEE4dataB8ue170006Ev, symObjAddr: 0x2390, symBinAddr: 0x10001C694, symSize: 0x28 }
  - { offsetInCU: 0xDF86, offset: 0x7986C, size: 0x8, addend: 0x0, symName: __ZNKSt3__116reverse_iteratorIPP10ECObserverEdeB8ue170006Ev, symObjAddr: 0x2450, symBinAddr: 0x10001C754, symSize: 0x28 }
  - { offsetInCU: 0xDFBA, offset: 0x798A0, size: 0x8, addend: 0x0, symName: __ZNSt3__116reverse_iteratorIPP10ECObserverEppB8ue170006Ev, symObjAddr: 0x2478, symBinAddr: 0x10001C77C, symSize: 0x20 }
  - { offsetInCU: 0xDFE5, offset: 0x798CB, size: 0x8, addend: 0x0, symName: __ZNSt3__119__to_address_helperINS_16reverse_iteratorIPP10ECObserverEEvE6__callB8ue170006ERKS5_, symObjAddr: 0x2510, symBinAddr: 0x10001C814, symSize: 0x4C }
  - { offsetInCU: 0xE008, offset: 0x798EE, size: 0x8, addend: 0x0, symName: __ZNKSt3__116reverse_iteratorIPP10ECObserverEptB8ue170006Ev, symObjAddr: 0x255C, symBinAddr: 0x10001C860, symSize: 0x24 }
  - { offsetInCU: 0xE051, offset: 0x79937, size: 0x8, addend: 0x0, symName: __ZNKSt3__111__move_loopINS_17_ClassicAlgPolicyEEclB8ue170006INS_16reverse_iteratorIPP10ECObserverEES8_S8_EENS_4pairIT_T1_EESA_T0_SB_, symObjAddr: 0x27F8, symBinAddr: 0x10001CAFC, symSize: 0xA0 }
  - { offsetInCU: 0xE0C1, offset: 0x799A7, size: 0x8, addend: 0x0, symName: __ZNSt3__18_IterOpsINS_17_ClassicAlgPolicyEE11__iter_moveB8ue170006IRNS_16reverse_iteratorIPP10ECObserverEEEENS_9enable_ifIXsr12is_referenceIDTdeclsr3stdE7declvalIRT_EEEEE5valueEDTclsr3stdE4movedeclsr3stdE7declvalISC_EEEEE4typeEOSB_, symObjAddr: 0x29F8, symBinAddr: 0x10001CCFC, symSize: 0x28 }
  - { offsetInCU: 0xE0ED, offset: 0x799D3, size: 0x8, addend: 0x0, symName: __ZNSt3__18_IterOpsINS_17_ClassicAlgPolicyEE25__validate_iter_referenceB8ue170006IRNS_16reverse_iteratorIPP10ECObserverEEEEvv, symObjAddr: 0x2A20, symBinAddr: 0x10001CD24, symSize: 0x4 }
  - { offsetInCU: 0xE10B, offset: 0x799F1, size: 0x8, addend: 0x0, symName: __ZNSt3__118__unwrap_iter_implINS_16reverse_iteratorIPP10ECObserverEELb0EE8__unwrapB8ue170006ES5_, symObjAddr: 0x2A24, symBinAddr: 0x10001CD28, symSize: 0x24 }
  - { offsetInCU: 0xE12E, offset: 0x79A14, size: 0x8, addend: 0x0, symName: __ZNSt3__14pairINS_16reverse_iteratorIPP10ECObserverEES5_EC1B8ue170006ERKS5_S8_, symObjAddr: 0x2A48, symBinAddr: 0x10001CD4C, symSize: 0x3C }
  - { offsetInCU: 0xE174, offset: 0x79A5A, size: 0x8, addend: 0x0, symName: __ZNSt3__14pairINS_16reverse_iteratorIPP10ECObserverEES5_EC2B8ue170006ERKS5_S8_, symObjAddr: 0x2A84, symBinAddr: 0x10001CD88, symSize: 0x34 }
  - { offsetInCU: 0xE1BA, offset: 0x79AA0, size: 0x8, addend: 0x0, symName: __ZNSt3__118__unwrap_iter_implINS_16reverse_iteratorIPP10ECObserverEELb0EE8__rewrapB8ue170006ES5_S5_, symObjAddr: 0x2AB8, symBinAddr: 0x10001CDBC, symSize: 0x2C }
  - { offsetInCU: 0xE1E8, offset: 0x79ACE, size: 0x8, addend: 0x0, symName: __ZNSt3__116reverse_iteratorIPP10ECObserverEC2B8ue170006ES3_, symObjAddr: 0x2AE4, symBinAddr: 0x10001CDE8, symSize: 0x28 }
  - { offsetInCU: 0xE220, offset: 0x79B06, size: 0x8, addend: 0x0, symName: __ZNSt3__114__split_bufferIP10ECObserverRNS_9allocatorIS2_EEED2Ev, symObjAddr: 0x2B0C, symBinAddr: 0x10001CE10, symSize: 0x80 }
  - { offsetInCU: 0xE24C, offset: 0x79B32, size: 0x8, addend: 0x0, symName: __ZNSt3__114__split_bufferIP10ECObserverRNS_9allocatorIS2_EEE5clearB8ue170006Ev, symObjAddr: 0x2B8C, symBinAddr: 0x10001CE90, symSize: 0x28 }
  - { offsetInCU: 0xE272, offset: 0x79B58, size: 0x8, addend: 0x0, symName: __ZNSt3__116allocator_traitsINS_9allocatorIP10ECObserverEEE10deallocateB8ue170006ERS4_PS3_m, symObjAddr: 0x2BB4, symBinAddr: 0x10001CEB8, symSize: 0x34 }
  - { offsetInCU: 0xE2B4, offset: 0x79B9A, size: 0x8, addend: 0x0, symName: __ZNKSt3__114__split_bufferIP10ECObserverRNS_9allocatorIS2_EEE8capacityB8ue170006Ev, symObjAddr: 0x2BE8, symBinAddr: 0x10001CEEC, symSize: 0x40 }
  - { offsetInCU: 0xE2DA, offset: 0x79BC0, size: 0x8, addend: 0x0, symName: __ZNSt3__114__split_bufferIP10ECObserverRNS_9allocatorIS2_EEE17__destruct_at_endB8ue170006EPS2_, symObjAddr: 0x2C28, symBinAddr: 0x10001CF2C, symSize: 0x2C }
  - { offsetInCU: 0xE30D, offset: 0x79BF3, size: 0x8, addend: 0x0, symName: __ZNSt3__114__split_bufferIP10ECObserverRNS_9allocatorIS2_EEE17__destruct_at_endB8ue170006EPS2_NS_17integral_constantIbLb0EEE, symObjAddr: 0x2C54, symBinAddr: 0x10001CF58, symSize: 0x94 }
  - { offsetInCU: 0xE34E, offset: 0x79C34, size: 0x8, addend: 0x0, symName: __ZNSt3__116allocator_traitsINS_9allocatorIP10ECObserverEEE7destroyB8ue170006IS3_vEEvRS4_PT_, symObjAddr: 0x2CE8, symBinAddr: 0x10001CFEC, symSize: 0x2C }
  - { offsetInCU: 0xE38B, offset: 0x79C71, size: 0x8, addend: 0x0, symName: __ZNSt3__19allocatorIP10ECObserverE7destroyB8ue170006EPS2_, symObjAddr: 0x2D14, symBinAddr: 0x10001D018, symSize: 0x14 }
  - { offsetInCU: 0xE3BF, offset: 0x79CA5, size: 0x8, addend: 0x0, symName: __ZNSt3__19allocatorIP10ECObserverE10deallocateB8ue170006EPS2_m, symObjAddr: 0x2D28, symBinAddr: 0x10001D02C, symSize: 0x70 }
  - { offsetInCU: 0xE401, offset: 0x79CE7, size: 0x8, addend: 0x0, symName: __ZNKSt3__114__split_bufferIP10ECObserverRNS_9allocatorIS2_EEE9__end_capB8ue170006Ev, symObjAddr: 0x2E14, symBinAddr: 0x10001D09C, symSize: 0x28 }
  - { offsetInCU: 0xE427, offset: 0x79D0D, size: 0x8, addend: 0x0, symName: __ZNKSt3__117__compressed_pairIPP10ECObserverRNS_9allocatorIS2_EEE5firstB8ue170006Ev, symObjAddr: 0x2E3C, symBinAddr: 0x10001D0C4, symSize: 0x24 }
  - { offsetInCU: 0xE44C, offset: 0x79D32, size: 0x8, addend: 0x0, symName: __ZNSt3__16vectorIP10ECObserverNS_9allocatorIS2_EEE5eraseENS_11__wrap_iterIPKS2_EES9_, symObjAddr: 0x2E60, symBinAddr: 0x10001D0E8, symSize: 0xD0 }
  - { offsetInCU: 0xE4A0, offset: 0x79D86, size: 0x8, addend: 0x0, symName: __ZNSt3__16vectorIP10ECObserverNS_9allocatorIS2_EEE5beginB8ue170006Ev, symObjAddr: 0x3038, symBinAddr: 0x10001D2C0, symSize: 0x30 }
  - { offsetInCU: 0xE4C7, offset: 0x79DAD, size: 0x8, addend: 0x0, symName: __ZNSt3__16vectorIP10ECObserverNS_9allocatorIS2_EEE3endB8ue170006Ev, symObjAddr: 0x3068, symBinAddr: 0x10001D2F0, symSize: 0x30 }
  - { offsetInCU: 0xE4F9, offset: 0x79DDF, size: 0x8, addend: 0x0, symName: __ZNSt3__111__wrap_iterIPKP10ECObserverEC1B8ue170006IPS2_EERKNS0_IT_EEPNS_9enable_ifIXsr14is_convertibleIS8_S4_EE5valueEvE4typeE, symObjAddr: 0x3098, symBinAddr: 0x10001D320, symSize: 0x3C }
  - { offsetInCU: 0xE545, offset: 0x79E2B, size: 0x8, addend: 0x0, symName: __ZNSt3__16vectorIP10ECObserverNS_9allocatorIS2_EEE17__destruct_at_endB8ue170006EPS2_, symObjAddr: 0x3150, symBinAddr: 0x10001D3D8, symSize: 0x4C }
  - { offsetInCU: 0xE589, offset: 0x79E6F, size: 0x8, addend: 0x0, symName: __ZNSt3__16vectorIP10ECObserverNS_9allocatorIS2_EEE11__make_iterB8ue170006EPS2_, symObjAddr: 0x3224, symBinAddr: 0x10001D4AC, symSize: 0x30 }
  - { offsetInCU: 0xE5BE, offset: 0x79EA4, size: 0x8, addend: 0x0, symName: __ZNKSt3__111__wrap_iterIPKP10ECObserverE4baseB8ue170006Ev, symObjAddr: 0x3254, symBinAddr: 0x10001D4DC, symSize: 0x18 }
  - { offsetInCU: 0xE5E4, offset: 0x79ECA, size: 0x8, addend: 0x0, symName: __ZNKSt3__111__wrap_iterIPP10ECObserverE4baseB8ue170006Ev, symObjAddr: 0x326C, symBinAddr: 0x10001D4F4, symSize: 0x18 }
  - { offsetInCU: 0xE60A, offset: 0x79EF0, size: 0x8, addend: 0x0, symName: __ZNSt3__16vectorIP10ECObserverNS_9allocatorIS2_EEE22__base_destruct_at_endB8ue170006EPS2_, symObjAddr: 0x32CC, symBinAddr: 0x10001D554, symSize: 0xA0 }
  - { offsetInCU: 0xE64E, offset: 0x79F34, size: 0x8, addend: 0x0, symName: __ZNKSt3__16vectorIP10ECObserverNS_9allocatorIS2_EEE17__annotate_shrinkB8ue170006Em, symObjAddr: 0x336C, symBinAddr: 0x10001D5F4, symSize: 0xB4 }
  - { offsetInCU: 0xE6A6, offset: 0x79F8C, size: 0x8, addend: 0x0, symName: __ZNKSt3__114__move_trivialclB8ue170006IP10ECObserverS3_Li0EEENS_4pairIPT_PT0_EES6_S6_S8_, symObjAddr: 0x35BC, symBinAddr: 0x10001D844, symSize: 0x48 }
  - { offsetInCU: 0xE70E, offset: 0x79FF4, size: 0x8, addend: 0x0, symName: __ZNSt3__14pairIPP10ECObserverS3_EC1B8ue170006ERKS3_S6_, symObjAddr: 0x3834, symBinAddr: 0x10001DABC, symSize: 0x3C }
  - { offsetInCU: 0xE754, offset: 0x7A03A, size: 0x8, addend: 0x0, symName: __ZNSt3__14pairIPP10ECObserverS3_EC2B8ue170006ERKS3_S6_, symObjAddr: 0x3870, symBinAddr: 0x10001DAF8, symSize: 0x34 }
  - { offsetInCU: 0xE79A, offset: 0x7A080, size: 0x8, addend: 0x0, symName: __ZNSt3__118__unwrap_iter_implIPP10ECObserverLb1EE8__unwrapB8ue170006ES3_, symObjAddr: 0x38A4, symBinAddr: 0x10001DB2C, symSize: 0x24 }
  - { offsetInCU: 0xE7BD, offset: 0x7A0A3, size: 0x8, addend: 0x0, symName: __ZNSt3__118__unwrap_iter_implIPP10ECObserverLb1EE8__rewrapB8ue170006ES3_S3_, symObjAddr: 0x38C8, symBinAddr: 0x10001DB50, symSize: 0x50 }
  - { offsetInCU: 0xE7EE, offset: 0x7A0D4, size: 0x8, addend: 0x0, symName: __ZNSt3__111__wrap_iterIPP10ECObserverEC1B8ue170006ES3_, symObjAddr: 0x3918, symBinAddr: 0x10001DBA0, symSize: 0x34 }
  - { offsetInCU: 0xE826, offset: 0x7A10C, size: 0x8, addend: 0x0, symName: __ZNSt3__111__wrap_iterIPP10ECObserverEC2B8ue170006ES3_, symObjAddr: 0x394C, symBinAddr: 0x10001DBD4, symSize: 0x20 }
  - { offsetInCU: 0xE85E, offset: 0x7A144, size: 0x8, addend: 0x0, symName: __ZNSt3__111__wrap_iterIPP10ECObserverEppB8ue170006Ev, symObjAddr: 0x3A18, symBinAddr: 0x10001DCA0, symSize: 0x20 }
  - { offsetInCU: 0xE884, offset: 0x7A16A, size: 0x8, addend: 0x0, symName: __ZNKSt3__111__wrap_iterIPP10ECObserverEdeB8ue170006Ev, symObjAddr: 0x3A38, symBinAddr: 0x10001DCC0, symSize: 0x18 }
  - { offsetInCU: 0xE8AA, offset: 0x7A190, size: 0x8, addend: 0x0, symName: __ZNSt3__118__unwrap_iter_implINS_11__wrap_iterIPP10ECObserverEELb1EE8__rewrapB8ue170006ES5_S4_, symObjAddr: 0x3B64, symBinAddr: 0x10001DDEC, symSize: 0x5C }
  - { offsetInCU: 0xE8DB, offset: 0x7A1C1, size: 0x8, addend: 0x0, symName: __ZNKSt3__111__wrap_iterIPP10ECObserverEplB8ue170006El, symObjAddr: 0x3BC0, symBinAddr: 0x10001DE48, symSize: 0x3C }
  - { offsetInCU: 0xE91D, offset: 0x7A203, size: 0x8, addend: 0x0, symName: __ZNSt3__111__wrap_iterIPP10ECObserverEpLB8ue170006El, symObjAddr: 0x3C20, symBinAddr: 0x10001DEA8, symSize: 0x28 }
  - { offsetInCU: 0xE956, offset: 0x7A23C, size: 0x8, addend: 0x0, symName: __ZNSt3__119__to_address_helperINS_11__wrap_iterIPP10ECObserverEEvE6__callB8ue170006ERKS5_, symObjAddr: 0x3C48, symBinAddr: 0x10001DED0, symSize: 0x30 }
  - { offsetInCU: 0xE979, offset: 0x7A25F, size: 0x8, addend: 0x0, symName: __ZNSt3__114pointer_traitsINS_11__wrap_iterIPP10ECObserverEEE10to_addressB8ue170006ES5_, symObjAddr: 0x3C78, symBinAddr: 0x10001DF00, symSize: 0x2C }
  - { offsetInCU: 0xE9A6, offset: 0x7A28C, size: 0x8, addend: 0x0, symName: __ZNKSt3__110__identityclB8ue170006IRP10ECObserverEEOT_S6_, symObjAddr: 0x3CD0, symBinAddr: 0x10001DF58, symSize: 0x18 }
  - { offsetInCU: 0xE9E3, offset: 0x7A2C9, size: 0x8, addend: 0x0, symName: __ZNSt3__118__unwrap_iter_implINS_11__wrap_iterIPP10ECObserverEELb1EE8__unwrapB8ue170006ES5_, symObjAddr: 0x3CE8, symBinAddr: 0x10001DF70, symSize: 0x28 }
  - { offsetInCU: 0xEA06, offset: 0x7A2EC, size: 0x8, addend: 0x0, symName: __ZNSt3__111__wrap_iterIPKP10ECObserverEC2B8ue170006IPS2_EERKNS0_IT_EEPNS_9enable_ifIXsr14is_convertibleIS8_S4_EE5valueEvE4typeE, symObjAddr: 0x3D58, symBinAddr: 0x10001DFE0, symSize: 0x40 }
  - { offsetInCU: 0xEA52, offset: 0x7A338, size: 0x8, addend: 0x0, symName: __ZNSt3__16vectorINS_12basic_stringIcNS_11char_traitsIcEENS_9allocatorIcEEEENS4_IS6_EEE5clearB8ue170006Ev, symObjAddr: 0x3D98, symBinAddr: 0x10001E020, symSize: 0x44 }
  - { offsetInCU: 0xEA87, offset: 0x7A36D, size: 0x8, addend: 0x0, symName: __ZNKSt3__16vectorINS_12basic_stringIcNS_11char_traitsIcEENS_9allocatorIcEEEENS4_IS6_EEE17__annotate_shrinkB8ue170006Em, symObjAddr: 0x3E2C, symBinAddr: 0x10001E064, symSize: 0xD0 }
  - { offsetInCU: 0xEABC, offset: 0x7A3A2, size: 0x8, addend: 0x0, symName: __ZNSt3__13mapIiNS0_IiNS_4pairIi10TEXT_COLOREENS_4lessIiEENS_9allocatorINS1_IKiS3_EEEEEES5_NS6_INS1_IS7_SA_EEEEE5clearB8ue170006Ev, symObjAddr: 0x414C, symBinAddr: 0x10001E134, symSize: 0x24 }
  - { offsetInCU: 0xEAE1, offset: 0x7A3C7, size: 0x8, addend: 0x0, symName: __ZNSt3__16__treeINS_12__value_typeIiNS_3mapIiNS_4pairIi10TEXT_COLOREENS_4lessIiEENS_9allocatorINS3_IKiS5_EEEEEEEENS_19__map_value_compareIiSD_S7_Lb1EEENS8_ISD_EEE5clearEv, symObjAddr: 0x4170, symBinAddr: 0x10001E158, symSize: 0x74 }
  - { offsetInCU: 0xEB08, offset: 0x7A3EE, size: 0x8, addend: 0x0, symName: __ZNSt3__16__treeINS_12__value_typeIiNS_3mapIiNS_4pairIi10TEXT_COLOREENS_4lessIiEENS_9allocatorINS3_IKiS5_EEEEEEEENS_19__map_value_compareIiSD_S7_Lb1EEENS8_ISD_EEE7destroyEPNS_11__tree_nodeISD_PvEE, symObjAddr: 0x41E4, symBinAddr: 0x10001E1CC, symSize: 0xC0 }
  - { offsetInCU: 0xEB5D, offset: 0x7A443, size: 0x8, addend: 0x0, symName: __ZNKSt3__16__treeINS_12__value_typeIiNS_3mapIiNS_4pairIi10TEXT_COLOREENS_4lessIiEENS_9allocatorINS3_IKiS5_EEEEEEEENS_19__map_value_compareIiSD_S7_Lb1EEENS8_ISD_EEE6__rootB8ue170006Ev, symObjAddr: 0x42A4, symBinAddr: 0x10001E28C, symSize: 0x28 }
  - { offsetInCU: 0xEB83, offset: 0x7A469, size: 0x8, addend: 0x0, symName: __ZNSt3__16__treeINS_12__value_typeIiNS_3mapIiNS_4pairIi10TEXT_COLOREENS_4lessIiEENS_9allocatorINS3_IKiS5_EEEEEEEENS_19__map_value_compareIiSD_S7_Lb1EEENS8_ISD_EEE4sizeB8ue170006Ev, symObjAddr: 0x42CC, symBinAddr: 0x10001E2B4, symSize: 0x28 }
  - { offsetInCU: 0xEBA9, offset: 0x7A48F, size: 0x8, addend: 0x0, symName: __ZNSt3__16__treeINS_12__value_typeIiNS_3mapIiNS_4pairIi10TEXT_COLOREENS_4lessIiEENS_9allocatorINS3_IKiS5_EEEEEEEENS_19__map_value_compareIiSD_S7_Lb1EEENS8_ISD_EEE10__end_nodeB8ue170006Ev, symObjAddr: 0x42F4, symBinAddr: 0x10001E2DC, symSize: 0x2C }
  - { offsetInCU: 0xEBCF, offset: 0x7A4B5, size: 0x8, addend: 0x0, symName: __ZNSt3__16__treeINS_12__value_typeIiNS_3mapIiNS_4pairIi10TEXT_COLOREENS_4lessIiEENS_9allocatorINS3_IKiS5_EEEEEEEENS_19__map_value_compareIiSD_S7_Lb1EEENS8_ISD_EEE12__begin_nodeB8ue170006Ev, symObjAddr: 0x4320, symBinAddr: 0x10001E308, symSize: 0x14 }
  - { offsetInCU: 0xEBF5, offset: 0x7A4DB, size: 0x8, addend: 0x0, symName: __ZNSt3__16__treeINS_12__value_typeIiNS_3mapIiNS_4pairIi10TEXT_COLOREENS_4lessIiEENS_9allocatorINS3_IKiS5_EEEEEEEENS_19__map_value_compareIiSD_S7_Lb1EEENS8_ISD_EEE12__node_allocB8ue170006Ev, symObjAddr: 0x4334, symBinAddr: 0x10001E31C, symSize: 0x28 }
  - { offsetInCU: 0xEC20, offset: 0x7A506, size: 0x8, addend: 0x0, symName: __ZNSt3__116allocator_traitsINS_9allocatorINS_11__tree_nodeINS_12__value_typeIiNS_3mapIiNS_4pairIi10TEXT_COLOREENS_4lessIiEENS1_INS5_IKiS7_EEEEEEEEPvEEEEE7destroyB8ue170006INS5_ISA_SD_EEvvEEvRSH_PT_, symObjAddr: 0x435C, symBinAddr: 0x10001E344, symSize: 0x28 }
  - { offsetInCU: 0xEC5A, offset: 0x7A540, size: 0x8, addend: 0x0, symName: __ZNSt3__122__tree_key_value_typesINS_12__value_typeIiNS_3mapIiNS_4pairIi10TEXT_COLOREENS_4lessIiEENS_9allocatorINS3_IKiS5_EEEEEEEEE9__get_ptrB8ue170006ERSD_, symObjAddr: 0x4384, symBinAddr: 0x10001E36C, symSize: 0x24 }
  - { offsetInCU: 0xEC7E, offset: 0x7A564, size: 0x8, addend: 0x0, symName: __ZNSt3__116allocator_traitsINS_9allocatorINS_11__tree_nodeINS_12__value_typeIiNS_3mapIiNS_4pairIi10TEXT_COLOREENS_4lessIiEENS1_INS5_IKiS7_EEEEEEEEPvEEEEE10deallocateB8ue170006ERSH_PSG_m, symObjAddr: 0x43A8, symBinAddr: 0x10001E390, symSize: 0x34 }
  - { offsetInCU: 0xECC0, offset: 0x7A5A6, size: 0x8, addend: 0x0, symName: __ZNSt3__117__compressed_pairINS_15__tree_end_nodeIPNS_16__tree_node_baseIPvEEEENS_9allocatorINS_11__tree_nodeINS_12__value_typeIiNS_3mapIiNS_4pairIi10TEXT_COLOREENS_4lessIiEENS7_INSB_IKiSD_EEEEEEEES3_EEEEE6secondB8ue170006Ev, symObjAddr: 0x43DC, symBinAddr: 0x10001E3C4, symSize: 0x24 }
  - { offsetInCU: 0xECE6, offset: 0x7A5CC, size: 0x8, addend: 0x0, symName: __ZNSt3__122__compressed_pair_elemINS_9allocatorINS_11__tree_nodeINS_12__value_typeIiNS_3mapIiNS_4pairIi10TEXT_COLOREENS_4lessIiEENS1_INS5_IKiS7_EEEEEEEEPvEEEELi1ELb1EE5__getB8ue170006Ev, symObjAddr: 0x4400, symBinAddr: 0x10001E3E8, symSize: 0x14 }
  - { offsetInCU: 0xED0C, offset: 0x7A5F2, size: 0x8, addend: 0x0, symName: __ZNSt3__14pairIKiNS_3mapIiNS0_Ii10TEXT_COLOREENS_4lessIiEENS_9allocatorINS0_IS1_S4_EEEEEEED1Ev, symObjAddr: 0x4414, symBinAddr: 0x10001E3FC, symSize: 0x2C }
  - { offsetInCU: 0xED38, offset: 0x7A61E, size: 0x8, addend: 0x0, symName: __ZNSt3__14pairIKiNS_3mapIiNS0_Ii10TEXT_COLOREENS_4lessIiEENS_9allocatorINS0_IS1_S4_EEEEEEED2Ev, symObjAddr: 0x4440, symBinAddr: 0x10001E428, symSize: 0x30 }
  - { offsetInCU: 0xED64, offset: 0x7A64A, size: 0x8, addend: 0x0, symName: __ZNSt3__13mapIiNS_4pairIi10TEXT_COLOREENS_4lessIiEENS_9allocatorINS1_IKiS3_EEEEED1B8ue170006Ev, symObjAddr: 0x4470, symBinAddr: 0x10001E458, symSize: 0x2C }
  - { offsetInCU: 0xED8E, offset: 0x7A674, size: 0x8, addend: 0x0, symName: __ZNSt3__13mapIiNS_4pairIi10TEXT_COLOREENS_4lessIiEENS_9allocatorINS1_IKiS3_EEEEED2B8ue170006Ev, symObjAddr: 0x449C, symBinAddr: 0x10001E484, symSize: 0x2C }
  - { offsetInCU: 0xEDB8, offset: 0x7A69E, size: 0x8, addend: 0x0, symName: __ZNSt3__16__treeINS_12__value_typeIiNS_4pairIi10TEXT_COLOREEEENS_19__map_value_compareIiS5_NS_4lessIiEELb1EEENS_9allocatorIS5_EEED1Ev, symObjAddr: 0x44C8, symBinAddr: 0x10001E4B0, symSize: 0x2C }
  - { offsetInCU: 0xEDE4, offset: 0x7A6CA, size: 0x8, addend: 0x0, symName: __ZNSt3__16__treeINS_12__value_typeIiNS_4pairIi10TEXT_COLOREEEENS_19__map_value_compareIiS5_NS_4lessIiEELb1EEENS_9allocatorIS5_EEED2Ev, symObjAddr: 0x44F4, symBinAddr: 0x10001E4DC, symSize: 0x38 }
  - { offsetInCU: 0xEE0F, offset: 0x7A6F5, size: 0x8, addend: 0x0, symName: __ZNSt3__16__treeINS_12__value_typeIiNS_4pairIi10TEXT_COLOREEEENS_19__map_value_compareIiS5_NS_4lessIiEELb1EEENS_9allocatorIS5_EEE7destroyEPNS_11__tree_nodeIS5_PvEE, symObjAddr: 0x452C, symBinAddr: 0x10001E514, symSize: 0xC0 }
  - { offsetInCU: 0xEE64, offset: 0x7A74A, size: 0x8, addend: 0x0, symName: __ZNKSt3__16__treeINS_12__value_typeIiNS_4pairIi10TEXT_COLOREEEENS_19__map_value_compareIiS5_NS_4lessIiEELb1EEENS_9allocatorIS5_EEE6__rootB8ue170006Ev, symObjAddr: 0x45EC, symBinAddr: 0x10001E5D4, symSize: 0x28 }
  - { offsetInCU: 0xEE8A, offset: 0x7A770, size: 0x8, addend: 0x0, symName: __ZNSt3__16__treeINS_12__value_typeIiNS_4pairIi10TEXT_COLOREEEENS_19__map_value_compareIiS5_NS_4lessIiEELb1EEENS_9allocatorIS5_EEE12__node_allocB8ue170006Ev, symObjAddr: 0x4614, symBinAddr: 0x10001E5FC, symSize: 0x28 }
  - { offsetInCU: 0xEEB5, offset: 0x7A79B, size: 0x8, addend: 0x0, symName: __ZNSt3__116allocator_traitsINS_9allocatorINS_11__tree_nodeINS_12__value_typeIiNS_4pairIi10TEXT_COLOREEEEPvEEEEE7destroyB8ue170006INS4_IKiS6_EEvvEEvRSA_PT_, symObjAddr: 0x463C, symBinAddr: 0x10001E624, symSize: 0x14 }
  - { offsetInCU: 0xEEEF, offset: 0x7A7D5, size: 0x8, addend: 0x0, symName: __ZNSt3__122__tree_key_value_typesINS_12__value_typeIiNS_4pairIi10TEXT_COLOREEEEE9__get_ptrB8ue170006ERS5_, symObjAddr: 0x4650, symBinAddr: 0x10001E638, symSize: 0x24 }
  - { offsetInCU: 0xEF13, offset: 0x7A7F9, size: 0x8, addend: 0x0, symName: __ZNSt3__116allocator_traitsINS_9allocatorINS_11__tree_nodeINS_12__value_typeIiNS_4pairIi10TEXT_COLOREEEEPvEEEEE10deallocateB8ue170006ERSA_PS9_m, symObjAddr: 0x4674, symBinAddr: 0x10001E65C, symSize: 0x34 }
  - { offsetInCU: 0xEF55, offset: 0x7A83B, size: 0x8, addend: 0x0, symName: __ZNSt3__117__compressed_pairINS_15__tree_end_nodeIPNS_16__tree_node_baseIPvEEEENS_9allocatorINS_11__tree_nodeINS_12__value_typeIiNS_4pairIi10TEXT_COLOREEEES3_EEEEE6secondB8ue170006Ev, symObjAddr: 0x46A8, symBinAddr: 0x10001E690, symSize: 0x24 }
  - { offsetInCU: 0xEF7B, offset: 0x7A861, size: 0x8, addend: 0x0, symName: __ZNSt3__122__compressed_pair_elemINS_9allocatorINS_11__tree_nodeINS_12__value_typeIiNS_4pairIi10TEXT_COLOREEEEPvEEEELi1ELb1EE5__getB8ue170006Ev, symObjAddr: 0x46CC, symBinAddr: 0x10001E6B4, symSize: 0x14 }
  - { offsetInCU: 0xEFA1, offset: 0x7A887, size: 0x8, addend: 0x0, symName: __ZNSt3__112__value_typeIiNS_4pairIi10TEXT_COLOREEE11__get_valueB8ue170006Ev, symObjAddr: 0x46E0, symBinAddr: 0x10001E6C8, symSize: 0x14 }
  - { offsetInCU: 0xEFC7, offset: 0x7A8AD, size: 0x8, addend: 0x0, symName: __ZNSt3__19allocatorINS_11__tree_nodeINS_12__value_typeIiNS_4pairIi10TEXT_COLOREEEEPvEEE10deallocateB8ue170006EPS8_m, symObjAddr: 0x46F4, symBinAddr: 0x10001E6DC, symSize: 0x74 }
  - { offsetInCU: 0xF009, offset: 0x7A8EF, size: 0x8, addend: 0x0, symName: __ZNKSt3__16__treeINS_12__value_typeIiNS_4pairIi10TEXT_COLOREEEENS_19__map_value_compareIiS5_NS_4lessIiEELb1EEENS_9allocatorIS5_EEE10__end_nodeB8ue170006Ev, symObjAddr: 0x4768, symBinAddr: 0x10001E750, symSize: 0x2C }
  - { offsetInCU: 0xF02F, offset: 0x7A915, size: 0x8, addend: 0x0, symName: __ZNKSt3__117__compressed_pairINS_15__tree_end_nodeIPNS_16__tree_node_baseIPvEEEENS_9allocatorINS_11__tree_nodeINS_12__value_typeIiNS_4pairIi10TEXT_COLOREEEES3_EEEEE5firstB8ue170006Ev, symObjAddr: 0x47A8, symBinAddr: 0x10001E77C, symSize: 0x24 }
  - { offsetInCU: 0xF055, offset: 0x7A93B, size: 0x8, addend: 0x0, symName: __ZNSt3__112__value_typeIiNS_3mapIiNS_4pairIi10TEXT_COLOREENS_4lessIiEENS_9allocatorINS2_IKiS4_EEEEEEE11__get_valueB8ue170006Ev, symObjAddr: 0x47E0, symBinAddr: 0x10001E7A0, symSize: 0x14 }
  - { offsetInCU: 0xF07B, offset: 0x7A961, size: 0x8, addend: 0x0, symName: __ZNSt3__19allocatorINS_11__tree_nodeINS_12__value_typeIiNS_3mapIiNS_4pairIi10TEXT_COLOREENS_4lessIiEENS0_INS4_IKiS6_EEEEEEEEPvEEE10deallocateB8ue170006EPSF_m, symObjAddr: 0x47F4, symBinAddr: 0x10001E7B4, symSize: 0x70 }
  - { offsetInCU: 0xF0BD, offset: 0x7A9A3, size: 0x8, addend: 0x0, symName: __ZNKSt3__16__treeINS_12__value_typeIiNS_3mapIiNS_4pairIi10TEXT_COLOREENS_4lessIiEENS_9allocatorINS3_IKiS5_EEEEEEEENS_19__map_value_compareIiSD_S7_Lb1EEENS8_ISD_EEE10__end_nodeB8ue170006Ev, symObjAddr: 0x4864, symBinAddr: 0x10001E824, symSize: 0x2C }
  - { offsetInCU: 0xF0E3, offset: 0x7A9C9, size: 0x8, addend: 0x0, symName: __ZNKSt3__117__compressed_pairINS_15__tree_end_nodeIPNS_16__tree_node_baseIPvEEEENS_9allocatorINS_11__tree_nodeINS_12__value_typeIiNS_3mapIiNS_4pairIi10TEXT_COLOREENS_4lessIiEENS7_INSB_IKiSD_EEEEEEEES3_EEEEE5firstB8ue170006Ev, symObjAddr: 0x4890, symBinAddr: 0x10001E850, symSize: 0x24 }
  - { offsetInCU: 0xF109, offset: 0x7A9EF, size: 0x8, addend: 0x0, symName: __ZNSt3__117__compressed_pairImNS_19__map_value_compareIiNS_12__value_typeIiNS_3mapIiNS_4pairIi10TEXT_COLOREENS_4lessIiEENS_9allocatorINS4_IKiS6_EEEEEEEES8_Lb1EEEE5firstB8ue170006Ev, symObjAddr: 0x48B4, symBinAddr: 0x10001E874, symSize: 0x24 }
  - { offsetInCU: 0xF12F, offset: 0x7AA15, size: 0x8, addend: 0x0, symName: __ZNSt3__117__compressed_pairINS_15__tree_end_nodeIPNS_16__tree_node_baseIPvEEEENS_9allocatorINS_11__tree_nodeINS_12__value_typeIiNS_3mapIiNS_4pairIi10TEXT_COLOREENS_4lessIiEENS7_INSB_IKiSD_EEEEEEEES3_EEEEE5firstB8ue170006Ev, symObjAddr: 0x48EC, symBinAddr: 0x10001E898, symSize: 0x24 }
  - { offsetInCU: 0xF155, offset: 0x7AA3B, size: 0x8, addend: 0x0, symName: __ZNK16ECTextViewConfig12GetWndRowNumEv, symObjAddr: 0x4964, symBinAddr: 0x10001E8BC, symSize: 0x3C }
  - { offsetInCU: 0xF17B, offset: 0x7AA61, size: 0x8, addend: 0x0, symName: __ZNK16ECTextViewConfig12GetWndColNumEv, symObjAddr: 0x49A0, symBinAddr: 0x10001E8F8, symSize: 0x18 }
  - { offsetInCU: 0xF1A1, offset: 0x7AA87, size: 0x8, addend: 0x0, symName: __ZNSt3__16vectorIP15ECConsoleUIItemNS_9allocatorIS2_EEEC2B8ue170006Ev, symObjAddr: 0x49B8, symBinAddr: 0x10001E910, symSize: 0x44 }
  - { offsetInCU: 0xF1D0, offset: 0x7AAB6, size: 0x8, addend: 0x0, symName: __ZNSt3__117__compressed_pairIPP15ECConsoleUIItemNS_9allocatorIS2_EEEC1B8ue170006IDnNS_18__default_init_tagEEEOT_OT0_, symObjAddr: 0x49FC, symBinAddr: 0x10001E954, symSize: 0x3C }
  - { offsetInCU: 0xF228, offset: 0x7AB0E, size: 0x8, addend: 0x0, symName: __ZNSt3__117__compressed_pairIPP15ECConsoleUIItemNS_9allocatorIS2_EEEC2B8ue170006IDnNS_18__default_init_tagEEEOT_OT0_, symObjAddr: 0x4A38, symBinAddr: 0x10001E990, symSize: 0x40 }
  - { offsetInCU: 0xF280, offset: 0x7AB66, size: 0x8, addend: 0x0, symName: __ZNSt3__122__compressed_pair_elemIPP15ECConsoleUIItemLi0ELb0EEC2B8ue170006IDnvEEOT_, symObjAddr: 0x4A78, symBinAddr: 0x10001E9D0, symSize: 0x1C }
  - { offsetInCU: 0xF2C2, offset: 0x7ABA8, size: 0x8, addend: 0x0, symName: __ZNSt3__122__compressed_pair_elemINS_9allocatorIP15ECConsoleUIItemEELi1ELb1EEC2B8ue170006ENS_18__default_init_tagE, symObjAddr: 0x4A94, symBinAddr: 0x10001E9EC, symSize: 0x2C }
  - { offsetInCU: 0xF2F7, offset: 0x7ABDD, size: 0x8, addend: 0x0, symName: __ZNSt3__19allocatorIP15ECConsoleUIItemEC2B8ue170006Ev, symObjAddr: 0x4AC0, symBinAddr: 0x10001EA18, symSize: 0x2C }
  - { offsetInCU: 0xF321, offset: 0x7AC07, size: 0x8, addend: 0x0, symName: __ZNSt3__116__non_trivial_ifILb1ENS_9allocatorIP15ECConsoleUIItemEEEC2B8ue170006Ev, symObjAddr: 0x4AEC, symBinAddr: 0x10001EA44, symSize: 0x14 }
  - { offsetInCU: 0xF34B, offset: 0x7AC31, size: 0x8, addend: 0x0, symName: __ZNSt3__16vectorIP15ECConsoleUIItemNS_9allocatorIS2_EEED2B8ue170006Ev, symObjAddr: 0x4B00, symBinAddr: 0x10001EA58, symSize: 0x3C }
  - { offsetInCU: 0xF375, offset: 0x7AC5B, size: 0x8, addend: 0x0, symName: __ZNSt3__16vectorIP15ECConsoleUIItemNS_9allocatorIS2_EEE16__destroy_vectorC1B8ue170006ERS5_, symObjAddr: 0x4B3C, symBinAddr: 0x10001EA94, symSize: 0x34 }
  - { offsetInCU: 0xF3AE, offset: 0x7AC94, size: 0x8, addend: 0x0, symName: __ZNSt3__16vectorIP15ECConsoleUIItemNS_9allocatorIS2_EEE16__destroy_vectorclB8ue170006Ev, symObjAddr: 0x4B70, symBinAddr: 0x10001EAC8, symSize: 0x90 }
  - { offsetInCU: 0xF3D4, offset: 0x7ACBA, size: 0x8, addend: 0x0, symName: __ZNSt3__16vectorIP15ECConsoleUIItemNS_9allocatorIS2_EEE16__destroy_vectorC2B8ue170006ERS5_, symObjAddr: 0x4C00, symBinAddr: 0x10001EB58, symSize: 0x20 }
  - { offsetInCU: 0xF40D, offset: 0x7ACF3, size: 0x8, addend: 0x0, symName: __ZNSt3__16vectorIP15ECConsoleUIItemNS_9allocatorIS2_EEE7__clearB8ue170006Ev, symObjAddr: 0x4C20, symBinAddr: 0x10001EB78, symSize: 0x28 }
  - { offsetInCU: 0xF433, offset: 0x7AD19, size: 0x8, addend: 0x0, symName: __ZNKSt3__16vectorIP15ECConsoleUIItemNS_9allocatorIS2_EEE17__annotate_deleteB8ue170006Ev, symObjAddr: 0x4C48, symBinAddr: 0x10001EBA0, symSize: 0xB8 }
  - { offsetInCU: 0xF459, offset: 0x7AD3F, size: 0x8, addend: 0x0, symName: __ZNSt3__116allocator_traitsINS_9allocatorIP15ECConsoleUIItemEEE10deallocateB8ue170006ERS4_PS3_m, symObjAddr: 0x4D00, symBinAddr: 0x10001EC58, symSize: 0x34 }
  - { offsetInCU: 0xF49B, offset: 0x7AD81, size: 0x8, addend: 0x0, symName: __ZNSt3__16vectorIP15ECConsoleUIItemNS_9allocatorIS2_EEE7__allocB8ue170006Ev, symObjAddr: 0x4D34, symBinAddr: 0x10001EC8C, symSize: 0x28 }
  - { offsetInCU: 0xF4C1, offset: 0x7ADA7, size: 0x8, addend: 0x0, symName: __ZNKSt3__16vectorIP15ECConsoleUIItemNS_9allocatorIS2_EEE8capacityB8ue170006Ev, symObjAddr: 0x4D5C, symBinAddr: 0x10001ECB4, symSize: 0x40 }
  - { offsetInCU: 0xF4E7, offset: 0x7ADCD, size: 0x8, addend: 0x0, symName: __ZNSt3__16vectorIP15ECConsoleUIItemNS_9allocatorIS2_EEE22__base_destruct_at_endB8ue170006EPS2_, symObjAddr: 0x4D9C, symBinAddr: 0x10001ECF4, symSize: 0xA0 }
  - { offsetInCU: 0xF52B, offset: 0x7AE11, size: 0x8, addend: 0x0, symName: __ZNSt3__116allocator_traitsINS_9allocatorIP15ECConsoleUIItemEEE7destroyB8ue170006IS3_vEEvRS4_PT_, symObjAddr: 0x4E3C, symBinAddr: 0x10001ED94, symSize: 0x2C }
  - { offsetInCU: 0xF568, offset: 0x7AE4E, size: 0x8, addend: 0x0, symName: __ZNSt3__19allocatorIP15ECConsoleUIItemE7destroyB8ue170006EPS2_, symObjAddr: 0x4E7C, symBinAddr: 0x10001EDD4, symSize: 0x14 }
  - { offsetInCU: 0xF59C, offset: 0x7AE82, size: 0x8, addend: 0x0, symName: __ZNKSt3__16vectorIP15ECConsoleUIItemNS_9allocatorIS2_EEE31__annotate_contiguous_containerB8ue170006EPKvS7_S7_S7_, symObjAddr: 0x4E90, symBinAddr: 0x10001EDE8, symSize: 0x20 }
  - { offsetInCU: 0xF5EE, offset: 0x7AED4, size: 0x8, addend: 0x0, symName: __ZNKSt3__16vectorIP15ECConsoleUIItemNS_9allocatorIS2_EEE4dataB8ue170006Ev, symObjAddr: 0x4EB0, symBinAddr: 0x10001EE08, symSize: 0x28 }
  - { offsetInCU: 0xF614, offset: 0x7AEFA, size: 0x8, addend: 0x0, symName: __ZNSt3__19allocatorIP15ECConsoleUIItemE10deallocateB8ue170006EPS2_m, symObjAddr: 0x4ED8, symBinAddr: 0x10001EE30, symSize: 0x70 }
  - { offsetInCU: 0xF656, offset: 0x7AF3C, size: 0x8, addend: 0x0, symName: __ZNSt3__117__compressed_pairIPP15ECConsoleUIItemNS_9allocatorIS2_EEE6secondB8ue170006Ev, symObjAddr: 0x4F48, symBinAddr: 0x10001EEA0, symSize: 0x24 }
  - { offsetInCU: 0xF67C, offset: 0x7AF62, size: 0x8, addend: 0x0, symName: __ZNSt3__122__compressed_pair_elemINS_9allocatorIP15ECConsoleUIItemEELi1ELb1EE5__getB8ue170006Ev, symObjAddr: 0x4F6C, symBinAddr: 0x10001EEC4, symSize: 0x14 }
  - { offsetInCU: 0xF6A2, offset: 0x7AF88, size: 0x8, addend: 0x0, symName: __ZNKSt3__16vectorIP15ECConsoleUIItemNS_9allocatorIS2_EEE9__end_capB8ue170006Ev, symObjAddr: 0x4F80, symBinAddr: 0x10001EED8, symSize: 0x28 }
  - { offsetInCU: 0xF6C8, offset: 0x7AFAE, size: 0x8, addend: 0x0, symName: __ZNKSt3__117__compressed_pairIPP15ECConsoleUIItemNS_9allocatorIS2_EEE5firstB8ue170006Ev, symObjAddr: 0x4FA8, symBinAddr: 0x10001EF00, symSize: 0x24 }
  - { offsetInCU: 0xF6EE, offset: 0x7AFD4, size: 0x8, addend: 0x0, symName: __ZNKSt3__122__compressed_pair_elemIPP15ECConsoleUIItemLi0ELb0EE5__getB8ue170006Ev, symObjAddr: 0x4FCC, symBinAddr: 0x10001EF24, symSize: 0x14 }
  - { offsetInCU: 0xF714, offset: 0x7AFFA, size: 0x8, addend: 0x0, symName: __ZNSt3__16vectorIP15ECConsoleUIItemNS_9allocatorIS2_EEE9__end_capB8ue170006Ev, symObjAddr: 0x4FE0, symBinAddr: 0x10001EF38, symSize: 0x28 }
  - { offsetInCU: 0xF73A, offset: 0x7B020, size: 0x8, addend: 0x0, symName: __ZNSt3__16vectorIP15ECConsoleUIItemNS_9allocatorIS2_EEE22__construct_one_at_endB8ue170006IJRKS2_EEEvDpOT_, symObjAddr: 0x5008, symBinAddr: 0x10001EF60, symSize: 0x98 }
  - { offsetInCU: 0xF788, offset: 0x7B06E, size: 0x8, addend: 0x0, symName: __ZNSt3__16vectorIP15ECConsoleUIItemNS_9allocatorIS2_EEE21__push_back_slow_pathIRKS2_EEvOT_, symObjAddr: 0x50A0, symBinAddr: 0x10001EFF8, symSize: 0xE0 }
  - { offsetInCU: 0xF7E6, offset: 0x7B0CC, size: 0x8, addend: 0x0, symName: __ZNSt3__117__compressed_pairIPP15ECConsoleUIItemNS_9allocatorIS2_EEE5firstB8ue170006Ev, symObjAddr: 0x5180, symBinAddr: 0x10001F0D8, symSize: 0x24 }
  - { offsetInCU: 0xF80C, offset: 0x7B0F2, size: 0x8, addend: 0x0, symName: __ZNSt3__122__compressed_pair_elemIPP15ECConsoleUIItemLi0ELb0EE5__getB8ue170006Ev, symObjAddr: 0x51A4, symBinAddr: 0x10001F0FC, symSize: 0x14 }
  - { offsetInCU: 0xF84B, offset: 0x7B131, size: 0x8, addend: 0x0, symName: __ZNSt3__16vectorIP15ECConsoleUIItemNS_9allocatorIS2_EEE21_ConstructTransactionC1B8ue170006ERS5_m, symObjAddr: 0x51B8, symBinAddr: 0x10001F110, symSize: 0x3C }
  - { offsetInCU: 0xF893, offset: 0x7B179, size: 0x8, addend: 0x0, symName: __ZNSt3__116allocator_traitsINS_9allocatorIP15ECConsoleUIItemEEE9constructB8ue170006IS3_JRKS3_EvEEvRS4_PT_DpOT0_, symObjAddr: 0x51F4, symBinAddr: 0x10001F14C, symSize: 0x34 }
  - { offsetInCU: 0xF8EA, offset: 0x7B1D0, size: 0x8, addend: 0x0, symName: __ZNSt3__16vectorIP15ECConsoleUIItemNS_9allocatorIS2_EEE21_ConstructTransactionD1B8ue170006Ev, symObjAddr: 0x5228, symBinAddr: 0x10001F180, symSize: 0x2C }
  - { offsetInCU: 0xF914, offset: 0x7B1FA, size: 0x8, addend: 0x0, symName: __ZNSt3__16vectorIP15ECConsoleUIItemNS_9allocatorIS2_EEE21_ConstructTransactionC2B8ue170006ERS5_m, symObjAddr: 0x5254, symBinAddr: 0x10001F1AC, symSize: 0x44 }
  - { offsetInCU: 0xF95C, offset: 0x7B242, size: 0x8, addend: 0x0, symName: __ZNSt3__19allocatorIP15ECConsoleUIItemE9constructB8ue170006IS2_JRKS2_EEEvPT_DpOT0_, symObjAddr: 0x5298, symBinAddr: 0x10001F1F0, symSize: 0x28 }
  - { offsetInCU: 0xF9B2, offset: 0x7B298, size: 0x8, addend: 0x0, symName: __ZNSt3__16vectorIP15ECConsoleUIItemNS_9allocatorIS2_EEE21_ConstructTransactionD2B8ue170006Ev, symObjAddr: 0x52C0, symBinAddr: 0x10001F218, symSize: 0x20 }
  - { offsetInCU: 0xF9DB, offset: 0x7B2C1, size: 0x8, addend: 0x0, symName: __ZNKSt3__16vectorIP15ECConsoleUIItemNS_9allocatorIS2_EEE11__recommendB8ue170006Em, symObjAddr: 0x52E0, symBinAddr: 0x10001F238, symSize: 0xB4 }
  - { offsetInCU: 0xFA30, offset: 0x7B316, size: 0x8, addend: 0x0, symName: __ZNSt3__114__split_bufferIP15ECConsoleUIItemRNS_9allocatorIS2_EEEC1EmmS5_, symObjAddr: 0x5394, symBinAddr: 0x10001F2EC, symSize: 0x44 }
  - { offsetInCU: 0xFA86, offset: 0x7B36C, size: 0x8, addend: 0x0, symName: __ZNSt3__114__split_bufferIP15ECConsoleUIItemRNS_9allocatorIS2_EEED1Ev, symObjAddr: 0x54E8, symBinAddr: 0x10001F440, symSize: 0x2C }
  - { offsetInCU: 0xFAB1, offset: 0x7B397, size: 0x8, addend: 0x0, symName: __ZNKSt3__16vectorIP15ECConsoleUIItemNS_9allocatorIS2_EEE8max_sizeEv, symObjAddr: 0x5514, symBinAddr: 0x10001F46C, symSize: 0x74 }
  - { offsetInCU: 0xFAD9, offset: 0x7B3BF, size: 0x8, addend: 0x0, symName: __ZNKSt3__16vectorIP15ECConsoleUIItemNS_9allocatorIS2_EEE20__throw_length_errorB8ue170006Ev, symObjAddr: 0x5588, symBinAddr: 0x10001F4E0, symSize: 0x1C }
  - { offsetInCU: 0xFB09, offset: 0x7B3EF, size: 0x8, addend: 0x0, symName: __ZNSt3__116allocator_traitsINS_9allocatorIP15ECConsoleUIItemEEE8max_sizeB8ue170006IS4_vEEmRKS4_, symObjAddr: 0x55A4, symBinAddr: 0x10001F4FC, symSize: 0x24 }
  - { offsetInCU: 0xFB37, offset: 0x7B41D, size: 0x8, addend: 0x0, symName: __ZNKSt3__16vectorIP15ECConsoleUIItemNS_9allocatorIS2_EEE7__allocB8ue170006Ev, symObjAddr: 0x55C8, symBinAddr: 0x10001F520, symSize: 0x28 }
  - { offsetInCU: 0xFB5D, offset: 0x7B443, size: 0x8, addend: 0x0, symName: __ZNKSt3__19allocatorIP15ECConsoleUIItemE8max_sizeB8ue170006Ev, symObjAddr: 0x55F0, symBinAddr: 0x10001F548, symSize: 0x14 }
  - { offsetInCU: 0xFB83, offset: 0x7B469, size: 0x8, addend: 0x0, symName: __ZNKSt3__117__compressed_pairIPP15ECConsoleUIItemNS_9allocatorIS2_EEE6secondB8ue170006Ev, symObjAddr: 0x5604, symBinAddr: 0x10001F55C, symSize: 0x24 }
  - { offsetInCU: 0xFBA9, offset: 0x7B48F, size: 0x8, addend: 0x0, symName: __ZNKSt3__122__compressed_pair_elemINS_9allocatorIP15ECConsoleUIItemEELi1ELb1EE5__getB8ue170006Ev, symObjAddr: 0x5628, symBinAddr: 0x10001F580, symSize: 0x14 }
  - { offsetInCU: 0xFBCF, offset: 0x7B4B5, size: 0x8, addend: 0x0, symName: __ZNSt3__114__split_bufferIP15ECConsoleUIItemRNS_9allocatorIS2_EEEC2EmmS5_, symObjAddr: 0x563C, symBinAddr: 0x10001F594, symSize: 0xD4 }
  - { offsetInCU: 0xFC43, offset: 0x7B529, size: 0x8, addend: 0x0, symName: __ZNSt3__117__compressed_pairIPP15ECConsoleUIItemRNS_9allocatorIS2_EEEC1B8ue170006IDnS6_EEOT_OT0_, symObjAddr: 0x5710, symBinAddr: 0x10001F668, symSize: 0x3C }
  - { offsetInCU: 0xFC9B, offset: 0x7B581, size: 0x8, addend: 0x0, symName: __ZNSt3__114__split_bufferIP15ECConsoleUIItemRNS_9allocatorIS2_EEE7__allocB8ue170006Ev, symObjAddr: 0x578C, symBinAddr: 0x10001F6E4, symSize: 0x28 }
  - { offsetInCU: 0xFCC1, offset: 0x7B5A7, size: 0x8, addend: 0x0, symName: __ZNSt3__114__split_bufferIP15ECConsoleUIItemRNS_9allocatorIS2_EEE9__end_capB8ue170006Ev, symObjAddr: 0x57B4, symBinAddr: 0x10001F70C, symSize: 0x28 }
  - { offsetInCU: 0xFCE7, offset: 0x7B5CD, size: 0x8, addend: 0x0, symName: __ZNSt3__117__compressed_pairIPP15ECConsoleUIItemRNS_9allocatorIS2_EEEC2B8ue170006IDnS6_EEOT_OT0_, symObjAddr: 0x57DC, symBinAddr: 0x10001F734, symSize: 0x48 }
  - { offsetInCU: 0xFD3F, offset: 0x7B625, size: 0x8, addend: 0x0, symName: __ZNSt3__122__compressed_pair_elemIRNS_9allocatorIP15ECConsoleUIItemEELi1ELb0EEC2B8ue170006IS5_vEEOT_, symObjAddr: 0x5824, symBinAddr: 0x10001F77C, symSize: 0x20 }
  - { offsetInCU: 0xFD81, offset: 0x7B667, size: 0x8, addend: 0x0, symName: __ZNSt3__19allocatorIP15ECConsoleUIItemE8allocateB8ue170006Em, symObjAddr: 0x5844, symBinAddr: 0x10001F79C, symSize: 0x84 }
  - { offsetInCU: 0xFDB5, offset: 0x7B69B, size: 0x8, addend: 0x0, symName: __ZNSt3__117__compressed_pairIPP15ECConsoleUIItemRNS_9allocatorIS2_EEE6secondB8ue170006Ev, symObjAddr: 0x58C8, symBinAddr: 0x10001F820, symSize: 0x28 }
  - { offsetInCU: 0xFDDB, offset: 0x7B6C1, size: 0x8, addend: 0x0, symName: __ZNSt3__122__compressed_pair_elemIRNS_9allocatorIP15ECConsoleUIItemEELi1ELb0EE5__getB8ue170006Ev, symObjAddr: 0x58F0, symBinAddr: 0x10001F848, symSize: 0x18 }
  - { offsetInCU: 0xFE01, offset: 0x7B6E7, size: 0x8, addend: 0x0, symName: __ZNSt3__117__compressed_pairIPP15ECConsoleUIItemRNS_9allocatorIS2_EEE5firstB8ue170006Ev, symObjAddr: 0x5908, symBinAddr: 0x10001F860, symSize: 0x24 }
  - { offsetInCU: 0xFE27, offset: 0x7B70D, size: 0x8, addend: 0x0, symName: __ZNSt3__116reverse_iteratorIPP15ECConsoleUIItemEC1B8ue170006ES3_, symObjAddr: 0x5A14, symBinAddr: 0x10001F96C, symSize: 0x34 }
  - { offsetInCU: 0xFE5F, offset: 0x7B745, size: 0x8, addend: 0x0, symName: __ZNKSt3__116reverse_iteratorIPP15ECConsoleUIItemE4baseB8ue170006Ev, symObjAddr: 0x5A48, symBinAddr: 0x10001F9A0, symSize: 0x18 }
  - { offsetInCU: 0xFE85, offset: 0x7B76B, size: 0x8, addend: 0x0, symName: __ZNKSt3__16vectorIP15ECConsoleUIItemNS_9allocatorIS2_EEE14__annotate_newB8ue170006Em, symObjAddr: 0x5A9C, symBinAddr: 0x10001F9F4, symSize: 0xAC }
  - { offsetInCU: 0xFEBA, offset: 0x7B7A0, size: 0x8, addend: 0x0, symName: __ZNKSt3__116reverse_iteratorIPP15ECConsoleUIItemEdeB8ue170006Ev, symObjAddr: 0x5BE0, symBinAddr: 0x10001FB38, symSize: 0x28 }
  - { offsetInCU: 0xFEEE, offset: 0x7B7D4, size: 0x8, addend: 0x0, symName: __ZNSt3__116reverse_iteratorIPP15ECConsoleUIItemEppB8ue170006Ev, symObjAddr: 0x5C08, symBinAddr: 0x10001FB60, symSize: 0x20 }
  - { offsetInCU: 0xFF19, offset: 0x7B7FF, size: 0x8, addend: 0x0, symName: __ZNSt3__119__to_address_helperINS_16reverse_iteratorIPP15ECConsoleUIItemEEvE6__callB8ue170006ERKS5_, symObjAddr: 0x5CA0, symBinAddr: 0x10001FBF8, symSize: 0x4C }
  - { offsetInCU: 0xFF3C, offset: 0x7B822, size: 0x8, addend: 0x0, symName: __ZNKSt3__116reverse_iteratorIPP15ECConsoleUIItemEptB8ue170006Ev, symObjAddr: 0x5CEC, symBinAddr: 0x10001FC44, symSize: 0x24 }
  - { offsetInCU: 0xFF7B, offset: 0x7B861, size: 0x8, addend: 0x0, symName: __ZNKSt3__111__move_loopINS_17_ClassicAlgPolicyEEclB8ue170006INS_16reverse_iteratorIPP15ECConsoleUIItemEES8_S8_EENS_4pairIT_T1_EESA_T0_SB_, symObjAddr: 0x5F88, symBinAddr: 0x10001FEE0, symSize: 0xA0 }
  - { offsetInCU: 0xFFEB, offset: 0x7B8D1, size: 0x8, addend: 0x0, symName: __ZNSt3__18_IterOpsINS_17_ClassicAlgPolicyEE11__iter_moveB8ue170006IRNS_16reverse_iteratorIPP15ECConsoleUIItemEEEENS_9enable_ifIXsr12is_referenceIDTdeclsr3stdE7declvalIRT_EEEEE5valueEDTclsr3stdE4movedeclsr3stdE7declvalISC_EEEEE4typeEOSB_, symObjAddr: 0x6188, symBinAddr: 0x1000200E0, symSize: 0x28 }
  - { offsetInCU: 0x10017, offset: 0x7B8FD, size: 0x8, addend: 0x0, symName: __ZNSt3__18_IterOpsINS_17_ClassicAlgPolicyEE25__validate_iter_referenceB8ue170006IRNS_16reverse_iteratorIPP15ECConsoleUIItemEEEEvv, symObjAddr: 0x61B0, symBinAddr: 0x100020108, symSize: 0x4 }
  - { offsetInCU: 0x10035, offset: 0x7B91B, size: 0x8, addend: 0x0, symName: __ZNSt3__118__unwrap_iter_implINS_16reverse_iteratorIPP15ECConsoleUIItemEELb0EE8__unwrapB8ue170006ES5_, symObjAddr: 0x61B4, symBinAddr: 0x10002010C, symSize: 0x24 }
  - { offsetInCU: 0x10058, offset: 0x7B93E, size: 0x8, addend: 0x0, symName: __ZNSt3__14pairINS_16reverse_iteratorIPP15ECConsoleUIItemEES5_EC1B8ue170006ERKS5_S8_, symObjAddr: 0x61D8, symBinAddr: 0x100020130, symSize: 0x3C }
  - { offsetInCU: 0x1009E, offset: 0x7B984, size: 0x8, addend: 0x0, symName: __ZNSt3__14pairINS_16reverse_iteratorIPP15ECConsoleUIItemEES5_EC2B8ue170006ERKS5_S8_, symObjAddr: 0x6214, symBinAddr: 0x10002016C, symSize: 0x34 }
  - { offsetInCU: 0x100E4, offset: 0x7B9CA, size: 0x8, addend: 0x0, symName: __ZNSt3__118__unwrap_iter_implINS_16reverse_iteratorIPP15ECConsoleUIItemEELb0EE8__rewrapB8ue170006ES5_S5_, symObjAddr: 0x6248, symBinAddr: 0x1000201A0, symSize: 0x2C }
  - { offsetInCU: 0x10112, offset: 0x7B9F8, size: 0x8, addend: 0x0, symName: __ZNSt3__116reverse_iteratorIPP15ECConsoleUIItemEC2B8ue170006ES3_, symObjAddr: 0x6274, symBinAddr: 0x1000201CC, symSize: 0x28 }
  - { offsetInCU: 0x1014A, offset: 0x7BA30, size: 0x8, addend: 0x0, symName: __ZNSt3__114__split_bufferIP15ECConsoleUIItemRNS_9allocatorIS2_EEED2Ev, symObjAddr: 0x629C, symBinAddr: 0x1000201F4, symSize: 0x80 }
  - { offsetInCU: 0x10176, offset: 0x7BA5C, size: 0x8, addend: 0x0, symName: __ZNSt3__114__split_bufferIP15ECConsoleUIItemRNS_9allocatorIS2_EEE5clearB8ue170006Ev, symObjAddr: 0x631C, symBinAddr: 0x100020274, symSize: 0x28 }
  - { offsetInCU: 0x1019C, offset: 0x7BA82, size: 0x8, addend: 0x0, symName: __ZNKSt3__114__split_bufferIP15ECConsoleUIItemRNS_9allocatorIS2_EEE8capacityB8ue170006Ev, symObjAddr: 0x6344, symBinAddr: 0x10002029C, symSize: 0x40 }
  - { offsetInCU: 0x101C2, offset: 0x7BAA8, size: 0x8, addend: 0x0, symName: __ZNSt3__114__split_bufferIP15ECConsoleUIItemRNS_9allocatorIS2_EEE17__destruct_at_endB8ue170006EPS2_, symObjAddr: 0x6384, symBinAddr: 0x1000202DC, symSize: 0x2C }
  - { offsetInCU: 0x101F5, offset: 0x7BADB, size: 0x8, addend: 0x0, symName: __ZNSt3__114__split_bufferIP15ECConsoleUIItemRNS_9allocatorIS2_EEE17__destruct_at_endB8ue170006EPS2_NS_17integral_constantIbLb0EEE, symObjAddr: 0x63B0, symBinAddr: 0x100020308, symSize: 0x94 }
  - { offsetInCU: 0x10236, offset: 0x7BB1C, size: 0x8, addend: 0x0, symName: __ZNKSt3__114__split_bufferIP15ECConsoleUIItemRNS_9allocatorIS2_EEE9__end_capB8ue170006Ev, symObjAddr: 0x6444, symBinAddr: 0x10002039C, symSize: 0x28 }
  - { offsetInCU: 0x1025C, offset: 0x7BB42, size: 0x8, addend: 0x0, symName: __ZNKSt3__117__compressed_pairIPP15ECConsoleUIItemRNS_9allocatorIS2_EEE5firstB8ue170006Ev, symObjAddr: 0x646C, symBinAddr: 0x1000203C4, symSize: 0x24 }
  - { offsetInCU: 0x484D, offset: 0x804EF, size: 0x8, addend: 0x0, symName: __ZN8ECFlightC2ERKNSt3__112basic_stringIcNS0_11char_traitsIcEENS0_9allocatorIcEEEES8_di, symObjAddr: 0x0, symBinAddr: 0x1000203E8, symSize: 0xFC }
  - { offsetInCU: 0x48B1, offset: 0x80553, size: 0x8, addend: 0x0, symName: __ZN8ECFlight13SetArriveTimeEv, symObjAddr: 0x128, symBinAddr: 0x1000204E4, symSize: 0xEC }
  - { offsetInCU: 0x48D9, offset: 0x8057B, size: 0x8, addend: 0x0, symName: __ZN8ECFlightC1ERKNSt3__112basic_stringIcNS0_11char_traitsIcEENS0_9allocatorIcEEEES8_di, symObjAddr: 0x220, symBinAddr: 0x1000205D0, symSize: 0x4C }
  - { offsetInCU: 0x493D, offset: 0x805DF, size: 0x8, addend: 0x0, symName: __ZNK8ECFlight16GetDepartureTimeEv, symObjAddr: 0x26C, symBinAddr: 0x10002061C, symSize: 0x18 }
  - { offsetInCU: 0x4965, offset: 0x80607, size: 0x8, addend: 0x0, symName: __ZNK8ECFlight14GetArrivalTimeEv, symObjAddr: 0x284, symBinAddr: 0x100020634, symSize: 0x18 }
  - { offsetInCU: 0x498D, offset: 0x8062F, size: 0x8, addend: 0x0, symName: __ZN8ECFlight19SetMaxNumPassengersEi, symObjAddr: 0x29C, symBinAddr: 0x10002064C, symSize: 0x20 }
  - { offsetInCU: 0x49C2, offset: 0x80664, size: 0x8, addend: 0x0, symName: __ZNK8ECFlight9GetSourceEv, symObjAddr: 0x2BC, symBinAddr: 0x10002066C, symSize: 0x3C }
  - { offsetInCU: 0x49EA, offset: 0x8068C, size: 0x8, addend: 0x0, symName: __ZNK8ECFlight7GetDestEv, symObjAddr: 0x2F8, symBinAddr: 0x1000206A8, symSize: 0x3C }
  - { offsetInCU: 0x4A12, offset: 0x806B4, size: 0x8, addend: 0x0, symName: __ZNK8ECFlight19GetMaxNumPassengersEv, symObjAddr: 0x334, symBinAddr: 0x1000206E4, symSize: 0x18 }
  - { offsetInCU: 0x4A3A, offset: 0x806DC, size: 0x8, addend: 0x0, symName: __ZNK8ECFlight16GetNumPassengersEv, symObjAddr: 0x34C, symBinAddr: 0x1000206FC, symSize: 0x18 }
  - { offsetInCU: 0x4A62, offset: 0x80704, size: 0x8, addend: 0x0, symName: __ZN8ECFlight16SetDepartureTimeEd, symObjAddr: 0x364, symBinAddr: 0x100020714, symSize: 0x20 }
  - { offsetInCU: 0x4A98, offset: 0x8073A, size: 0x8, addend: 0x0, symName: __ZN8ECFlightD1Ev, symObjAddr: 0x384, symBinAddr: 0x100020734, symSize: 0x2C }
  - { offsetInCU: 0x4AC2, offset: 0x80764, size: 0x8, addend: 0x0, symName: __ZN8ECFlightD0Ev, symObjAddr: 0x3B0, symBinAddr: 0x100020760, symSize: 0x58 }
  - { offsetInCU: 0x4AEC, offset: 0x8078E, size: 0x8, addend: 0x0, symName: __ZN8ECFlightD2Ev, symObjAddr: 0x9A0, symBinAddr: 0x1000207B8, symSize: 0x7C }
  - { offsetInCU: 0x3A4E, offset: 0x84210, size: 0x8, addend: 0x0, symName: __ZNSt3__1neB8ue170006IPKP8ECFlightEEbRKNS_11__wrap_iterIT_EES9_, symObjAddr: 0x3F0, symBinAddr: 0x100020B98, symSize: 0x34 }
  - { offsetInCU: 0x3A91, offset: 0x84253, size: 0x8, addend: 0x0, symName: __ZNSt3__1eqB8ue170006IPKP8ECFlightEEbRKNS_11__wrap_iterIT_EES9_, symObjAddr: 0xCE8, symBinAddr: 0x100020D74, symSize: 0x48 }
  - { offsetInCU: 0x5E25, offset: 0x865E7, size: 0x8, addend: 0x0, symName: __ZN17ECFlightItineraryC2Ev, symObjAddr: 0x0, symBinAddr: 0x100020834, symSize: 0x38 }
  - { offsetInCU: 0x5E51, offset: 0x86613, size: 0x8, addend: 0x0, symName: __ZN17ECFlightItineraryC1Ev, symObjAddr: 0x64, symBinAddr: 0x10002086C, symSize: 0x2C }
  - { offsetInCU: 0x5E7D, offset: 0x8663F, size: 0x8, addend: 0x0, symName: __ZN17ECFlightItineraryC2ERKNSt3__16vectorIP8ECFlightNS0_9allocatorIS3_EEEE, symObjAddr: 0x90, symBinAddr: 0x100020898, symSize: 0xD8 }
  - { offsetInCU: 0x5ED4, offset: 0x86696, size: 0x8, addend: 0x0, symName: __ZN17ECFlightItinerary10addSegmentEP8ECFlight, symObjAddr: 0x190, symBinAddr: 0x100020970, symSize: 0x7C }
  - { offsetInCU: 0x5F0A, offset: 0x866CC, size: 0x8, addend: 0x0, symName: __ZNKSt3__16vectorIP8ECFlightNS_9allocatorIS2_EEEixB8ue170006Em, symObjAddr: 0x20C, symBinAddr: 0x1000209EC, symSize: 0x24 }
  - { offsetInCU: 0x5F41, offset: 0x86703, size: 0x8, addend: 0x0, symName: __ZN17ECFlightItineraryC1ERKNSt3__16vectorIP8ECFlightNS0_9allocatorIS3_EEEE, symObjAddr: 0x268, symBinAddr: 0x100020A10, symSize: 0x34 }
  - { offsetInCU: 0x5F7B, offset: 0x8673D, size: 0x8, addend: 0x0, symName: __ZNK17ECFlightItinerary14GetNumSegmentsEv, symObjAddr: 0x29C, symBinAddr: 0x100020A44, symSize: 0x18 }
  - { offsetInCU: 0x5FA2, offset: 0x86764, size: 0x8, addend: 0x0, symName: __ZNK17ECFlightItinerary10GetSegmentEi, symObjAddr: 0x2B4, symBinAddr: 0x100020A5C, symSize: 0x30 }
  - { offsetInCU: 0x5FD8, offset: 0x8679A, size: 0x8, addend: 0x0, symName: __ZNK17ECFlightItinerary13GetFlightTimeEv, symObjAddr: 0x2E4, symBinAddr: 0x100020A8C, symSize: 0xAC }
  - { offsetInCU: 0x6061, offset: 0x86823, size: 0x8, addend: 0x0, symName: __ZNKSt3__16vectorIP8ECFlightNS_9allocatorIS2_EEE5beginB8ue170006Ev, symObjAddr: 0x390, symBinAddr: 0x100020B38, symSize: 0x30 }
  - { offsetInCU: 0x6088, offset: 0x8684A, size: 0x8, addend: 0x0, symName: __ZNKSt3__16vectorIP8ECFlightNS_9allocatorIS2_EEE3endB8ue170006Ev, symObjAddr: 0x3C0, symBinAddr: 0x100020B68, symSize: 0x30 }
  - { offsetInCU: 0x60AF, offset: 0x86871, size: 0x8, addend: 0x0, symName: __ZNKSt3__111__wrap_iterIPKP8ECFlightEdeB8ue170006Ev, symObjAddr: 0x424, symBinAddr: 0x100020BCC, symSize: 0x18 }
  - { offsetInCU: 0x60D5, offset: 0x86897, size: 0x8, addend: 0x0, symName: __ZNSt3__111__wrap_iterIPKP8ECFlightEppB8ue170006Ev, symObjAddr: 0x43C, symBinAddr: 0x100020BE4, symSize: 0x20 }
  - { offsetInCU: 0x60FC, offset: 0x868BE, size: 0x8, addend: 0x0, symName: __ZNK17ECFlightItinerary13GetDepartTimeEv, symObjAddr: 0x45C, symBinAddr: 0x100020C04, symSize: 0x18 }
  - { offsetInCU: 0x6124, offset: 0x868E6, size: 0x8, addend: 0x0, symName: __ZNK17ECFlightItinerary14GetArrivalTimeEv, symObjAddr: 0x474, symBinAddr: 0x100020C1C, symSize: 0x18 }
  - { offsetInCU: 0x614B, offset: 0x8690D, size: 0x8, addend: 0x0, symName: __ZNK17ECFlightItinerary8GetPriceEv, symObjAddr: 0x48C, symBinAddr: 0x100020C34, symSize: 0x38 }
  - { offsetInCU: 0x6181, offset: 0x86943, size: 0x8, addend: 0x0, symName: __ZNK17ECFlightItinerary9GetSourceEv, symObjAddr: 0x4C4, symBinAddr: 0x100020C6C, symSize: 0x3C }
  - { offsetInCU: 0x61A9, offset: 0x8696B, size: 0x8, addend: 0x0, symName: __ZNK17ECFlightItinerary7GetDestEv, symObjAddr: 0x500, symBinAddr: 0x100020CA8, symSize: 0x48 }
  - { offsetInCU: 0x61D2, offset: 0x86994, size: 0x8, addend: 0x0, symName: __ZNKSt3__16vectorIP8ECFlightNS_9allocatorIS2_EEE11__make_iterB8ue170006EPKS2_, symObjAddr: 0xC64, symBinAddr: 0x100020CF0, symSize: 0x30 }
  - { offsetInCU: 0x6206, offset: 0x869C8, size: 0x8, addend: 0x0, symName: __ZNSt3__111__wrap_iterIPKP8ECFlightEC1B8ue170006ES4_, symObjAddr: 0xC94, symBinAddr: 0x100020D20, symSize: 0x34 }
  - { offsetInCU: 0x623F, offset: 0x86A01, size: 0x8, addend: 0x0, symName: __ZNSt3__111__wrap_iterIPKP8ECFlightEC2B8ue170006ES4_, symObjAddr: 0xCC8, symBinAddr: 0x100020D54, symSize: 0x20 }
  - { offsetInCU: 0x6276, offset: 0x86A38, size: 0x8, addend: 0x0, symName: __ZNKSt3__111__wrap_iterIPKP8ECFlightE4baseB8ue170006Ev, symObjAddr: 0xD30, symBinAddr: 0x100020DBC, symSize: 0x18 }
  - { offsetInCU: 0x52, offset: 0x86AF1, size: 0x8, addend: 0x0, symName: __ZL8fRawMode, symObjAddr: 0x73E60, symBinAddr: 0x1000300F0, symSize: 0x0 }
  - { offsetInCU: 0x72, offset: 0x86B11, size: 0x8, addend: 0x0, symName: __ZL12orig_termios, symObjAddr: 0x73E18, symBinAddr: 0x1000300A8, symSize: 0x0 }
  - { offsetInCU: 0x9332, offset: 0x8FDD1, size: 0x8, addend: 0x0, symName: __ZNSt3__1eqB8ue170006ERKNS_14__map_iteratorINS_15__tree_iteratorINS_12__value_typeIiNS_3mapIiNS_4pairIi10TEXT_COLOREENS_4lessIiEENS_9allocatorINS4_IKiS6_EEEEEEEEPNS_11__tree_nodeISE_PvEElEEEESM_, symObjAddr: 0x2008, symBinAddr: 0x100022B88, symSize: 0x30 }
  - { offsetInCU: 0x936F, offset: 0x8FE0E, size: 0x8, addend: 0x0, symName: __ZNSt3__1neB8ue170006ERKNS_14__map_iteratorINS_15__tree_iteratorINS_12__value_typeIiNS_4pairIi10TEXT_COLOREEEEPNS_11__tree_nodeIS6_PvEElEEEESE_, symObjAddr: 0x2238, symBinAddr: 0x100022D38, symSize: 0x30 }
  - { offsetInCU: 0x93AC, offset: 0x8FE4B, size: 0x8, addend: 0x0, symName: __ZNSt3__1neB8ue170006ERKNS_14__map_iteratorINS_15__tree_iteratorINS_12__value_typeIiNS_3mapIiNS_4pairIi10TEXT_COLOREENS_4lessIiEENS_9allocatorINS4_IKiS6_EEEEEEEEPNS_11__tree_nodeISE_PvEElEEEESM_, symObjAddr: 0x271C, symBinAddr: 0x100023158, symSize: 0x30 }
  - { offsetInCU: 0x93E9, offset: 0x8FE88, size: 0x8, addend: 0x0, symName: __ZNSt3__119__allocate_at_leastB8ue170006INS_9allocatorImEEEENS_19__allocation_resultINS_16allocator_traitsIT_E7pointerEEERS5_m, symObjAddr: 0x6870, symBinAddr: 0x1000244D0, symSize: 0x40 }
  - { offsetInCU: 0x9451, offset: 0x8FEF0, size: 0x8, addend: 0x0, symName: __ZNSt3__114__construct_atB8ue170006ImJEPmEEPT_S3_DpOT0_, symObjAddr: 0x68D4, symBinAddr: 0x100024534, symSize: 0x20 }
  - { offsetInCU: 0x94AD, offset: 0x8FF4C, size: 0x8, addend: 0x0, symName: __ZNSt3__112__to_addressB8ue170006ImEEPT_S2_, symObjAddr: 0x68F4, symBinAddr: 0x100024554, symSize: 0x14 }
  - { offsetInCU: 0x94E2, offset: 0x8FF81, size: 0x8, addend: 0x0, symName: __ZNSt3__16__copyB8ue170006INS_17_ClassicAlgPolicyENS_14__bit_iteratorINS_6vectorIbNS_9allocatorIbEEEELb0ELm0EEES7_S7_EENS_4pairIT0_T2_EES9_T1_SA_, symObjAddr: 0x698C, symBinAddr: 0x1000245EC, symSize: 0x88 }
  - { offsetInCU: 0x9551, offset: 0x8FFF0, size: 0x8, addend: 0x0, symName: __ZNSt3__123__dispatch_copy_or_moveB8ue170006INS_17_ClassicAlgPolicyENS_11__copy_loopIS1_EENS_14__copy_trivialENS_14__bit_iteratorINS_6vectorIbNS_9allocatorIbEEEELb0ELm0EEESA_SA_EENS_4pairIT2_T4_EESC_T3_SD_, symObjAddr: 0x6AAC, symBinAddr: 0x10002470C, symSize: 0x88 }
  - { offsetInCU: 0x95D2, offset: 0x90071, size: 0x8, addend: 0x0, symName: __ZNSt3__121__unwrap_and_dispatchB8ue170006INS_10__overloadINS_11__copy_loopINS_17_ClassicAlgPolicyEEENS_14__copy_trivialEEENS_14__bit_iteratorINS_6vectorIbNS_9allocatorIbEEEELb0ELm0EEESC_SC_Li0EEENS_4pairIT0_T2_EESE_T1_SF_, symObjAddr: 0x6B34, symBinAddr: 0x100024794, symSize: 0x15C }
  - { offsetInCU: 0x9665, offset: 0x90104, size: 0x8, addend: 0x0, symName: __ZNSt3__114__unwrap_rangeB8ue170006INS_14__bit_iteratorINS_6vectorIbNS_9allocatorIbEEEELb0ELm0EEES6_EENS_4pairIT0_S8_EET_SA_, symObjAddr: 0x6C90, symBinAddr: 0x1000248F0, symSize: 0x8C }
  - { offsetInCU: 0x97B2, offset: 0x90251, size: 0x8, addend: 0x0, symName: __ZNSt3__113__unwrap_iterB8ue170006INS_14__bit_iteratorINS_6vectorIbNS_9allocatorIbEEEELb0ELm0EEENS_18__unwrap_iter_implIS6_Lb0EEELi0EEEDTclsrT0_8__unwrapclsr3stdE7declvalIT_EEEESA_, symObjAddr: 0x6DD4, symBinAddr: 0x100024A34, symSize: 0x44 }
  - { offsetInCU: 0x97F7, offset: 0x90296, size: 0x8, addend: 0x0, symName: __ZNSt3__19make_pairB8ue170006INS_14__bit_iteratorINS_6vectorIbNS_9allocatorIbEEEELb0ELm0EEES6_EENS_4pairINS_18__unwrap_ref_decayIT_E4typeENS8_IT0_E4typeEEEOS9_OSC_, symObjAddr: 0x6E18, symBinAddr: 0x100024A78, symSize: 0x40 }
  - { offsetInCU: 0x9846, offset: 0x902E5, size: 0x8, addend: 0x0, symName: __ZNSt3__114__rewrap_rangeB8ue170006INS_14__bit_iteratorINS_6vectorIbNS_9allocatorIbEEEELb0ELm0EEES6_EET_S7_T0_, symObjAddr: 0x6E58, symBinAddr: 0x100024AB8, symSize: 0x6C }
  - { offsetInCU: 0x9894, offset: 0x90333, size: 0x8, addend: 0x0, symName: __ZNSt3__113__rewrap_iterB8ue170006INS_14__bit_iteratorINS_6vectorIbNS_9allocatorIbEEEELb0ELm0EEES6_NS_18__unwrap_iter_implIS6_Lb0EEEEET_S9_T0_, symObjAddr: 0x6EC4, symBinAddr: 0x100024B24, symSize: 0x88 }
  - { offsetInCU: 0x98EB, offset: 0x9038A, size: 0x8, addend: 0x0, symName: __ZNSt3__1neB8ue170006ERKNS_14__bit_iteratorINS_6vectorIbNS_9allocatorIbEEEELb0ELm0EEES7_, symObjAddr: 0x6F4C, symBinAddr: 0x100024BAC, symSize: 0x34 }
  - { offsetInCU: 0x9928, offset: 0x903C7, size: 0x8, addend: 0x0, symName: __ZNSt3__1eqB8ue170006ERKNS_14__bit_iteratorINS_6vectorIbNS_9allocatorIbEEEELb0ELm0EEES7_, symObjAddr: 0x7060, symBinAddr: 0x100024CC0, symSize: 0x64 }
  - { offsetInCU: 0x99AE, offset: 0x9044D, size: 0x8, addend: 0x0, symName: __ZNSt3__14swapB8ue170006IPmEEvRT_S3_, symObjAddr: 0x72E8, symBinAddr: 0x100024F48, symSize: 0x3C }
  - { offsetInCU: 0x99FF, offset: 0x9049E, size: 0x8, addend: 0x0, symName: __ZNSt3__14swapB8ue170006ImEEvRT_S2_, symObjAddr: 0x7324, symBinAddr: 0x100024F84, symSize: 0x3C }
  - { offsetInCU: 0x9A50, offset: 0x904EF, size: 0x8, addend: 0x0, symName: __ZNSt3__116__swap_allocatorB8ue170006INS_9allocatorImEEEEvRT_S4_NS_17integral_constantIbLb0EEE, symObjAddr: 0x7360, symBinAddr: 0x100024FC0, symSize: 0x14 }
  - { offsetInCU: 0x9A95, offset: 0x90534, size: 0x8, addend: 0x0, symName: __ZNSt3__1neB8ue170006ERKNS_15__tree_iteratorINS_12__value_typeIiNS_3mapIiNS_4pairIi10TEXT_COLOREENS_4lessIiEENS_9allocatorINS3_IKiS5_EEEEEEEEPNS_11__tree_nodeISD_PvEElEESK_, symObjAddr: 0x853C, symBinAddr: 0x100025538, symSize: 0x34 }
  - { offsetInCU: 0x9AD2, offset: 0x90571, size: 0x8, addend: 0x0, symName: __ZNSt3__1eqB8ue170006ERKNS_15__tree_iteratorINS_12__value_typeIiNS_3mapIiNS_4pairIi10TEXT_COLOREENS_4lessIiEENS_9allocatorINS3_IKiS5_EEEEEEEEPNS_11__tree_nodeISD_PvEElEESK_, symObjAddr: 0x8728, symBinAddr: 0x100025724, symSize: 0x30 }
  - { offsetInCU: 0x9B2E, offset: 0x905CD, size: 0x8, addend: 0x0, symName: __ZNSt3__1neB8ue170006ERKNS_15__tree_iteratorINS_12__value_typeIiNS_4pairIi10TEXT_COLOREEEEPNS_11__tree_nodeIS5_PvEElEESC_, symObjAddr: 0x9D68, symBinAddr: 0x100026714, symSize: 0x34 }
  - { offsetInCU: 0x9B6B, offset: 0x9060A, size: 0x8, addend: 0x0, symName: __ZNSt3__1eqB8ue170006ERKNS_15__tree_iteratorINS_12__value_typeIiNS_4pairIi10TEXT_COLOREEEEPNS_11__tree_nodeIS5_PvEElEESC_, symObjAddr: 0x9F20, symBinAddr: 0x1000268CC, symSize: 0x30 }
  - { offsetInCU: 0xC668, offset: 0x93107, size: 0x8, addend: 0x0, symName: __ZN16ECTextViewConfigC2Ev, symObjAddr: 0x0, symBinAddr: 0x100020DD4, symSize: 0xE0 }
  - { offsetInCU: 0xC694, offset: 0x93133, size: 0x8, addend: 0x0, symName: __ZNSt3__16vectorIbNS_9allocatorIbEEEC1B8ue170006Ev, symObjAddr: 0x10C, symBinAddr: 0x100020EB4, symSize: 0x2C }
  - { offsetInCU: 0xC6C0, offset: 0x9315F, size: 0x8, addend: 0x0, symName: __ZN16ECTextViewConfig10InitParamsEv, symObjAddr: 0x138, symBinAddr: 0x100020EE0, symSize: 0x1C }
  - { offsetInCU: 0xC6E8, offset: 0x93187, size: 0x8, addend: 0x0, symName: __ZN16ECTextViewConfig11InitWndSizeEv, symObjAddr: 0x154, symBinAddr: 0x100020EFC, symSize: 0x2E0 }
  - { offsetInCU: 0xC77B, offset: 0x9321A, size: 0x8, addend: 0x0, symName: __ZNSt3__16vectorIbNS_9allocatorIbEEED1B8ue170006Ev, symObjAddr: 0x434, symBinAddr: 0x1000211DC, symSize: 0x2C }
  - { offsetInCU: 0xC7A5, offset: 0x93244, size: 0x8, addend: 0x0, symName: __ZN16ECTextViewConfigC1Ev, symObjAddr: 0x498, symBinAddr: 0x100021208, symSize: 0x2C }
  - { offsetInCU: 0xC7D1, offset: 0x93270, size: 0x8, addend: 0x0, symName: __ZNK16ECTextViewConfig4DumpEv, symObjAddr: 0x4C4, symBinAddr: 0x100021234, symSize: 0x68 }
  - { offsetInCU: 0xC7F9, offset: 0x93298, size: 0x8, addend: 0x0, symName: __ZN16ECTextViewConfig17GetCursorPositionEiiPiS0_, symObjAddr: 0x574, symBinAddr: 0x10002129C, symSize: 0x1B0 }
  - { offsetInCU: 0xC87A, offset: 0x93319, size: 0x8, addend: 0x0, symName: __ZN16ECTextViewConfig12AddStatusRowERKNSt3__112basic_stringIcNS0_11char_traitsIcEENS0_9allocatorIcEEEES8_b, symObjAddr: 0x758, symBinAddr: 0x10002144C, symSize: 0x68 }
  - { offsetInCU: 0xC8CC, offset: 0x9336B, size: 0x8, addend: 0x0, symName: __ZNSt3__16vectorIbNS_9allocatorIbEEE9push_backERKb, symObjAddr: 0x82C, symBinAddr: 0x1000214B4, symSize: 0xA4 }
  - { offsetInCU: 0xCC47, offset: 0x936E6, size: 0x8, addend: 0x0, symName: __ZN13ECTextViewImpC2Ev, symObjAddr: 0x8D0, symBinAddr: 0x100021558, symSize: 0x164 }
  - { offsetInCU: 0xCC73, offset: 0x93712, size: 0x8, addend: 0x0, symName: __ZN17ECObserverSubjectC2Ev, symObjAddr: 0xA34, symBinAddr: 0x1000216BC, symSize: 0x40 }
  - { offsetInCU: 0xCC9D, offset: 0x9373C, size: 0x8, addend: 0x0, symName: __ZNSt3__13mapIiNS0_IiNS_4pairIi10TEXT_COLOREENS_4lessIiEENS_9allocatorINS1_IKiS3_EEEEEES5_NS6_INS1_IS7_SA_EEEEEC1B8ue170006Ev, symObjAddr: 0xAA0, symBinAddr: 0x1000216FC, symSize: 0x2C }
  - { offsetInCU: 0xCCC7, offset: 0x93766, size: 0x8, addend: 0x0, symName: __ZN13ECTextViewImp4InitEv, symObjAddr: 0xACC, symBinAddr: 0x100021728, symSize: 0x24 }
  - { offsetInCU: 0xCCEF, offset: 0x9378E, size: 0x8, addend: 0x0, symName: __ZNSt3__13mapIiNS0_IiNS_4pairIi10TEXT_COLOREENS_4lessIiEENS_9allocatorINS1_IKiS3_EEEEEES5_NS6_INS1_IS7_SA_EEEEED1B8ue170006Ev, symObjAddr: 0xAF0, symBinAddr: 0x10002174C, symSize: 0x2C }
  - { offsetInCU: 0xCD19, offset: 0x937B8, size: 0x8, addend: 0x0, symName: __ZN16ECTextViewConfigD1Ev, symObjAddr: 0xB1C, symBinAddr: 0x100021778, symSize: 0x2C }
  - { offsetInCU: 0xCD45, offset: 0x937E4, size: 0x8, addend: 0x0, symName: __ZN17ECObserverSubjectD2Ev, symObjAddr: 0xB48, symBinAddr: 0x1000217A4, symSize: 0x40 }
  - { offsetInCU: 0xCD6F, offset: 0x9380E, size: 0x8, addend: 0x0, symName: __ZN13ECTextViewImpC1Ev, symObjAddr: 0xB88, symBinAddr: 0x1000217E4, symSize: 0x2C }
  - { offsetInCU: 0xCD9B, offset: 0x9383A, size: 0x8, addend: 0x0, symName: __ZN13ECTextViewImpD2Ev, symObjAddr: 0xBB4, symBinAddr: 0x100021810, symSize: 0x110 }
  - { offsetInCU: 0xCDC7, offset: 0x93866, size: 0x8, addend: 0x0, symName: __ZN13ECTextViewImpD1Ev, symObjAddr: 0xCC4, symBinAddr: 0x100021920, symSize: 0x2C }
  - { offsetInCU: 0xCDF3, offset: 0x93892, size: 0x8, addend: 0x0, symName: __ZN13ECTextViewImpD0Ev, symObjAddr: 0xCF0, symBinAddr: 0x10002194C, symSize: 0x58 }
  - { offsetInCU: 0xCE1F, offset: 0x938BE, size: 0x8, addend: 0x0, symName: __ZL13EnableRawModei, symObjAddr: 0xD48, symBinAddr: 0x1000219A4, symSize: 0x228 }
  - { offsetInCU: 0xCE57, offset: 0x938F6, size: 0x8, addend: 0x0, symName: __ZN13ECTextViewImp4ShowEv, symObjAddr: 0xF70, symBinAddr: 0x100021BCC, symSize: 0x88 }
  - { offsetInCU: 0xCE7F, offset: 0x9391E, size: 0x8, addend: 0x0, symName: __ZNK13ECTextViewImp10ShouldQuitEv, symObjAddr: 0xFF8, symBinAddr: 0x100021C54, symSize: 0x1C }
  - { offsetInCU: 0xCEA5, offset: 0x93944, size: 0x8, addend: 0x0, symName: __ZN13ECTextViewImp7RefreshEv, symObjAddr: 0x1014, symBinAddr: 0x100021C70, symSize: 0xCC }
  - { offsetInCU: 0xCEEA, offset: 0x93989, size: 0x8, addend: 0x0, symName: __ZN13ECTextViewImp7ReadKeyEi, symObjAddr: 0x10E0, symBinAddr: 0x100021D3C, symSize: 0x2CC }
  - { offsetInCU: 0xCF4F, offset: 0x939EE, size: 0x8, addend: 0x0, symName: __ZN13ECTextViewImp4QuitEv, symObjAddr: 0x13CC, symBinAddr: 0x100022028, symSize: 0x40 }
  - { offsetInCU: 0xCF78, offset: 0x93A17, size: 0x8, addend: 0x0, symName: __ZN17ECObserverSubject6NotifyEv, symObjAddr: 0x140C, symBinAddr: 0x100022068, symSize: 0x8C }
  - { offsetInCU: 0xCFBB, offset: 0x93A5A, size: 0x8, addend: 0x0, symName: __ZN13ECTextViewImp11ClearBufferEv, symObjAddr: 0x1498, symBinAddr: 0x1000220F4, symSize: 0x54 }
  - { offsetInCU: 0xCFE4, offset: 0x93A83, size: 0x8, addend: 0x0, symName: __ZN13ECTextViewImp15AppendRowBufferEiRKNSt3__112basic_stringIcNS0_11char_traitsIcEENS0_9allocatorIcEEEE, symObjAddr: 0x1514, symBinAddr: 0x100022148, symSize: 0x300 }
  - { offsetInCU: 0xD0B2, offset: 0x93B51, size: 0x8, addend: 0x0, symName: __ZNSt3__16vectorINS_12basic_stringIcNS_11char_traitsIcEENS_9allocatorIcEEEENS4_IS6_EEEixB8ue170006Em, symObjAddr: 0x1814, symBinAddr: 0x100022448, symSize: 0x2C }
  - { offsetInCU: 0xD0E9, offset: 0x93B88, size: 0x8, addend: 0x0, symName: __ZN13ECTextViewImp16FinishRowsBufferEv, symObjAddr: 0x1840, symBinAddr: 0x100022474, symSize: 0x2A4 }
  - { offsetInCU: 0xD1A7, offset: 0x93C46, size: 0x8, addend: 0x0, symName: __ZNKSt3__112basic_stringIcNS_11char_traitsIcEENS_9allocatorIcEEE5c_strB8ue170006Ev, symObjAddr: 0x1AE4, symBinAddr: 0x100022718, symSize: 0x24 }
  - { offsetInCU: 0xD1CD, offset: 0x93C6C, size: 0x8, addend: 0x0, symName: __ZNKSt3__112basic_stringIcNS_11char_traitsIcEENS_9allocatorIcEEE6lengthB8ue170006Ev, symObjAddr: 0x1B08, symBinAddr: 0x10002273C, symSize: 0x24 }
  - { offsetInCU: 0xD1F3, offset: 0x93C92, size: 0x8, addend: 0x0, symName: __ZN13ECTextViewImp6AddRowERKNSt3__112basic_stringIcNS0_11char_traitsIcEENS0_9allocatorIcEEEE, symObjAddr: 0x1B2C, symBinAddr: 0x100022760, symSize: 0x30 }
  - { offsetInCU: 0xD229, offset: 0x93CC8, size: 0x8, addend: 0x0, symName: __ZNK13ECTextViewImp10GetNumRowsEv, symObjAddr: 0x1B5C, symBinAddr: 0x100022790, symSize: 0x28 }
  - { offsetInCU: 0xD24F, offset: 0x93CEE, size: 0x8, addend: 0x0, symName: __ZNSt3__112basic_stringIcNS_11char_traitsIcEENS_9allocatorIcEEEpLB8ue170006EPKc, symObjAddr: 0x1BC0, symBinAddr: 0x1000227B8, symSize: 0x2C }
  - { offsetInCU: 0xD284, offset: 0x93D23, size: 0x8, addend: 0x0, symName: __ZNK16ECTextViewConfig16GetNumStatusRowsEv, symObjAddr: 0x1BEC, symBinAddr: 0x1000227E4, symSize: 0x28 }
  - { offsetInCU: 0xD2AA, offset: 0x93D49, size: 0x8, addend: 0x0, symName: __ZN13ECTextViewImp15AppendStatusMsgEi, symObjAddr: 0x1C14, symBinAddr: 0x10002280C, symSize: 0x318 }
  - { offsetInCU: 0xD320, offset: 0x93DBF, size: 0x8, addend: 0x0, symName: __ZNK16ECTextViewConfig10GetCursorYEv, symObjAddr: 0x1F2C, symBinAddr: 0x100022B24, symSize: 0x18 }
  - { offsetInCU: 0xD346, offset: 0x93DE5, size: 0x8, addend: 0x0, symName: __ZNK13ECTextViewImp6GetRowEi, symObjAddr: 0x1F44, symBinAddr: 0x100022B3C, symSize: 0x34 }
  - { offsetInCU: 0xD37A, offset: 0x93E19, size: 0x8, addend: 0x0, symName: __ZNK16ECTextViewConfig10GetCursorXEv, symObjAddr: 0x1F78, symBinAddr: 0x100022B70, symSize: 0x18 }
  - { offsetInCU: 0xD3A0, offset: 0x93E3F, size: 0x8, addend: 0x0, symName: __ZNSt3__13mapIiNS0_IiNS_4pairIi10TEXT_COLOREENS_4lessIiEENS_9allocatorINS1_IKiS3_EEEEEES5_NS6_INS1_IS7_SA_EEEEE4findB8ue170006ERS7_, symObjAddr: 0x2038, symBinAddr: 0x100022BB8, symSize: 0x40 }
  - { offsetInCU: 0xD3D5, offset: 0x93E74, size: 0x8, addend: 0x0, symName: __ZNSt3__13mapIiNS0_IiNS_4pairIi10TEXT_COLOREENS_4lessIiEENS_9allocatorINS1_IKiS3_EEEEEES5_NS6_INS1_IS7_SA_EEEEE3endB8ue170006Ev, symObjAddr: 0x2078, symBinAddr: 0x100022BF8, symSize: 0x38 }
  - { offsetInCU: 0xD3FB, offset: 0x93E9A, size: 0x8, addend: 0x0, symName: __ZNSt3__13mapIiNS0_IiNS_4pairIi10TEXT_COLOREENS_4lessIiEENS_9allocatorINS1_IKiS3_EEEEEES5_NS6_INS1_IS7_SA_EEEEEixERS7_, symObjAddr: 0x2130, symBinAddr: 0x100022C30, symSize: 0xC8 }
  - { offsetInCU: 0xD473, offset: 0x93F12, size: 0x8, addend: 0x0, symName: __ZNSt3__13mapIiNS_4pairIi10TEXT_COLOREENS_4lessIiEENS_9allocatorINS1_IKiS3_EEEEE4findB8ue170006ERS7_, symObjAddr: 0x21F8, symBinAddr: 0x100022CF8, symSize: 0x40 }
  - { offsetInCU: 0xD4A8, offset: 0x93F47, size: 0x8, addend: 0x0, symName: __ZNSt3__13mapIiNS_4pairIi10TEXT_COLOREENS_4lessIiEENS_9allocatorINS1_IKiS3_EEEEE3endB8ue170006Ev, symObjAddr: 0x2268, symBinAddr: 0x100022D68, symSize: 0x38 }
  - { offsetInCU: 0xD4CE, offset: 0x93F6D, size: 0x8, addend: 0x0, symName: __ZNKSt3__114__map_iteratorINS_15__tree_iteratorINS_12__value_typeIiNS_4pairIi10TEXT_COLOREEEEPNS_11__tree_nodeIS6_PvEElEEEptB8ue170006Ev, symObjAddr: 0x22A0, symBinAddr: 0x100022DA0, symSize: 0x2C }
  - { offsetInCU: 0xD4F4, offset: 0x93F93, size: 0x8, addend: 0x0, symName: __ZNKSt3__112basic_stringIcNS_11char_traitsIcEENS_9allocatorIcEEEixB8ue170006Em, symObjAddr: 0x22CC, symBinAddr: 0x100022DCC, symSize: 0x30 }
  - { offsetInCU: 0xD529, offset: 0x93FC8, size: 0x8, addend: 0x0, symName: __ZN13ECTextViewImp13GetPressedKeyEv, symObjAddr: 0x2330, symBinAddr: 0x100022DFC, symSize: 0x18 }
  - { offsetInCU: 0xD552, offset: 0x93FF1, size: 0x8, addend: 0x0, symName: __ZNK16ECTextViewConfig24IsStatusRowBlkBackgroundEi, symObjAddr: 0x2348, symBinAddr: 0x100022E14, symSize: 0x48 }
  - { offsetInCU: 0xD586, offset: 0x94025, size: 0x8, addend: 0x0, symName: __ZNK16ECTextViewConfig16GetStatusRowLeftEi, symObjAddr: 0x2390, symBinAddr: 0x100022E5C, symSize: 0x44 }
  - { offsetInCU: 0xD5BA, offset: 0x94059, size: 0x8, addend: 0x0, symName: __ZNK16ECTextViewConfig17GetStatusRowRightEi, symObjAddr: 0x23D4, symBinAddr: 0x100022EA0, symSize: 0x44 }
  - { offsetInCU: 0xD5EE, offset: 0x9408D, size: 0x8, addend: 0x0, symName: __ZN13ECTextViewImp8SetColorEiii10TEXT_COLOR, symObjAddr: 0x24A8, symBinAddr: 0x100022EE4, symSize: 0x140 }
  - { offsetInCU: 0xD671, offset: 0x94110, size: 0x8, addend: 0x0, symName: __ZNSt3__14pairIi10TEXT_COLOREC1B8ue170006ERKiRKS1_, symObjAddr: 0x25E8, symBinAddr: 0x100023024, symSize: 0x3C }
  - { offsetInCU: 0xD6B7, offset: 0x94156, size: 0x8, addend: 0x0, symName: __ZNSt3__13mapIiNS_4pairIi10TEXT_COLOREENS_4lessIiEENS_9allocatorINS1_IKiS3_EEEEEixERS7_, symObjAddr: 0x2624, symBinAddr: 0x100023060, symSize: 0xC8 }
  - { offsetInCU: 0xD72F, offset: 0x941CE, size: 0x8, addend: 0x0, symName: __ZNSt3__14pairIi10TEXT_COLOREaSB8ue170006ERKS2_, symObjAddr: 0x26EC, symBinAddr: 0x100023128, symSize: 0x30 }
  - { offsetInCU: 0xD763, offset: 0x94202, size: 0x8, addend: 0x0, symName: __ZNSt3__13mapIiNS_4pairIi10TEXT_COLOREENS_4lessIiEENS_9allocatorINS1_IKiS3_EEEEE5eraseB8ue170006ERS7_, symObjAddr: 0x274C, symBinAddr: 0x100023188, symSize: 0x2C }
  - { offsetInCU: 0xD798, offset: 0x94237, size: 0x8, addend: 0x0, symName: __ZNSt3__16vectorIP10ECObserverNS_9allocatorIS2_EEEC1B8ue170006Ev, symObjAddr: 0x2778, symBinAddr: 0x1000231B4, symSize: 0x2C }
  - { offsetInCU: 0xD7C2, offset: 0x94261, size: 0x8, addend: 0x0, symName: __ZN17ECObserverSubjectD1Ev, symObjAddr: 0x27A4, symBinAddr: 0x1000231E0, symSize: 0x2C }
  - { offsetInCU: 0xD7EC, offset: 0x9428B, size: 0x8, addend: 0x0, symName: __ZN17ECObserverSubjectD0Ev, symObjAddr: 0x27D0, symBinAddr: 0x10002320C, symSize: 0x58 }
  - { offsetInCU: 0xD816, offset: 0x942B5, size: 0x8, addend: 0x0, symName: __ZNSt3__16vectorIP10ECObserverNS_9allocatorIS2_EEEC2B8ue170006Ev, symObjAddr: 0x2828, symBinAddr: 0x100023264, symSize: 0x44 }
  - { offsetInCU: 0xD84A, offset: 0x942E9, size: 0x8, addend: 0x0, symName: __ZNSt3__117__compressed_pairIPP10ECObserverNS_9allocatorIS2_EEEC1B8ue170006IDnNS_18__default_init_tagEEEOT_OT0_, symObjAddr: 0x286C, symBinAddr: 0x1000232A8, symSize: 0x3C }
  - { offsetInCU: 0xD8A2, offset: 0x94341, size: 0x8, addend: 0x0, symName: __ZNSt3__117__compressed_pairIPP10ECObserverNS_9allocatorIS2_EEEC2B8ue170006IDnNS_18__default_init_tagEEEOT_OT0_, symObjAddr: 0x28A8, symBinAddr: 0x1000232E4, symSize: 0x40 }
  - { offsetInCU: 0xD8FA, offset: 0x94399, size: 0x8, addend: 0x0, symName: __ZNSt3__122__compressed_pair_elemINS_9allocatorIP10ECObserverEELi1ELb1EEC2B8ue170006ENS_18__default_init_tagE, symObjAddr: 0x2904, symBinAddr: 0x100023324, symSize: 0x2C }
  - { offsetInCU: 0xD92F, offset: 0x943CE, size: 0x8, addend: 0x0, symName: __ZNSt3__19allocatorIP10ECObserverEC2B8ue170006Ev, symObjAddr: 0x2930, symBinAddr: 0x100023350, symSize: 0x2C }
  - { offsetInCU: 0xD959, offset: 0x943F8, size: 0x8, addend: 0x0, symName: __ZNSt3__116__non_trivial_ifILb1ENS_9allocatorIP10ECObserverEEEC2B8ue170006Ev, symObjAddr: 0x295C, symBinAddr: 0x10002337C, symSize: 0x14 }
  - { offsetInCU: 0xD983, offset: 0x94422, size: 0x8, addend: 0x0, symName: __ZN16ECTextViewConfigD2Ev, symObjAddr: 0x2970, symBinAddr: 0x100023390, symSize: 0xA0 }
  - { offsetInCU: 0xD9AF, offset: 0x9444E, size: 0x8, addend: 0x0, symName: __ZNSt3__16vectorIP10ECObserverNS_9allocatorIS2_EEED1B8ue170006Ev, symObjAddr: 0x2A10, symBinAddr: 0x100023430, symSize: 0x2C }
  - { offsetInCU: 0xD9D9, offset: 0x94478, size: 0x8, addend: 0x0, symName: __ZNSt3__16vectorIP10ECObserverNS_9allocatorIS2_EEED2B8ue170006Ev, symObjAddr: 0x2A3C, symBinAddr: 0x10002345C, symSize: 0x3C }
  - { offsetInCU: 0xDA03, offset: 0x944A2, size: 0x8, addend: 0x0, symName: __ZNSt3__16vectorIP10ECObserverNS_9allocatorIS2_EEE16__destroy_vectorC1B8ue170006ERS5_, symObjAddr: 0x2A78, symBinAddr: 0x100023498, symSize: 0x34 }
  - { offsetInCU: 0xDA3C, offset: 0x944DB, size: 0x8, addend: 0x0, symName: __ZNSt3__16vectorIP10ECObserverNS_9allocatorIS2_EEE16__destroy_vectorclB8ue170006Ev, symObjAddr: 0x2AAC, symBinAddr: 0x1000234CC, symSize: 0x90 }
  - { offsetInCU: 0xDA62, offset: 0x94501, size: 0x8, addend: 0x0, symName: __ZNSt3__16vectorIP10ECObserverNS_9allocatorIS2_EEE16__destroy_vectorC2B8ue170006ERS5_, symObjAddr: 0x2B3C, symBinAddr: 0x10002355C, symSize: 0x20 }
  - { offsetInCU: 0xDA9B, offset: 0x9453A, size: 0x8, addend: 0x0, symName: __ZNSt3__16vectorIP10ECObserverNS_9allocatorIS2_EEE7__clearB8ue170006Ev, symObjAddr: 0x2B5C, symBinAddr: 0x10002357C, symSize: 0x28 }
  - { offsetInCU: 0xDAC1, offset: 0x94560, size: 0x8, addend: 0x0, symName: __ZL9IsRawModev, symObjAddr: 0x2FCC, symBinAddr: 0x1000235A4, symSize: 0x10 }
  - { offsetInCU: 0xDADF, offset: 0x9457E, size: 0x8, addend: 0x0, symName: __ZL9WndAtExitv, symObjAddr: 0x2FDC, symBinAddr: 0x1000235B4, symSize: 0x40 }
  - { offsetInCU: 0xDAF9, offset: 0x94598, size: 0x8, addend: 0x0, symName: __ZL10SetRawModeb, symObjAddr: 0x301C, symBinAddr: 0x1000235F4, symSize: 0x28 }
  - { offsetInCU: 0xDB22, offset: 0x945C1, size: 0x8, addend: 0x0, symName: __ZNSt3__16vectorIP10ECObserverNS_9allocatorIS2_EEEixB8ue170006Em, symObjAddr: 0x3044, symBinAddr: 0x10002361C, symSize: 0x24 }
  - { offsetInCU: 0xDB59, offset: 0x945F8, size: 0x8, addend: 0x0, symName: __ZNKSt3__16vectorIbNS_9allocatorIbEEEixB8ue170006Em, symObjAddr: 0x3094, symBinAddr: 0x100023640, symSize: 0x3C }
  - { offsetInCU: 0xDB8E, offset: 0x9462D, size: 0x8, addend: 0x0, symName: __ZNKSt3__121__bit_const_referenceINS_6vectorIbNS_9allocatorIbEEEEEcvbB8ue170006Ev, symObjAddr: 0x30D0, symBinAddr: 0x10002367C, symSize: 0x2C }
  - { offsetInCU: 0xDBB4, offset: 0x94653, size: 0x8, addend: 0x0, symName: __ZNKSt3__16vectorIbNS_9allocatorIbEEE10__make_refB8ue170006Em, symObjAddr: 0x30FC, symBinAddr: 0x1000236A8, symSize: 0x60 }
  - { offsetInCU: 0xDBE9, offset: 0x94688, size: 0x8, addend: 0x0, symName: __ZNSt3__121__bit_const_referenceINS_6vectorIbNS_9allocatorIbEEEEEC1B8ue170006EPKmm, symObjAddr: 0x315C, symBinAddr: 0x100023708, symSize: 0x3C }
  - { offsetInCU: 0xDC2F, offset: 0x946CE, size: 0x8, addend: 0x0, symName: __ZNSt3__121__bit_const_referenceINS_6vectorIbNS_9allocatorIbEEEEEC2B8ue170006EPKmm, symObjAddr: 0x3198, symBinAddr: 0x100023744, symSize: 0x2C }
  - { offsetInCU: 0xDC75, offset: 0x94714, size: 0x8, addend: 0x0, symName: __ZNSt3__16vectorIbNS_9allocatorIbEEEC2B8ue170006Ev, symObjAddr: 0x3680, symBinAddr: 0x100023770, symSize: 0x44 }
  - { offsetInCU: 0xDCA6, offset: 0x94745, size: 0x8, addend: 0x0, symName: __ZNSt3__117__compressed_pairImNS_9allocatorImEEEC1B8ue170006IiNS_18__default_init_tagEEEOT_OT0_, symObjAddr: 0x36C4, symBinAddr: 0x1000237B4, symSize: 0x3C }
  - { offsetInCU: 0xDCFE, offset: 0x9479D, size: 0x8, addend: 0x0, symName: __ZNSt3__117__compressed_pairImNS_9allocatorImEEEC2B8ue170006IiNS_18__default_init_tagEEEOT_OT0_, symObjAddr: 0x3700, symBinAddr: 0x1000237F0, symSize: 0x40 }
  - { offsetInCU: 0xDD56, offset: 0x947F5, size: 0x8, addend: 0x0, symName: __ZNSt3__122__compressed_pair_elemINS_9allocatorImEELi1ELb1EEC2B8ue170006ENS_18__default_init_tagE, symObjAddr: 0x3764, symBinAddr: 0x100023830, symSize: 0x2C }
  - { offsetInCU: 0xDD8B, offset: 0x9482A, size: 0x8, addend: 0x0, symName: __ZNSt3__19allocatorImEC2B8ue170006Ev, symObjAddr: 0x3790, symBinAddr: 0x10002385C, symSize: 0x2C }
  - { offsetInCU: 0xDDB5, offset: 0x94854, size: 0x8, addend: 0x0, symName: __ZNSt3__116__non_trivial_ifILb1ENS_9allocatorImEEEC2B8ue170006Ev, symObjAddr: 0x37BC, symBinAddr: 0x100023888, symSize: 0x14 }
  - { offsetInCU: 0xDDDF, offset: 0x9487E, size: 0x8, addend: 0x0, symName: __ZNSt3__16vectorIbNS_9allocatorIbEEED2B8ue170006Ev, symObjAddr: 0x3CE4, symBinAddr: 0x10002389C, symSize: 0x3C }
  - { offsetInCU: 0xDE09, offset: 0x948A8, size: 0x8, addend: 0x0, symName: __ZNSt3__16vectorIbNS_9allocatorIbEEE16__destroy_vectorC1B8ue170006ERS3_, symObjAddr: 0x3D20, symBinAddr: 0x1000238D8, symSize: 0x34 }
  - { offsetInCU: 0xDE42, offset: 0x948E1, size: 0x8, addend: 0x0, symName: __ZNSt3__16vectorIbNS_9allocatorIbEEE16__destroy_vectorclB8ue170006Ev, symObjAddr: 0x3D54, symBinAddr: 0x10002390C, symSize: 0x7C }
  - { offsetInCU: 0xDE68, offset: 0x94907, size: 0x8, addend: 0x0, symName: __ZNSt3__16vectorIbNS_9allocatorIbEEE16__destroy_vectorC2B8ue170006ERS3_, symObjAddr: 0x3DD0, symBinAddr: 0x100023988, symSize: 0x20 }
  - { offsetInCU: 0xDEA1, offset: 0x94940, size: 0x8, addend: 0x0, symName: __ZNSt3__116allocator_traitsINS_9allocatorImEEE10deallocateB8ue170006ERS2_Pmm, symObjAddr: 0x3DF0, symBinAddr: 0x1000239A8, symSize: 0x34 }
  - { offsetInCU: 0xDEE3, offset: 0x94982, size: 0x8, addend: 0x0, symName: __ZNSt3__16vectorIbNS_9allocatorIbEEE7__allocB8ue170006Ev, symObjAddr: 0x3E24, symBinAddr: 0x1000239DC, symSize: 0x28 }
  - { offsetInCU: 0xDF09, offset: 0x949A8, size: 0x8, addend: 0x0, symName: __ZNSt3__16vectorIbNS_9allocatorIbEEE5__capB8ue170006Ev, symObjAddr: 0x3E4C, symBinAddr: 0x100023A04, symSize: 0x28 }
  - { offsetInCU: 0xDF2F, offset: 0x949CE, size: 0x8, addend: 0x0, symName: __ZNSt3__19allocatorImE10deallocateB8ue170006EPmm, symObjAddr: 0x3E74, symBinAddr: 0x100023A2C, symSize: 0x70 }
  - { offsetInCU: 0xDF71, offset: 0x94A10, size: 0x8, addend: 0x0, symName: __ZNSt3__117__compressed_pairImNS_9allocatorImEEE6secondB8ue170006Ev, symObjAddr: 0x3EE4, symBinAddr: 0x100023A9C, symSize: 0x24 }
  - { offsetInCU: 0xDF97, offset: 0x94A36, size: 0x8, addend: 0x0, symName: __ZNSt3__122__compressed_pair_elemINS_9allocatorImEELi1ELb1EE5__getB8ue170006Ev, symObjAddr: 0x3F08, symBinAddr: 0x100023AC0, symSize: 0x14 }
  - { offsetInCU: 0xDFBD, offset: 0x94A5C, size: 0x8, addend: 0x0, symName: __ZNSt3__117__compressed_pairImNS_9allocatorImEEE5firstB8ue170006Ev, symObjAddr: 0x3F1C, symBinAddr: 0x100023AD4, symSize: 0x24 }
  - { offsetInCU: 0xE006, offset: 0x94AA5, size: 0x8, addend: 0x0, symName: __ZNKSt3__16vectorIbNS_9allocatorIbEEE8capacityB8ue170006Ev, symObjAddr: 0x5E7C, symBinAddr: 0x100023AF8, symSize: 0x2C }
  - { offsetInCU: 0xE02C, offset: 0x94ACB, size: 0x8, addend: 0x0, symName: __ZNSt3__16vectorIbNS_9allocatorIbEEE7reserveEm, symObjAddr: 0x5EA8, symBinAddr: 0x100023B24, symSize: 0x120 }
  - { offsetInCU: 0xE077, offset: 0x94B16, size: 0x8, addend: 0x0, symName: __ZNKSt3__16vectorIbNS_9allocatorIbEEE11__recommendB8ue170006Em, symObjAddr: 0x5FC8, symBinAddr: 0x100023C44, symSize: 0xCC }
  - { offsetInCU: 0xE0CB, offset: 0x94B6A, size: 0x8, addend: 0x0, symName: __ZNSt3__16vectorIbNS_9allocatorIbEEE4backB8ue170006Ev, symObjAddr: 0x6094, symBinAddr: 0x100023D10, symSize: 0x3C }
  - { offsetInCU: 0xE0F1, offset: 0x94B90, size: 0x8, addend: 0x0, symName: __ZNSt3__115__bit_referenceINS_6vectorIbNS_9allocatorIbEEEELb1EEaSB8ue170006Eb, symObjAddr: 0x60D0, symBinAddr: 0x100023D4C, symSize: 0x6C }
  - { offsetInCU: 0xE125, offset: 0x94BC4, size: 0x8, addend: 0x0, symName: __ZNSt3__16vectorIbNS_9allocatorIbEEE26__internal_cap_to_externalB8ue170006Em, symObjAddr: 0x613C, symBinAddr: 0x100023DB8, symSize: 0x18 }
  - { offsetInCU: 0xE149, offset: 0x94BE8, size: 0x8, addend: 0x0, symName: __ZNKSt3__16vectorIbNS_9allocatorIbEEE5__capB8ue170006Ev, symObjAddr: 0x6154, symBinAddr: 0x100023DD0, symSize: 0x28 }
  - { offsetInCU: 0xE16F, offset: 0x94C0E, size: 0x8, addend: 0x0, symName: __ZNKSt3__117__compressed_pairImNS_9allocatorImEEE5firstB8ue170006Ev, symObjAddr: 0x617C, symBinAddr: 0x100023DF8, symSize: 0x24 }
  - { offsetInCU: 0xE195, offset: 0x94C34, size: 0x8, addend: 0x0, symName: __ZNKSt3__122__compressed_pair_elemImLi0ELb0EE5__getB8ue170006Ev, symObjAddr: 0x61A0, symBinAddr: 0x100023E1C, symSize: 0x14 }
  - { offsetInCU: 0xE1BB, offset: 0x94C5A, size: 0x8, addend: 0x0, symName: __ZNKSt3__16vectorIbNS_9allocatorIbEEE8max_sizeEv, symObjAddr: 0x61B4, symBinAddr: 0x100023E30, symSize: 0x7C }
  - { offsetInCU: 0xE200, offset: 0x94C9F, size: 0x8, addend: 0x0, symName: __ZNKSt3__16vectorIbNS_9allocatorIbEEE20__throw_length_errorB8ue170006Ev, symObjAddr: 0x6230, symBinAddr: 0x100023EAC, symSize: 0x1C }
  - { offsetInCU: 0xE226, offset: 0x94CC5, size: 0x8, addend: 0x0, symName: __ZNKSt3__16vectorIbNS_9allocatorIbEEE13get_allocatorB8ue170006Ev, symObjAddr: 0x624C, symBinAddr: 0x100023EC8, symSize: 0x30 }
  - { offsetInCU: 0xE24C, offset: 0x94CEB, size: 0x8, addend: 0x0, symName: __ZNSt3__16vectorIbNS_9allocatorIbEEEC1B8ue170006ERKS2_, symObjAddr: 0x627C, symBinAddr: 0x100023EF8, symSize: 0x34 }
  - { offsetInCU: 0xE287, offset: 0x94D26, size: 0x8, addend: 0x0, symName: __ZNSt3__16vectorIbNS_9allocatorIbEEE11__vallocateB8ue170006Em, symObjAddr: 0x62B0, symBinAddr: 0x100023F2C, symSize: 0x10C }
  - { offsetInCU: 0xE2E9, offset: 0x94D88, size: 0x8, addend: 0x0, symName: __ZNSt3__16vectorIbNS_9allocatorIbEEE18__construct_at_endINS_14__bit_iteratorIS3_Lb0ELm0EEES6_EEvT_T0_m, symObjAddr: 0x63BC, symBinAddr: 0x100024038, symSize: 0x12C }
  - { offsetInCU: 0xE360, offset: 0x94DFF, size: 0x8, addend: 0x0, symName: __ZNSt3__16vectorIbNS_9allocatorIbEEE5beginB8ue170006Ev, symObjAddr: 0x64E8, symBinAddr: 0x100024164, symSize: 0x30 }
  - { offsetInCU: 0xE386, offset: 0x94E25, size: 0x8, addend: 0x0, symName: __ZNSt3__16vectorIbNS_9allocatorIbEEE3endB8ue170006Ev, symObjAddr: 0x6518, symBinAddr: 0x100024194, symSize: 0x30 }
  - { offsetInCU: 0xE3AC, offset: 0x94E4B, size: 0x8, addend: 0x0, symName: __ZNKSt3__16vectorIbNS_9allocatorIbEEE4sizeB8ue170006Ev, symObjAddr: 0x6548, symBinAddr: 0x1000241C4, symSize: 0x18 }
  - { offsetInCU: 0xE3D2, offset: 0x94E71, size: 0x8, addend: 0x0, symName: __ZNSt3__16vectorIbNS_9allocatorIbEEE4swapERS3_, symObjAddr: 0x6560, symBinAddr: 0x1000241DC, symSize: 0x84 }
  - { offsetInCU: 0xE412, offset: 0x94EB1, size: 0x8, addend: 0x0, symName: __ZNSt3__116allocator_traitsINS_9allocatorImEEE8max_sizeB8ue170006IS2_vEEmRKS2_, symObjAddr: 0x65E4, symBinAddr: 0x100024260, symSize: 0x24 }
  - { offsetInCU: 0xE440, offset: 0x94EDF, size: 0x8, addend: 0x0, symName: __ZNKSt3__16vectorIbNS_9allocatorIbEEE7__allocB8ue170006Ev, symObjAddr: 0x6608, symBinAddr: 0x100024284, symSize: 0x28 }
  - { offsetInCU: 0xE466, offset: 0x94F05, size: 0x8, addend: 0x0, symName: __ZNKSt3__19allocatorImE8max_sizeB8ue170006Ev, symObjAddr: 0x6644, symBinAddr: 0x1000242AC, symSize: 0x14 }
  - { offsetInCU: 0xE48C, offset: 0x94F2B, size: 0x8, addend: 0x0, symName: __ZNKSt3__117__compressed_pairImNS_9allocatorImEEE6secondB8ue170006Ev, symObjAddr: 0x6658, symBinAddr: 0x1000242C0, symSize: 0x24 }
  - { offsetInCU: 0xE4B2, offset: 0x94F51, size: 0x8, addend: 0x0, symName: __ZNKSt3__122__compressed_pair_elemINS_9allocatorImEELi1ELb1EE5__getB8ue170006Ev, symObjAddr: 0x667C, symBinAddr: 0x1000242E4, symSize: 0x14 }
  - { offsetInCU: 0xE4D8, offset: 0x94F77, size: 0x8, addend: 0x0, symName: __ZNSt3__19allocatorIbEC1B8ue170006ImEERKNS0_IT_EE, symObjAddr: 0x6698, symBinAddr: 0x1000242F8, symSize: 0x34 }
  - { offsetInCU: 0xE516, offset: 0x94FB5, size: 0x8, addend: 0x0, symName: __ZNSt3__19allocatorIbEC2B8ue170006ImEERKNS0_IT_EE, symObjAddr: 0x66CC, symBinAddr: 0x10002432C, symSize: 0x30 }
  - { offsetInCU: 0xE554, offset: 0x94FF3, size: 0x8, addend: 0x0, symName: __ZNSt3__116__non_trivial_ifILb1ENS_9allocatorIbEEEC2B8ue170006Ev, symObjAddr: 0x66FC, symBinAddr: 0x10002435C, symSize: 0x14 }
  - { offsetInCU: 0xE57E, offset: 0x9501D, size: 0x8, addend: 0x0, symName: __ZNSt3__16vectorIbNS_9allocatorIbEEEC2B8ue170006ERKS2_, symObjAddr: 0x6710, symBinAddr: 0x100024370, symSize: 0x64 }
  - { offsetInCU: 0xE5BE, offset: 0x9505D, size: 0x8, addend: 0x0, symName: __ZNSt3__19allocatorImEC1B8ue170006IbEERKNS0_IT_EE, symObjAddr: 0x6774, symBinAddr: 0x1000243D4, symSize: 0x34 }
  - { offsetInCU: 0xE601, offset: 0x950A0, size: 0x8, addend: 0x0, symName: __ZNSt3__117__compressed_pairImNS_9allocatorImEEEC1B8ue170006IiS2_EEOT_OT0_, symObjAddr: 0x67A8, symBinAddr: 0x100024408, symSize: 0x3C }
  - { offsetInCU: 0xE659, offset: 0x950F8, size: 0x8, addend: 0x0, symName: __ZNSt3__19allocatorImEC2B8ue170006IbEERKNS0_IT_EE, symObjAddr: 0x67E4, symBinAddr: 0x100024444, symSize: 0x30 }
  - { offsetInCU: 0xE697, offset: 0x95136, size: 0x8, addend: 0x0, symName: __ZNSt3__117__compressed_pairImNS_9allocatorImEEEC2B8ue170006IiS2_EEOT_OT0_, symObjAddr: 0x6814, symBinAddr: 0x100024474, symSize: 0x44 }
  - { offsetInCU: 0xE6EF, offset: 0x9518E, size: 0x8, addend: 0x0, symName: __ZNSt3__122__compressed_pair_elemINS_9allocatorImEELi1ELb1EEC2B8ue170006IS2_vEEOT_, symObjAddr: 0x6858, symBinAddr: 0x1000244B8, symSize: 0x18 }
  - { offsetInCU: 0xE731, offset: 0x951D0, size: 0x8, addend: 0x0, symName: __ZNSt3__16vectorIbNS_9allocatorIbEEE26__external_cap_to_internalB8ue170006Em, symObjAddr: 0x68B0, symBinAddr: 0x100024510, symSize: 0x24 }
  - { offsetInCU: 0xE755, offset: 0x951F4, size: 0x8, addend: 0x0, symName: __ZNSt3__19allocatorImE8allocateB8ue170006Em, symObjAddr: 0x6908, symBinAddr: 0x100024568, symSize: 0x84 }
  - { offsetInCU: 0xE789, offset: 0x95228, size: 0x8, addend: 0x0, symName: __ZNSt3__114__bit_iteratorINS_6vectorIbNS_9allocatorIbEEEELb0ELm0EEC1B8ue170006ERKS5_, symObjAddr: 0x6A14, symBinAddr: 0x100024674, symSize: 0x34 }
  - { offsetInCU: 0xE7C2, offset: 0x95261, size: 0x8, addend: 0x0, symName: __ZNSt3__16vectorIbNS_9allocatorIbEEE11__make_iterB8ue170006Em, symObjAddr: 0x6A48, symBinAddr: 0x1000246A8, symSize: 0x64 }
  - { offsetInCU: 0xE81A, offset: 0x952B9, size: 0x8, addend: 0x0, symName: __ZNKSt3__111__copy_loopINS_17_ClassicAlgPolicyEEclB8ue170006INS_14__bit_iteratorINS_6vectorIbNS_9allocatorIbEEEELb0ELm0EEES9_S9_EENS_4pairIT_T1_EESB_T0_SC_, symObjAddr: 0x6D1C, symBinAddr: 0x10002497C, symSize: 0xB8 }
  - { offsetInCU: 0xE888, offset: 0x95327, size: 0x8, addend: 0x0, symName: __ZNKSt3__114__bit_iteratorINS_6vectorIbNS_9allocatorIbEEEELb0ELm0EEdeB8ue170006Ev, symObjAddr: 0x6F80, symBinAddr: 0x100024BE0, symSize: 0x44 }
  - { offsetInCU: 0xE8AE, offset: 0x9534D, size: 0x8, addend: 0x0, symName: __ZNSt3__115__bit_referenceINS_6vectorIbNS_9allocatorIbEEEELb1EEaSB8ue170006ERKS5_, symObjAddr: 0x6FC4, symBinAddr: 0x100024C24, symSize: 0x40 }
  - { offsetInCU: 0xE8E2, offset: 0x95381, size: 0x8, addend: 0x0, symName: __ZNSt3__114__bit_iteratorINS_6vectorIbNS_9allocatorIbEEEELb0ELm0EEppB8ue170006Ev, symObjAddr: 0x7004, symBinAddr: 0x100024C64, symSize: 0x5C }
  - { offsetInCU: 0xE908, offset: 0x953A7, size: 0x8, addend: 0x0, symName: __ZNSt3__115__bit_referenceINS_6vectorIbNS_9allocatorIbEEEELb1EEC1B8ue170006EPmm, symObjAddr: 0x70C4, symBinAddr: 0x100024D24, symSize: 0x3C }
  - { offsetInCU: 0xE94E, offset: 0x953ED, size: 0x8, addend: 0x0, symName: __ZNSt3__115__bit_referenceINS_6vectorIbNS_9allocatorIbEEEELb1EEC2B8ue170006EPmm, symObjAddr: 0x7100, symBinAddr: 0x100024D60, symSize: 0x2C }
  - { offsetInCU: 0xE994, offset: 0x95433, size: 0x8, addend: 0x0, symName: __ZNKSt3__115__bit_referenceINS_6vectorIbNS_9allocatorIbEEEELb1EEcvbB8ue170006Ev, symObjAddr: 0x712C, symBinAddr: 0x100024D8C, symSize: 0x2C }
  - { offsetInCU: 0xE9BA, offset: 0x95459, size: 0x8, addend: 0x0, symName: __ZNSt3__118__unwrap_iter_implINS_14__bit_iteratorINS_6vectorIbNS_9allocatorIbEEEELb0ELm0EEELb0EE8__unwrapB8ue170006ES6_, symObjAddr: 0x7158, symBinAddr: 0x100024DB8, symSize: 0x38 }
  - { offsetInCU: 0xE9DE, offset: 0x9547D, size: 0x8, addend: 0x0, symName: __ZNSt3__14pairINS_14__bit_iteratorINS_6vectorIbNS_9allocatorIbEEEELb0ELm0EEES6_EC1B8ue170006ERKS6_S9_, symObjAddr: 0x7190, symBinAddr: 0x100024DF0, symSize: 0x3C }
  - { offsetInCU: 0xEA24, offset: 0x954C3, size: 0x8, addend: 0x0, symName: __ZNSt3__14pairINS_14__bit_iteratorINS_6vectorIbNS_9allocatorIbEEEELb0ELm0EEES6_EC2B8ue170006ERKS6_S9_, symObjAddr: 0x71CC, symBinAddr: 0x100024E2C, symSize: 0x48 }
  - { offsetInCU: 0xEA6A, offset: 0x95509, size: 0x8, addend: 0x0, symName: __ZNSt3__118__unwrap_iter_implINS_14__bit_iteratorINS_6vectorIbNS_9allocatorIbEEEELb0ELm0EEELb0EE8__rewrapB8ue170006ES6_S6_, symObjAddr: 0x7214, symBinAddr: 0x100024E74, symSize: 0x3C }
  - { offsetInCU: 0xEA9A, offset: 0x95539, size: 0x8, addend: 0x0, symName: __ZNSt3__114__bit_iteratorINS_6vectorIbNS_9allocatorIbEEEELb0ELm0EEC2B8ue170006ERKS5_, symObjAddr: 0x7250, symBinAddr: 0x100024EB0, symSize: 0x30 }
  - { offsetInCU: 0xEAD3, offset: 0x95572, size: 0x8, addend: 0x0, symName: __ZNSt3__114__bit_iteratorINS_6vectorIbNS_9allocatorIbEEEELb0ELm0EEC1B8ue170006EPmj, symObjAddr: 0x7280, symBinAddr: 0x100024EE0, symSize: 0x3C }
  - { offsetInCU: 0xEB1B, offset: 0x955BA, size: 0x8, addend: 0x0, symName: __ZNSt3__114__bit_iteratorINS_6vectorIbNS_9allocatorIbEEEELb0ELm0EEC2B8ue170006EPmj, symObjAddr: 0x72BC, symBinAddr: 0x100024F1C, symSize: 0x2C }
  - { offsetInCU: 0xEB63, offset: 0x95602, size: 0x8, addend: 0x0, symName: __ZNSt3__16vectorIbNS_9allocatorIbEEE10__align_itB8ue170006Em, symObjAddr: 0x7374, symBinAddr: 0x100024FD4, symSize: 0x1C }
  - { offsetInCU: 0xEB87, offset: 0x95626, size: 0x8, addend: 0x0, symName: __ZNSt3__16vectorIbNS_9allocatorIbEEE10__make_refB8ue170006Em, symObjAddr: 0x7390, symBinAddr: 0x100024FF0, symSize: 0x60 }
  - { offsetInCU: 0xEBBC, offset: 0x9565B, size: 0x8, addend: 0x0, symName: __ZNSt3__13mapIiNS0_IiNS_4pairIi10TEXT_COLOREENS_4lessIiEENS_9allocatorINS1_IKiS3_EEEEEES5_NS6_INS1_IS7_SA_EEEEEC2B8ue170006Ev, symObjAddr: 0x7804, symBinAddr: 0x100025050, symSize: 0x40 }
  - { offsetInCU: 0xEBE6, offset: 0x95685, size: 0x8, addend: 0x0, symName: __ZNSt3__119__map_value_compareIiNS_12__value_typeIiNS_3mapIiNS_4pairIi10TEXT_COLOREENS_4lessIiEENS_9allocatorINS3_IKiS5_EEEEEEEES7_Lb1EEC1B8ue170006ES7_, symObjAddr: 0x7844, symBinAddr: 0x100025090, symSize: 0x2C }
  - { offsetInCU: 0xEC1F, offset: 0x956BE, size: 0x8, addend: 0x0, symName: __ZNSt3__16__treeINS_12__value_typeIiNS_3mapIiNS_4pairIi10TEXT_COLOREENS_4lessIiEENS_9allocatorINS3_IKiS5_EEEEEEEENS_19__map_value_compareIiSD_S7_Lb1EEENS8_ISD_EEEC1ERKSF_, symObjAddr: 0x7870, symBinAddr: 0x1000250BC, symSize: 0x34 }
  - { offsetInCU: 0xEC5A, offset: 0x956F9, size: 0x8, addend: 0x0, symName: __ZNSt3__119__map_value_compareIiNS_12__value_typeIiNS_3mapIiNS_4pairIi10TEXT_COLOREENS_4lessIiEENS_9allocatorINS3_IKiS5_EEEEEEEES7_Lb1EEC2B8ue170006ES7_, symObjAddr: 0x78A4, symBinAddr: 0x1000250F0, symSize: 0x14 }
  - { offsetInCU: 0xEC93, offset: 0x95732, size: 0x8, addend: 0x0, symName: __ZNSt3__16__treeINS_12__value_typeIiNS_3mapIiNS_4pairIi10TEXT_COLOREENS_4lessIiEENS_9allocatorINS3_IKiS5_EEEEEEEENS_19__map_value_compareIiSD_S7_Lb1EEENS8_ISD_EEEC2ERKSF_, symObjAddr: 0x78B8, symBinAddr: 0x100025104, symSize: 0x70 }
  - { offsetInCU: 0xECCE, offset: 0x9576D, size: 0x8, addend: 0x0, symName: __ZNSt3__117__compressed_pairINS_15__tree_end_nodeIPNS_16__tree_node_baseIPvEEEENS_9allocatorINS_11__tree_nodeINS_12__value_typeIiNS_3mapIiNS_4pairIi10TEXT_COLOREENS_4lessIiEENS7_INSB_IKiSD_EEEEEEEES3_EEEEEC1B8ue170006ILb1EvEEv, symObjAddr: 0x7928, symBinAddr: 0x100025174, symSize: 0x2C }
  - { offsetInCU: 0xED03, offset: 0x957A2, size: 0x8, addend: 0x0, symName: __ZNSt3__117__compressed_pairImNS_19__map_value_compareIiNS_12__value_typeIiNS_3mapIiNS_4pairIi10TEXT_COLOREENS_4lessIiEENS_9allocatorINS4_IKiS6_EEEEEEEES8_Lb1EEEEC1B8ue170006IiRKSF_EEOT_OT0_, symObjAddr: 0x7954, symBinAddr: 0x1000251A0, symSize: 0x3C }
  - { offsetInCU: 0xED5B, offset: 0x957FA, size: 0x8, addend: 0x0, symName: __ZNSt3__117__compressed_pairINS_15__tree_end_nodeIPNS_16__tree_node_baseIPvEEEENS_9allocatorINS_11__tree_nodeINS_12__value_typeIiNS_3mapIiNS_4pairIi10TEXT_COLOREENS_4lessIiEENS7_INSB_IKiSD_EEEEEEEES3_EEEEEC2B8ue170006ILb1EvEEv, symObjAddr: 0x79D0, symBinAddr: 0x1000251DC, symSize: 0x34 }
  - { offsetInCU: 0xED90, offset: 0x9582F, size: 0x8, addend: 0x0, symName: __ZNSt3__122__compressed_pair_elemINS_9allocatorINS_11__tree_nodeINS_12__value_typeIiNS_3mapIiNS_4pairIi10TEXT_COLOREENS_4lessIiEENS1_INS5_IKiS7_EEEEEEEEPvEEEELi1ELb1EEC2B8ue170006ENS_16__value_init_tagE, symObjAddr: 0x7A30, symBinAddr: 0x100025210, symSize: 0x2C }
  - { offsetInCU: 0xEDC5, offset: 0x95864, size: 0x8, addend: 0x0, symName: __ZNSt3__19allocatorINS_11__tree_nodeINS_12__value_typeIiNS_3mapIiNS_4pairIi10TEXT_COLOREENS_4lessIiEENS0_INS4_IKiS6_EEEEEEEEPvEEEC2B8ue170006Ev, symObjAddr: 0x7AA0, symBinAddr: 0x10002523C, symSize: 0x2C }
  - { offsetInCU: 0xEDEF, offset: 0x9588E, size: 0x8, addend: 0x0, symName: __ZNSt3__116__non_trivial_ifILb1ENS_9allocatorINS_11__tree_nodeINS_12__value_typeIiNS_3mapIiNS_4pairIi10TEXT_COLOREENS_4lessIiEENS1_INS5_IKiS7_EEEEEEEEPvEEEEEC2B8ue170006Ev, symObjAddr: 0x7ACC, symBinAddr: 0x100025268, symSize: 0x14 }
  - { offsetInCU: 0xEE19, offset: 0x958B8, size: 0x8, addend: 0x0, symName: __ZNSt3__117__compressed_pairImNS_19__map_value_compareIiNS_12__value_typeIiNS_3mapIiNS_4pairIi10TEXT_COLOREENS_4lessIiEENS_9allocatorINS4_IKiS6_EEEEEEEES8_Lb1EEEEC2B8ue170006IiRKSF_EEOT_OT0_, symObjAddr: 0x7AE0, symBinAddr: 0x10002527C, symSize: 0x44 }
  - { offsetInCU: 0xEE71, offset: 0x95910, size: 0x8, addend: 0x0, symName: __ZNSt3__122__compressed_pair_elemINS_19__map_value_compareIiNS_12__value_typeIiNS_3mapIiNS_4pairIi10TEXT_COLOREENS_4lessIiEENS_9allocatorINS4_IKiS6_EEEEEEEES8_Lb1EEELi1ELb1EEC2B8ue170006IRKSF_vEEOT_, symObjAddr: 0x7B24, symBinAddr: 0x1000252C0, symSize: 0x18 }
  - { offsetInCU: 0xEEB3, offset: 0x95952, size: 0x8, addend: 0x0, symName: __ZNSt3__13mapIiNS0_IiNS_4pairIi10TEXT_COLOREENS_4lessIiEENS_9allocatorINS1_IKiS3_EEEEEES5_NS6_INS1_IS7_SA_EEEEED2B8ue170006Ev, symObjAddr: 0x7B88, symBinAddr: 0x1000252D8, symSize: 0x2C }
  - { offsetInCU: 0xEEDD, offset: 0x9597C, size: 0x8, addend: 0x0, symName: __ZNSt3__16__treeINS_12__value_typeIiNS_3mapIiNS_4pairIi10TEXT_COLOREENS_4lessIiEENS_9allocatorINS3_IKiS5_EEEEEEEENS_19__map_value_compareIiSD_S7_Lb1EEENS8_ISD_EEED1Ev, symObjAddr: 0x7BB4, symBinAddr: 0x100025304, symSize: 0x2C }
  - { offsetInCU: 0xEF09, offset: 0x959A8, size: 0x8, addend: 0x0, symName: __ZNSt3__16__treeINS_12__value_typeIiNS_3mapIiNS_4pairIi10TEXT_COLOREENS_4lessIiEENS_9allocatorINS3_IKiS5_EEEEEEEENS_19__map_value_compareIiSD_S7_Lb1EEENS8_ISD_EEED2Ev, symObjAddr: 0x7BE0, symBinAddr: 0x100025330, symSize: 0x38 }
  - { offsetInCU: 0xEF35, offset: 0x959D4, size: 0x8, addend: 0x0, symName: __ZNSt3__16__treeINS_12__value_typeIiNS_3mapIiNS_4pairIi10TEXT_COLOREENS_4lessIiEENS_9allocatorINS3_IKiS5_EEEEEEEENS_19__map_value_compareIiSD_S7_Lb1EEENS8_ISD_EEE4findIiEENS_15__tree_iteratorISD_PNS_11__tree_nodeISD_PvEElEERKT_, symObjAddr: 0x836C, symBinAddr: 0x100025368, symSize: 0xF8 }
  - { offsetInCU: 0xEF83, offset: 0x95A22, size: 0x8, addend: 0x0, symName: __ZNSt3__114__map_iteratorINS_15__tree_iteratorINS_12__value_typeIiNS_3mapIiNS_4pairIi10TEXT_COLOREENS_4lessIiEENS_9allocatorINS4_IKiS6_EEEEEEEEPNS_11__tree_nodeISE_PvEElEEEC1B8ue170006ESJ_, symObjAddr: 0x8464, symBinAddr: 0x100025460, symSize: 0x34 }
  - { offsetInCU: 0xEFBC, offset: 0x95A5B, size: 0x8, addend: 0x0, symName: __ZNSt3__16__treeINS_12__value_typeIiNS_3mapIiNS_4pairIi10TEXT_COLOREENS_4lessIiEENS_9allocatorINS3_IKiS5_EEEEEEEENS_19__map_value_compareIiSD_S7_Lb1EEENS8_ISD_EEE13__lower_boundIiEENS_15__tree_iteratorISD_PNS_11__tree_nodeISD_PvEElEERKT_SN_PNS_15__tree_end_nodeIPNS_16__tree_node_baseISL_EEEE, symObjAddr: 0x8498, symBinAddr: 0x100025494, symSize: 0xA4 }
  - { offsetInCU: 0xF019, offset: 0x95AB8, size: 0x8, addend: 0x0, symName: __ZNSt3__16__treeINS_12__value_typeIiNS_3mapIiNS_4pairIi10TEXT_COLOREENS_4lessIiEENS_9allocatorINS3_IKiS5_EEEEEEEENS_19__map_value_compareIiSD_S7_Lb1EEENS8_ISD_EEE3endB8ue170006Ev, symObjAddr: 0x8570, symBinAddr: 0x10002556C, symSize: 0x34 }
  - { offsetInCU: 0xF03F, offset: 0x95ADE, size: 0x8, addend: 0x0, symName: __ZNSt3__16__treeINS_12__value_typeIiNS_3mapIiNS_4pairIi10TEXT_COLOREENS_4lessIiEENS_9allocatorINS3_IKiS5_EEEEEEEENS_19__map_value_compareIiSD_S7_Lb1EEENS8_ISD_EEE10value_compB8ue170006Ev, symObjAddr: 0x85A4, symBinAddr: 0x1000255A0, symSize: 0x28 }
  - { offsetInCU: 0xF065, offset: 0x95B04, size: 0x8, addend: 0x0, symName: __ZNKSt3__119__map_value_compareIiNS_12__value_typeIiNS_3mapIiNS_4pairIi10TEXT_COLOREENS_4lessIiEENS_9allocatorINS3_IKiS5_EEEEEEEES7_Lb1EEclB8ue170006ERS9_RKSD_, symObjAddr: 0x85CC, symBinAddr: 0x1000255C8, symSize: 0x50 }
  - { offsetInCU: 0xF0A9, offset: 0x95B48, size: 0x8, addend: 0x0, symName: __ZNKSt3__115__tree_iteratorINS_12__value_typeIiNS_3mapIiNS_4pairIi10TEXT_COLOREENS_4lessIiEENS_9allocatorINS3_IKiS5_EEEEEEEEPNS_11__tree_nodeISD_PvEElEdeB8ue170006Ev, symObjAddr: 0x861C, symBinAddr: 0x100025618, symSize: 0x28 }
  - { offsetInCU: 0xF0CF, offset: 0x95B6E, size: 0x8, addend: 0x0, symName: __ZNKSt3__119__map_value_compareIiNS_12__value_typeIiNS_3mapIiNS_4pairIi10TEXT_COLOREENS_4lessIiEENS_9allocatorINS3_IKiS5_EEEEEEEES7_Lb1EEclB8ue170006ERKSD_RS9_, symObjAddr: 0x8644, symBinAddr: 0x100025640, symSize: 0x48 }
  - { offsetInCU: 0xF113, offset: 0x95BB2, size: 0x8, addend: 0x0, symName: __ZNSt3__115__tree_iteratorINS_12__value_typeIiNS_3mapIiNS_4pairIi10TEXT_COLOREENS_4lessIiEENS_9allocatorINS3_IKiS5_EEEEEEEEPNS_11__tree_nodeISD_PvEElEC1B8ue170006EPNS_15__tree_end_nodeIPNS_16__tree_node_baseISF_EEEE, symObjAddr: 0x868C, symBinAddr: 0x100025688, symSize: 0x34 }
  - { offsetInCU: 0xF14C, offset: 0x95BEB, size: 0x8, addend: 0x0, symName: __ZNKSt3__14lessIiEclB8ue170006ERKiS3_, symObjAddr: 0x86C0, symBinAddr: 0x1000256BC, symSize: 0x34 }
  - { offsetInCU: 0xF190, offset: 0x95C2F, size: 0x8, addend: 0x0, symName: __ZNKSt3__112__value_typeIiNS_3mapIiNS_4pairIi10TEXT_COLOREENS_4lessIiEENS_9allocatorINS2_IKiS4_EEEEEEE11__get_valueB8ue170006Ev, symObjAddr: 0x86F4, symBinAddr: 0x1000256F0, symSize: 0x14 }
  - { offsetInCU: 0xF1B6, offset: 0x95C55, size: 0x8, addend: 0x0, symName: __ZNSt3__115__tree_iteratorINS_12__value_typeIiNS_3mapIiNS_4pairIi10TEXT_COLOREENS_4lessIiEENS_9allocatorINS3_IKiS5_EEEEEEEEPNS_11__tree_nodeISD_PvEElEC2B8ue170006EPNS_15__tree_end_nodeIPNS_16__tree_node_baseISF_EEEE, symObjAddr: 0x8708, symBinAddr: 0x100025704, symSize: 0x20 }
  - { offsetInCU: 0xF1EF, offset: 0x95C8E, size: 0x8, addend: 0x0, symName: __ZNSt3__117__compressed_pairImNS_19__map_value_compareIiNS_12__value_typeIiNS_3mapIiNS_4pairIi10TEXT_COLOREENS_4lessIiEENS_9allocatorINS4_IKiS6_EEEEEEEES8_Lb1EEEE6secondB8ue170006Ev, symObjAddr: 0x8758, symBinAddr: 0x100025754, symSize: 0x24 }
  - { offsetInCU: 0xF215, offset: 0x95CB4, size: 0x8, addend: 0x0, symName: __ZNSt3__122__compressed_pair_elemINS_19__map_value_compareIiNS_12__value_typeIiNS_3mapIiNS_4pairIi10TEXT_COLOREENS_4lessIiEENS_9allocatorINS4_IKiS6_EEEEEEEES8_Lb1EEELi1ELb1EE5__getB8ue170006Ev, symObjAddr: 0x877C, symBinAddr: 0x100025778, symSize: 0x14 }
  - { offsetInCU: 0xF23B, offset: 0x95CDA, size: 0x8, addend: 0x0, symName: __ZNKSt3__115__tree_iteratorINS_12__value_typeIiNS_3mapIiNS_4pairIi10TEXT_COLOREENS_4lessIiEENS_9allocatorINS3_IKiS5_EEEEEEEEPNS_11__tree_nodeISD_PvEElE8__get_npB8ue170006Ev, symObjAddr: 0x8790, symBinAddr: 0x10002578C, symSize: 0x18 }
  - { offsetInCU: 0xF261, offset: 0x95D00, size: 0x8, addend: 0x0, symName: __ZNSt3__114__map_iteratorINS_15__tree_iteratorINS_12__value_typeIiNS_3mapIiNS_4pairIi10TEXT_COLOREENS_4lessIiEENS_9allocatorINS4_IKiS6_EEEEEEEEPNS_11__tree_nodeISE_PvEElEEEC2B8ue170006ESJ_, symObjAddr: 0x87A8, symBinAddr: 0x1000257A4, symSize: 0x20 }
  - { offsetInCU: 0xF29A, offset: 0x95D39, size: 0x8, addend: 0x0, symName: __ZNSt3__16__treeINS_12__value_typeIiNS_3mapIiNS_4pairIi10TEXT_COLOREENS_4lessIiEENS_9allocatorINS3_IKiS5_EEEEEEEENS_19__map_value_compareIiSD_S7_Lb1EEENS8_ISD_EEE12__find_equalIiEERPNS_16__tree_node_baseIPvEERPNS_15__tree_end_nodeISM_EERKT_, symObjAddr: 0x8870, symBinAddr: 0x1000257C4, symSize: 0x184 }
  - { offsetInCU: 0xF306, offset: 0x95DA5, size: 0x8, addend: 0x0, symName: __ZNSt3__13mapIiNS0_IiNS_4pairIi10TEXT_COLOREENS_4lessIiEENS_9allocatorINS1_IKiS3_EEEEEES5_NS6_INS1_IS7_SA_EEEEE25__construct_node_with_keyERS7_, symObjAddr: 0x89F4, symBinAddr: 0x100025948, symSize: 0x144 }
  - { offsetInCU: 0xF35B, offset: 0x95DFA, size: 0x8, addend: 0x0, symName: __ZNSt3__16__treeINS_12__value_typeIiNS_3mapIiNS_4pairIi10TEXT_COLOREENS_4lessIiEENS_9allocatorINS3_IKiS5_EEEEEEEENS_19__map_value_compareIiSD_S7_Lb1EEENS8_ISD_EEE16__insert_node_atEPNS_15__tree_end_nodeIPNS_16__tree_node_baseIPvEEEERSM_SM_, symObjAddr: 0x8B38, symBinAddr: 0x100025A8C, symSize: 0xCC }
  - { offsetInCU: 0xF3AF, offset: 0x95E4E, size: 0x8, addend: 0x0, symName: __ZNKSt3__110unique_ptrINS_11__tree_nodeINS_12__value_typeIiNS_3mapIiNS_4pairIi10TEXT_COLOREENS_4lessIiEENS_9allocatorINS4_IKiS6_EEEEEEEEPvEENS_21__map_node_destructorINS9_ISG_EEEEE3getB8ue170006Ev, symObjAddr: 0x8C04, symBinAddr: 0x100025B58, symSize: 0x28 }
  - { offsetInCU: 0xF3D5, offset: 0x95E74, size: 0x8, addend: 0x0, symName: __ZNSt3__110unique_ptrINS_11__tree_nodeINS_12__value_typeIiNS_3mapIiNS_4pairIi10TEXT_COLOREENS_4lessIiEENS_9allocatorINS4_IKiS6_EEEEEEEEPvEENS_21__map_node_destructorINS9_ISG_EEEEE7releaseB8ue170006Ev, symObjAddr: 0x8C2C, symBinAddr: 0x100025B80, symSize: 0x44 }
  - { offsetInCU: 0xF40A, offset: 0x95EA9, size: 0x8, addend: 0x0, symName: __ZNSt3__110unique_ptrINS_11__tree_nodeINS_12__value_typeIiNS_3mapIiNS_4pairIi10TEXT_COLOREENS_4lessIiEENS_9allocatorINS4_IKiS6_EEEEEEEEPvEENS_21__map_node_destructorINS9_ISG_EEEEED1B8ue170006Ev, symObjAddr: 0x8C70, symBinAddr: 0x100025BC4, symSize: 0x2C }
  - { offsetInCU: 0xF434, offset: 0x95ED3, size: 0x8, addend: 0x0, symName: __ZNKSt3__16__treeINS_12__value_typeIiNS_3mapIiNS_4pairIi10TEXT_COLOREENS_4lessIiEENS_9allocatorINS3_IKiS5_EEEEEEEENS_19__map_value_compareIiSD_S7_Lb1EEENS8_ISD_EEE10__root_ptrB8ue170006Ev, symObjAddr: 0x8C9C, symBinAddr: 0x100025BF0, symSize: 0x24 }
  - { offsetInCU: 0xF45A, offset: 0x95EF9, size: 0x8, addend: 0x0, symName: __ZNSt3__116allocator_traitsINS_9allocatorINS_11__tree_nodeINS_12__value_typeIiNS_3mapIiNS_4pairIi10TEXT_COLOREENS_4lessIiEENS1_INS5_IKiS7_EEEEEEEEPvEEEEE8allocateB8ue170006ERSH_m, symObjAddr: 0x8CC0, symBinAddr: 0x100025C14, symSize: 0x2C }
  - { offsetInCU: 0xF48D, offset: 0x95F2C, size: 0x8, addend: 0x0, symName: __ZNSt3__121__map_node_destructorINS_9allocatorINS_11__tree_nodeINS_12__value_typeIiNS_3mapIiNS_4pairIi10TEXT_COLOREENS_4lessIiEENS1_INS5_IKiS7_EEEEEEEEPvEEEEEC1B8ue170006ERSH_, symObjAddr: 0x8CEC, symBinAddr: 0x100025C40, symSize: 0x34 }
  - { offsetInCU: 0xF4CB, offset: 0x95F6A, size: 0x8, addend: 0x0, symName: __ZNSt3__110unique_ptrINS_11__tree_nodeINS_12__value_typeIiNS_3mapIiNS_4pairIi10TEXT_COLOREENS_4lessIiEENS_9allocatorINS4_IKiS6_EEEEEEEEPvEENS_21__map_node_destructorINS9_ISG_EEEEEC1B8ue170006ILb1EvEEPSG_NS_16__dependent_typeINS_27__unique_ptr_deleter_sfinaeISJ_EEXT_EE20__good_rval_ref_typeE, symObjAddr: 0x8D20, symBinAddr: 0x100025C74, symSize: 0x3C }
  - { offsetInCU: 0xF521, offset: 0x95FC0, size: 0x8, addend: 0x0, symName: __ZNSt3__116allocator_traitsINS_9allocatorINS_11__tree_nodeINS_12__value_typeIiNS_3mapIiNS_4pairIi10TEXT_COLOREENS_4lessIiEENS1_INS5_IKiS7_EEEEEEEEPvEEEEE9constructB8ue170006ISA_JRSA_EvEEvRSH_PT_DpOT0_, symObjAddr: 0x8D5C, symBinAddr: 0x100025CB0, symSize: 0x34 }
  - { offsetInCU: 0xF578, offset: 0x96017, size: 0x8, addend: 0x0, symName: __ZNKSt3__110unique_ptrINS_11__tree_nodeINS_12__value_typeIiNS_3mapIiNS_4pairIi10TEXT_COLOREENS_4lessIiEENS_9allocatorINS4_IKiS6_EEEEEEEEPvEENS_21__map_node_destructorINS9_ISG_EEEEEptB8ue170006Ev, symObjAddr: 0x8D90, symBinAddr: 0x100025CE4, symSize: 0x28 }
  - { offsetInCU: 0xF59E, offset: 0x9603D, size: 0x8, addend: 0x0, symName: __ZNSt3__110unique_ptrINS_11__tree_nodeINS_12__value_typeIiNS_3mapIiNS_4pairIi10TEXT_COLOREENS_4lessIiEENS_9allocatorINS4_IKiS6_EEEEEEEEPvEENS_21__map_node_destructorINS9_ISG_EEEEE11get_deleterB8ue170006Ev, symObjAddr: 0x8DB8, symBinAddr: 0x100025D0C, symSize: 0x24 }
  - { offsetInCU: 0xF5C9, offset: 0x96068, size: 0x8, addend: 0x0, symName: __ZNSt3__116allocator_traitsINS_9allocatorINS_11__tree_nodeINS_12__value_typeIiNS_3mapIiNS_4pairIi10TEXT_COLOREENS_4lessIiEENS1_INS5_IKiS7_EEEEEEEEPvEEEEE9constructB8ue170006ISD_JEvEEvRSH_PT_DpOT0_, symObjAddr: 0x8DDC, symBinAddr: 0x100025D30, symSize: 0x2C }
  - { offsetInCU: 0xF60B, offset: 0x960AA, size: 0x8, addend: 0x0, symName: __ZNSt3__19allocatorINS_11__tree_nodeINS_12__value_typeIiNS_3mapIiNS_4pairIi10TEXT_COLOREENS_4lessIiEENS0_INS4_IKiS6_EEEEEEEEPvEEE8allocateB8ue170006Em, symObjAddr: 0x8E08, symBinAddr: 0x100025D5C, symSize: 0x84 }
  - { offsetInCU: 0xF649, offset: 0x960E8, size: 0x8, addend: 0x0, symName: __ZNSt3__116allocator_traitsINS_9allocatorINS_11__tree_nodeINS_12__value_typeIiNS_3mapIiNS_4pairIi10TEXT_COLOREENS_4lessIiEENS1_INS5_IKiS7_EEEEEEEEPvEEEEE8max_sizeB8ue170006ISH_vEEmRKSH_, symObjAddr: 0x8E8C, symBinAddr: 0x100025DE0, symSize: 0x24 }
  - { offsetInCU: 0xF677, offset: 0x96116, size: 0x8, addend: 0x0, symName: __ZNKSt3__19allocatorINS_11__tree_nodeINS_12__value_typeIiNS_3mapIiNS_4pairIi10TEXT_COLOREENS_4lessIiEENS0_INS4_IKiS6_EEEEEEEEPvEEE8max_sizeB8ue170006Ev, symObjAddr: 0x8EB0, symBinAddr: 0x100025E04, symSize: 0x14 }
  - { offsetInCU: 0xF69D, offset: 0x9613C, size: 0x8, addend: 0x0, symName: __ZNSt3__121__map_node_destructorINS_9allocatorINS_11__tree_nodeINS_12__value_typeIiNS_3mapIiNS_4pairIi10TEXT_COLOREENS_4lessIiEENS1_INS5_IKiS7_EEEEEEEEPvEEEEEC2B8ue170006ERSH_, symObjAddr: 0x8EC4, symBinAddr: 0x100025E18, symSize: 0x28 }
  - { offsetInCU: 0xF6D6, offset: 0x96175, size: 0x8, addend: 0x0, symName: __ZNSt3__110unique_ptrINS_11__tree_nodeINS_12__value_typeIiNS_3mapIiNS_4pairIi10TEXT_COLOREENS_4lessIiEENS_9allocatorINS4_IKiS6_EEEEEEEEPvEENS_21__map_node_destructorINS9_ISG_EEEEEC2B8ue170006ILb1EvEEPSG_NS_16__dependent_typeINS_27__unique_ptr_deleter_sfinaeISJ_EEXT_EE20__good_rval_ref_typeE, symObjAddr: 0x8EEC, symBinAddr: 0x100025E40, symSize: 0x5C }
  - { offsetInCU: 0xF727, offset: 0x961C6, size: 0x8, addend: 0x0, symName: __ZNSt3__117__compressed_pairIPNS_11__tree_nodeINS_12__value_typeIiNS_3mapIiNS_4pairIi10TEXT_COLOREENS_4lessIiEENS_9allocatorINS4_IKiS6_EEEEEEEEPvEENS_21__map_node_destructorINS9_ISG_EEEEEC1B8ue170006IRSH_SK_EEOT_OT0_, symObjAddr: 0x8F48, symBinAddr: 0x100025E9C, symSize: 0x3C }
  - { offsetInCU: 0xF77F, offset: 0x9621E, size: 0x8, addend: 0x0, symName: __ZNSt3__117__compressed_pairIPNS_11__tree_nodeINS_12__value_typeIiNS_3mapIiNS_4pairIi10TEXT_COLOREENS_4lessIiEENS_9allocatorINS4_IKiS6_EEEEEEEEPvEENS_21__map_node_destructorINS9_ISG_EEEEEC2B8ue170006IRSH_SK_EEOT_OT0_, symObjAddr: 0x8F84, symBinAddr: 0x100025ED8, symSize: 0x48 }
  - { offsetInCU: 0xF7D7, offset: 0x96276, size: 0x8, addend: 0x0, symName: __ZNSt3__122__compressed_pair_elemIPNS_11__tree_nodeINS_12__value_typeIiNS_3mapIiNS_4pairIi10TEXT_COLOREENS_4lessIiEENS_9allocatorINS4_IKiS6_EEEEEEEEPvEELi0ELb0EEC2B8ue170006IRSH_vEEOT_, symObjAddr: 0x8FCC, symBinAddr: 0x100025F20, symSize: 0x24 }
  - { offsetInCU: 0xF819, offset: 0x962B8, size: 0x8, addend: 0x0, symName: __ZNSt3__122__compressed_pair_elemINS_21__map_node_destructorINS_9allocatorINS_11__tree_nodeINS_12__value_typeIiNS_3mapIiNS_4pairIi10TEXT_COLOREENS_4lessIiEENS2_INS6_IKiS8_EEEEEEEEPvEEEEEELi1ELb0EEC2B8ue170006ISJ_vEEOT_, symObjAddr: 0x8FF0, symBinAddr: 0x100025F44, symSize: 0x24 }
  - { offsetInCU: 0xF85B, offset: 0x962FA, size: 0x8, addend: 0x0, symName: __ZNSt3__19allocatorINS_11__tree_nodeINS_12__value_typeIiNS_3mapIiNS_4pairIi10TEXT_COLOREENS_4lessIiEENS0_INS4_IKiS6_EEEEEEEEPvEEE9constructB8ue170006IS9_JRS9_EEEvPT_DpOT0_, symObjAddr: 0x9014, symBinAddr: 0x100025F68, symSize: 0x28 }
  - { offsetInCU: 0xF8B1, offset: 0x96350, size: 0x8, addend: 0x0, symName: __ZNKSt3__117__compressed_pairIPNS_11__tree_nodeINS_12__value_typeIiNS_3mapIiNS_4pairIi10TEXT_COLOREENS_4lessIiEENS_9allocatorINS4_IKiS6_EEEEEEEEPvEENS_21__map_node_destructorINS9_ISG_EEEEE5firstB8ue170006Ev, symObjAddr: 0x903C, symBinAddr: 0x100025F90, symSize: 0x24 }
  - { offsetInCU: 0xF8D7, offset: 0x96376, size: 0x8, addend: 0x0, symName: __ZNKSt3__122__compressed_pair_elemIPNS_11__tree_nodeINS_12__value_typeIiNS_3mapIiNS_4pairIi10TEXT_COLOREENS_4lessIiEENS_9allocatorINS4_IKiS6_EEEEEEEEPvEELi0ELb0EE5__getB8ue170006Ev, symObjAddr: 0x9060, symBinAddr: 0x100025FB4, symSize: 0x14 }
  - { offsetInCU: 0xF8FD, offset: 0x9639C, size: 0x8, addend: 0x0, symName: __ZNSt3__117__compressed_pairIPNS_11__tree_nodeINS_12__value_typeIiNS_3mapIiNS_4pairIi10TEXT_COLOREENS_4lessIiEENS_9allocatorINS4_IKiS6_EEEEEEEEPvEENS_21__map_node_destructorINS9_ISG_EEEEE6secondB8ue170006Ev, symObjAddr: 0x9074, symBinAddr: 0x100025FC8, symSize: 0x28 }
  - { offsetInCU: 0xF923, offset: 0x963C2, size: 0x8, addend: 0x0, symName: __ZNSt3__122__compressed_pair_elemINS_21__map_node_destructorINS_9allocatorINS_11__tree_nodeINS_12__value_typeIiNS_3mapIiNS_4pairIi10TEXT_COLOREENS_4lessIiEENS2_INS6_IKiS8_EEEEEEEEPvEEEEEELi1ELb0EE5__getB8ue170006Ev, symObjAddr: 0x909C, symBinAddr: 0x100025FF0, symSize: 0x14 }
  - { offsetInCU: 0xF949, offset: 0x963E8, size: 0x8, addend: 0x0, symName: __ZNSt3__19allocatorINS_11__tree_nodeINS_12__value_typeIiNS_3mapIiNS_4pairIi10TEXT_COLOREENS_4lessIiEENS0_INS4_IKiS6_EEEEEEEEPvEEE9constructB8ue170006ISC_JEEEvPT_DpOT0_, symObjAddr: 0x90B0, symBinAddr: 0x100026004, symSize: 0x28 }
  - { offsetInCU: 0xF98B, offset: 0x9642A, size: 0x8, addend: 0x0, symName: __ZNSt3__13mapIiNS_4pairIi10TEXT_COLOREENS_4lessIiEENS_9allocatorINS1_IKiS3_EEEEEC1B8ue170006Ev, symObjAddr: 0x90D8, symBinAddr: 0x10002602C, symSize: 0x2C }
  - { offsetInCU: 0xF9B5, offset: 0x96454, size: 0x8, addend: 0x0, symName: __ZNSt3__13mapIiNS_4pairIi10TEXT_COLOREENS_4lessIiEENS_9allocatorINS1_IKiS3_EEEEEC2B8ue170006Ev, symObjAddr: 0x9104, symBinAddr: 0x100026058, symSize: 0x40 }
  - { offsetInCU: 0xF9DF, offset: 0x9647E, size: 0x8, addend: 0x0, symName: __ZNSt3__119__map_value_compareIiNS_12__value_typeIiNS_4pairIi10TEXT_COLOREEEENS_4lessIiEELb1EEC1B8ue170006ES7_, symObjAddr: 0x9144, symBinAddr: 0x100026098, symSize: 0x2C }
  - { offsetInCU: 0xFA18, offset: 0x964B7, size: 0x8, addend: 0x0, symName: __ZNSt3__16__treeINS_12__value_typeIiNS_4pairIi10TEXT_COLOREEEENS_19__map_value_compareIiS5_NS_4lessIiEELb1EEENS_9allocatorIS5_EEEC1ERKS9_, symObjAddr: 0x9170, symBinAddr: 0x1000260C4, symSize: 0x34 }
  - { offsetInCU: 0xFA53, offset: 0x964F2, size: 0x8, addend: 0x0, symName: __ZNSt3__119__map_value_compareIiNS_12__value_typeIiNS_4pairIi10TEXT_COLOREEEENS_4lessIiEELb1EEC2B8ue170006ES7_, symObjAddr: 0x91A4, symBinAddr: 0x1000260F8, symSize: 0x14 }
  - { offsetInCU: 0xFA8C, offset: 0x9652B, size: 0x8, addend: 0x0, symName: __ZNSt3__16__treeINS_12__value_typeIiNS_4pairIi10TEXT_COLOREEEENS_19__map_value_compareIiS5_NS_4lessIiEELb1EEENS_9allocatorIS5_EEEC2ERKS9_, symObjAddr: 0x91B8, symBinAddr: 0x10002610C, symSize: 0x70 }
  - { offsetInCU: 0xFAC7, offset: 0x96566, size: 0x8, addend: 0x0, symName: __ZNSt3__117__compressed_pairINS_15__tree_end_nodeIPNS_16__tree_node_baseIPvEEEENS_9allocatorINS_11__tree_nodeINS_12__value_typeIiNS_4pairIi10TEXT_COLOREEEES3_EEEEEC1B8ue170006ILb1EvEEv, symObjAddr: 0x9228, symBinAddr: 0x10002617C, symSize: 0x2C }
  - { offsetInCU: 0xFAFC, offset: 0x9659B, size: 0x8, addend: 0x0, symName: __ZNSt3__117__compressed_pairImNS_19__map_value_compareIiNS_12__value_typeIiNS_4pairIi10TEXT_COLOREEEENS_4lessIiEELb1EEEEC1B8ue170006IiRKS9_EEOT_OT0_, symObjAddr: 0x9254, symBinAddr: 0x1000261A8, symSize: 0x3C }
  - { offsetInCU: 0xFB54, offset: 0x965F3, size: 0x8, addend: 0x0, symName: __ZNSt3__16__treeINS_12__value_typeIiNS_4pairIi10TEXT_COLOREEEENS_19__map_value_compareIiS5_NS_4lessIiEELb1EEENS_9allocatorIS5_EEE10__end_nodeB8ue170006Ev, symObjAddr: 0x9290, symBinAddr: 0x1000261E4, symSize: 0x2C }
  - { offsetInCU: 0xFB7A, offset: 0x96619, size: 0x8, addend: 0x0, symName: __ZNSt3__16__treeINS_12__value_typeIiNS_4pairIi10TEXT_COLOREEEENS_19__map_value_compareIiS5_NS_4lessIiEELb1EEENS_9allocatorIS5_EEE12__begin_nodeB8ue170006Ev, symObjAddr: 0x92BC, symBinAddr: 0x100026210, symSize: 0x14 }
  - { offsetInCU: 0xFBA0, offset: 0x9663F, size: 0x8, addend: 0x0, symName: __ZNSt3__117__compressed_pairINS_15__tree_end_nodeIPNS_16__tree_node_baseIPvEEEENS_9allocatorINS_11__tree_nodeINS_12__value_typeIiNS_4pairIi10TEXT_COLOREEEES3_EEEEEC2B8ue170006ILb1EvEEv, symObjAddr: 0x92D0, symBinAddr: 0x100026224, symSize: 0x34 }
  - { offsetInCU: 0xFBD5, offset: 0x96674, size: 0x8, addend: 0x0, symName: __ZNSt3__122__compressed_pair_elemINS_9allocatorINS_11__tree_nodeINS_12__value_typeIiNS_4pairIi10TEXT_COLOREEEEPvEEEELi1ELb1EEC2B8ue170006ENS_16__value_init_tagE, symObjAddr: 0x9304, symBinAddr: 0x100026258, symSize: 0x2C }
  - { offsetInCU: 0xFC0A, offset: 0x966A9, size: 0x8, addend: 0x0, symName: __ZNSt3__19allocatorINS_11__tree_nodeINS_12__value_typeIiNS_4pairIi10TEXT_COLOREEEEPvEEEC2B8ue170006Ev, symObjAddr: 0x9330, symBinAddr: 0x100026284, symSize: 0x2C }
  - { offsetInCU: 0xFC34, offset: 0x966D3, size: 0x8, addend: 0x0, symName: __ZNSt3__116__non_trivial_ifILb1ENS_9allocatorINS_11__tree_nodeINS_12__value_typeIiNS_4pairIi10TEXT_COLOREEEEPvEEEEEC2B8ue170006Ev, symObjAddr: 0x935C, symBinAddr: 0x1000262B0, symSize: 0x14 }
  - { offsetInCU: 0xFC5E, offset: 0x966FD, size: 0x8, addend: 0x0, symName: __ZNSt3__117__compressed_pairImNS_19__map_value_compareIiNS_12__value_typeIiNS_4pairIi10TEXT_COLOREEEENS_4lessIiEELb1EEEEC2B8ue170006IiRKS9_EEOT_OT0_, symObjAddr: 0x9370, symBinAddr: 0x1000262C4, symSize: 0x44 }
  - { offsetInCU: 0xFCB6, offset: 0x96755, size: 0x8, addend: 0x0, symName: __ZNSt3__122__compressed_pair_elemINS_19__map_value_compareIiNS_12__value_typeIiNS_4pairIi10TEXT_COLOREEEENS_4lessIiEELb1EEELi1ELb1EEC2B8ue170006IRKS9_vEEOT_, symObjAddr: 0x93B4, symBinAddr: 0x100026308, symSize: 0x18 }
  - { offsetInCU: 0xFCF8, offset: 0x96797, size: 0x8, addend: 0x0, symName: __ZNSt3__117__compressed_pairINS_15__tree_end_nodeIPNS_16__tree_node_baseIPvEEEENS_9allocatorINS_11__tree_nodeINS_12__value_typeIiNS_4pairIi10TEXT_COLOREEEES3_EEEEE5firstB8ue170006Ev, symObjAddr: 0x93CC, symBinAddr: 0x100026320, symSize: 0x24 }
  - { offsetInCU: 0xFD1E, offset: 0x967BD, size: 0x8, addend: 0x0, symName: __ZNSt3__117__compressed_pairIPNS_11__tree_nodeINS_12__value_typeIiNS_3mapIiNS_4pairIi10TEXT_COLOREENS_4lessIiEENS_9allocatorINS4_IKiS6_EEEEEEEEPvEENS_21__map_node_destructorINS9_ISG_EEEEE5firstB8ue170006Ev, symObjAddr: 0x9998, symBinAddr: 0x100026344, symSize: 0x24 }
  - { offsetInCU: 0xFD44, offset: 0x967E3, size: 0x8, addend: 0x0, symName: __ZNSt3__122__compressed_pair_elemIPNS_11__tree_nodeINS_12__value_typeIiNS_3mapIiNS_4pairIi10TEXT_COLOREENS_4lessIiEENS_9allocatorINS4_IKiS6_EEEEEEEEPvEELi0ELb0EE5__getB8ue170006Ev, symObjAddr: 0x99BC, symBinAddr: 0x100026368, symSize: 0x14 }
  - { offsetInCU: 0xFD6A, offset: 0x96809, size: 0x8, addend: 0x0, symName: __ZNSt3__110unique_ptrINS_11__tree_nodeINS_12__value_typeIiNS_3mapIiNS_4pairIi10TEXT_COLOREENS_4lessIiEENS_9allocatorINS4_IKiS6_EEEEEEEEPvEENS_21__map_node_destructorINS9_ISG_EEEEED2B8ue170006Ev, symObjAddr: 0x99D0, symBinAddr: 0x10002637C, symSize: 0x30 }
  - { offsetInCU: 0xFD94, offset: 0x96833, size: 0x8, addend: 0x0, symName: __ZNSt3__110unique_ptrINS_11__tree_nodeINS_12__value_typeIiNS_3mapIiNS_4pairIi10TEXT_COLOREENS_4lessIiEENS_9allocatorINS4_IKiS6_EEEEEEEEPvEENS_21__map_node_destructorINS9_ISG_EEEEE5resetB8ue170006EPSG_, symObjAddr: 0x9A00, symBinAddr: 0x1000263AC, symSize: 0x78 }
  - { offsetInCU: 0xFDD8, offset: 0x96877, size: 0x8, addend: 0x0, symName: __ZNSt3__121__map_node_destructorINS_9allocatorINS_11__tree_nodeINS_12__value_typeIiNS_3mapIiNS_4pairIi10TEXT_COLOREENS_4lessIiEENS1_INS5_IKiS7_EEEEEEEEPvEEEEEclB8ue170006EPSG_, symObjAddr: 0x9A78, symBinAddr: 0x100026424, symSize: 0xE4 }
  - { offsetInCU: 0xFE0D, offset: 0x968AC, size: 0x8, addend: 0x0, symName: __ZNSt3__116allocator_traitsINS_9allocatorINS_11__tree_nodeINS_12__value_typeIiNS_3mapIiNS_4pairIi10TEXT_COLOREENS_4lessIiEENS1_INS5_IKiS7_EEEEEEEEPvEEEEE7destroyB8ue170006ISD_vvEEvRSH_PT_, symObjAddr: 0x9B5C, symBinAddr: 0x100026508, symSize: 0x28 }
  - { offsetInCU: 0xFE47, offset: 0x968E6, size: 0x8, addend: 0x0, symName: __ZNSt3__116allocator_traitsINS_9allocatorINS_11__tree_nodeINS_12__value_typeIiNS_3mapIiNS_4pairIi10TEXT_COLOREENS_4lessIiEENS1_INS5_IKiS7_EEEEEEEEPvEEEEE7destroyB8ue170006ISA_vvEEvRSH_PT_, symObjAddr: 0x9B84, symBinAddr: 0x100026530, symSize: 0x14 }
  - { offsetInCU: 0xFE81, offset: 0x96920, size: 0x8, addend: 0x0, symName: __ZNSt3__16__treeINS_12__value_typeIiNS_4pairIi10TEXT_COLOREEEENS_19__map_value_compareIiS5_NS_4lessIiEELb1EEENS_9allocatorIS5_EEE4findIiEENS_15__tree_iteratorIS5_PNS_11__tree_nodeIS5_PvEElEERKT_, symObjAddr: 0x9B98, symBinAddr: 0x100026544, symSize: 0xF8 }
  - { offsetInCU: 0xFECF, offset: 0x9696E, size: 0x8, addend: 0x0, symName: __ZNSt3__114__map_iteratorINS_15__tree_iteratorINS_12__value_typeIiNS_4pairIi10TEXT_COLOREEEEPNS_11__tree_nodeIS6_PvEElEEEC1B8ue170006ESB_, symObjAddr: 0x9C90, symBinAddr: 0x10002663C, symSize: 0x34 }
  - { offsetInCU: 0xFF08, offset: 0x969A7, size: 0x8, addend: 0x0, symName: __ZNSt3__16__treeINS_12__value_typeIiNS_4pairIi10TEXT_COLOREEEENS_19__map_value_compareIiS5_NS_4lessIiEELb1EEENS_9allocatorIS5_EEE13__lower_boundIiEENS_15__tree_iteratorIS5_PNS_11__tree_nodeIS5_PvEElEERKT_SI_PNS_15__tree_end_nodeIPNS_16__tree_node_baseISG_EEEE, symObjAddr: 0x9CC4, symBinAddr: 0x100026670, symSize: 0xA4 }
  - { offsetInCU: 0xFF65, offset: 0x96A04, size: 0x8, addend: 0x0, symName: __ZNSt3__16__treeINS_12__value_typeIiNS_4pairIi10TEXT_COLOREEEENS_19__map_value_compareIiS5_NS_4lessIiEELb1EEENS_9allocatorIS5_EEE3endB8ue170006Ev, symObjAddr: 0x9D9C, symBinAddr: 0x100026748, symSize: 0x34 }
  - { offsetInCU: 0xFF8B, offset: 0x96A2A, size: 0x8, addend: 0x0, symName: __ZNSt3__16__treeINS_12__value_typeIiNS_4pairIi10TEXT_COLOREEEENS_19__map_value_compareIiS5_NS_4lessIiEELb1EEENS_9allocatorIS5_EEE10value_compB8ue170006Ev, symObjAddr: 0x9DD0, symBinAddr: 0x10002677C, symSize: 0x28 }
  - { offsetInCU: 0xFFB1, offset: 0x96A50, size: 0x8, addend: 0x0, symName: __ZNKSt3__119__map_value_compareIiNS_12__value_typeIiNS_4pairIi10TEXT_COLOREEEENS_4lessIiEELb1EEclB8ue170006ERKiRKS5_, symObjAddr: 0x9DF8, symBinAddr: 0x1000267A4, symSize: 0x50 }
  - { offsetInCU: 0xFFF5, offset: 0x96A94, size: 0x8, addend: 0x0, symName: __ZNKSt3__115__tree_iteratorINS_12__value_typeIiNS_4pairIi10TEXT_COLOREEEEPNS_11__tree_nodeIS5_PvEElEdeB8ue170006Ev, symObjAddr: 0x9E48, symBinAddr: 0x1000267F4, symSize: 0x28 }
  - { offsetInCU: 0x1001B, offset: 0x96ABA, size: 0x8, addend: 0x0, symName: __ZNKSt3__119__map_value_compareIiNS_12__value_typeIiNS_4pairIi10TEXT_COLOREEEENS_4lessIiEELb1EEclB8ue170006ERKS5_RKi, symObjAddr: 0x9E70, symBinAddr: 0x10002681C, symSize: 0x48 }
  - { offsetInCU: 0x1005F, offset: 0x96AFE, size: 0x8, addend: 0x0, symName: __ZNSt3__115__tree_iteratorINS_12__value_typeIiNS_4pairIi10TEXT_COLOREEEEPNS_11__tree_nodeIS5_PvEElEC1B8ue170006EPNS_15__tree_end_nodeIPNS_16__tree_node_baseIS7_EEEE, symObjAddr: 0x9EB8, symBinAddr: 0x100026864, symSize: 0x34 }
  - { offsetInCU: 0x10098, offset: 0x96B37, size: 0x8, addend: 0x0, symName: __ZNKSt3__112__value_typeIiNS_4pairIi10TEXT_COLOREEE11__get_valueB8ue170006Ev, symObjAddr: 0x9EEC, symBinAddr: 0x100026898, symSize: 0x14 }
  - { offsetInCU: 0x100BE, offset: 0x96B5D, size: 0x8, addend: 0x0, symName: __ZNSt3__115__tree_iteratorINS_12__value_typeIiNS_4pairIi10TEXT_COLOREEEEPNS_11__tree_nodeIS5_PvEElEC2B8ue170006EPNS_15__tree_end_nodeIPNS_16__tree_node_baseIS7_EEEE, symObjAddr: 0x9F00, symBinAddr: 0x1000268AC, symSize: 0x20 }
  - { offsetInCU: 0x100F7, offset: 0x96B96, size: 0x8, addend: 0x0, symName: __ZNSt3__117__compressed_pairImNS_19__map_value_compareIiNS_12__value_typeIiNS_4pairIi10TEXT_COLOREEEENS_4lessIiEELb1EEEE6secondB8ue170006Ev, symObjAddr: 0x9F50, symBinAddr: 0x1000268FC, symSize: 0x24 }
  - { offsetInCU: 0x1011D, offset: 0x96BBC, size: 0x8, addend: 0x0, symName: __ZNSt3__122__compressed_pair_elemINS_19__map_value_compareIiNS_12__value_typeIiNS_4pairIi10TEXT_COLOREEEENS_4lessIiEELb1EEELi1ELb1EE5__getB8ue170006Ev, symObjAddr: 0x9F74, symBinAddr: 0x100026920, symSize: 0x14 }
  - { offsetInCU: 0x10143, offset: 0x96BE2, size: 0x8, addend: 0x0, symName: __ZNKSt3__115__tree_iteratorINS_12__value_typeIiNS_4pairIi10TEXT_COLOREEEEPNS_11__tree_nodeIS5_PvEElE8__get_npB8ue170006Ev, symObjAddr: 0x9F88, symBinAddr: 0x100026934, symSize: 0x18 }
  - { offsetInCU: 0x10169, offset: 0x96C08, size: 0x8, addend: 0x0, symName: __ZNSt3__114__map_iteratorINS_15__tree_iteratorINS_12__value_typeIiNS_4pairIi10TEXT_COLOREEEEPNS_11__tree_nodeIS6_PvEElEEEC2B8ue170006ESB_, symObjAddr: 0x9FA0, symBinAddr: 0x10002694C, symSize: 0x20 }
  - { offsetInCU: 0x101A2, offset: 0x96C41, size: 0x8, addend: 0x0, symName: __ZNSt3__114pointer_traitsIPNS_4pairIKiNS1_Ii10TEXT_COLOREEEEE10pointer_toB8ue170006ERS5_, symObjAddr: 0x9FC0, symBinAddr: 0x10002696C, symSize: 0x14 }
  - { offsetInCU: 0x101C5, offset: 0x96C64, size: 0x8, addend: 0x0, symName: __ZNKSt3__115__tree_iteratorINS_12__value_typeIiNS_4pairIi10TEXT_COLOREEEEPNS_11__tree_nodeIS5_PvEElEptB8ue170006Ev, symObjAddr: 0x9FD4, symBinAddr: 0x100026980, symSize: 0x2C }
  - { offsetInCU: 0x101EB, offset: 0x96C8A, size: 0x8, addend: 0x0, symName: __ZNSt3__114pointer_traitsIPNS_12__value_typeIiNS_4pairIi10TEXT_COLOREEEEE10pointer_toB8ue170006ERS5_, symObjAddr: 0xA000, symBinAddr: 0x1000269AC, symSize: 0x14 }
  - { offsetInCU: 0x1020E, offset: 0x96CAD, size: 0x8, addend: 0x0, symName: __ZNSt3__14pairIi10TEXT_COLOREC2B8ue170006ERKiRKS1_, symObjAddr: 0xA040, symBinAddr: 0x1000269C0, symSize: 0x34 }
  - { offsetInCU: 0x10254, offset: 0x96CF3, size: 0x8, addend: 0x0, symName: __ZNSt3__16__treeINS_12__value_typeIiNS_4pairIi10TEXT_COLOREEEENS_19__map_value_compareIiS5_NS_4lessIiEELb1EEENS_9allocatorIS5_EEE12__find_equalIiEERPNS_16__tree_node_baseIPvEERPNS_15__tree_end_nodeISH_EERKT_, symObjAddr: 0xA074, symBinAddr: 0x1000269F4, symSize: 0x184 }
  - { offsetInCU: 0x102C0, offset: 0x96D5F, size: 0x8, addend: 0x0, symName: __ZNSt3__13mapIiNS_4pairIi10TEXT_COLOREENS_4lessIiEENS_9allocatorINS1_IKiS3_EEEEE25__construct_node_with_keyERS7_, symObjAddr: 0xA1F8, symBinAddr: 0x100026B78, symSize: 0x144 }
  - { offsetInCU: 0x10315, offset: 0x96DB4, size: 0x8, addend: 0x0, symName: __ZNSt3__16__treeINS_12__value_typeIiNS_4pairIi10TEXT_COLOREEEENS_19__map_value_compareIiS5_NS_4lessIiEELb1EEENS_9allocatorIS5_EEE16__insert_node_atEPNS_15__tree_end_nodeIPNS_16__tree_node_baseIPvEEEERSH_SH_, symObjAddr: 0xA33C, symBinAddr: 0x100026CBC, symSize: 0xCC }
  - { offsetInCU: 0x10369, offset: 0x96E08, size: 0x8, addend: 0x0, symName: __ZNKSt3__110unique_ptrINS_11__tree_nodeINS_12__value_typeIiNS_4pairIi10TEXT_COLOREEEEPvEENS_21__map_node_destructorINS_9allocatorIS8_EEEEE3getB8ue170006Ev, symObjAddr: 0xA408, symBinAddr: 0x100026D88, symSize: 0x28 }
  - { offsetInCU: 0x1038F, offset: 0x96E2E, size: 0x8, addend: 0x0, symName: __ZNSt3__110unique_ptrINS_11__tree_nodeINS_12__value_typeIiNS_4pairIi10TEXT_COLOREEEEPvEENS_21__map_node_destructorINS_9allocatorIS8_EEEEE7releaseB8ue170006Ev, symObjAddr: 0xA430, symBinAddr: 0x100026DB0, symSize: 0x44 }
  - { offsetInCU: 0x103C4, offset: 0x96E63, size: 0x8, addend: 0x0, symName: __ZNSt3__110unique_ptrINS_11__tree_nodeINS_12__value_typeIiNS_4pairIi10TEXT_COLOREEEEPvEENS_21__map_node_destructorINS_9allocatorIS8_EEEEED1B8ue170006Ev, symObjAddr: 0xA474, symBinAddr: 0x100026DF4, symSize: 0x2C }
  - { offsetInCU: 0x103EE, offset: 0x96E8D, size: 0x8, addend: 0x0, symName: __ZNKSt3__16__treeINS_12__value_typeIiNS_4pairIi10TEXT_COLOREEEENS_19__map_value_compareIiS5_NS_4lessIiEELb1EEENS_9allocatorIS5_EEE10__root_ptrB8ue170006Ev, symObjAddr: 0xA4A0, symBinAddr: 0x100026E20, symSize: 0x24 }
  - { offsetInCU: 0x10414, offset: 0x96EB3, size: 0x8, addend: 0x0, symName: __ZNSt3__116allocator_traitsINS_9allocatorINS_11__tree_nodeINS_12__value_typeIiNS_4pairIi10TEXT_COLOREEEEPvEEEEE8allocateB8ue170006ERSA_m, symObjAddr: 0xA4C4, symBinAddr: 0x100026E44, symSize: 0x2C }
  - { offsetInCU: 0x10447, offset: 0x96EE6, size: 0x8, addend: 0x0, symName: __ZNSt3__121__map_node_destructorINS_9allocatorINS_11__tree_nodeINS_12__value_typeIiNS_4pairIi10TEXT_COLOREEEEPvEEEEEC1B8ue170006ERSA_, symObjAddr: 0xA4F0, symBinAddr: 0x100026E70, symSize: 0x34 }
  - { offsetInCU: 0x10485, offset: 0x96F24, size: 0x8, addend: 0x0, symName: __ZNSt3__110unique_ptrINS_11__tree_nodeINS_12__value_typeIiNS_4pairIi10TEXT_COLOREEEEPvEENS_21__map_node_destructorINS_9allocatorIS8_EEEEEC1B8ue170006ILb1EvEEPS8_NS_16__dependent_typeINS_27__unique_ptr_deleter_sfinaeISC_EEXT_EE20__good_rval_ref_typeE, symObjAddr: 0xA524, symBinAddr: 0x100026EA4, symSize: 0x3C }
  - { offsetInCU: 0x104D6, offset: 0x96F75, size: 0x8, addend: 0x0, symName: __ZNSt3__116allocator_traitsINS_9allocatorINS_11__tree_nodeINS_12__value_typeIiNS_4pairIi10TEXT_COLOREEEEPvEEEEE9constructB8ue170006IKiJRSD_EvEEvRSA_PT_DpOT0_, symObjAddr: 0xA560, symBinAddr: 0x100026EE0, symSize: 0x34 }
  - { offsetInCU: 0x1052D, offset: 0x96FCC, size: 0x8, addend: 0x0, symName: __ZNKSt3__110unique_ptrINS_11__tree_nodeINS_12__value_typeIiNS_4pairIi10TEXT_COLOREEEEPvEENS_21__map_node_destructorINS_9allocatorIS8_EEEEEptB8ue170006Ev, symObjAddr: 0xA594, symBinAddr: 0x100026F14, symSize: 0x28 }
  - { offsetInCU: 0x10553, offset: 0x96FF2, size: 0x8, addend: 0x0, symName: __ZNSt3__110unique_ptrINS_11__tree_nodeINS_12__value_typeIiNS_4pairIi10TEXT_COLOREEEEPvEENS_21__map_node_destructorINS_9allocatorIS8_EEEEE11get_deleterB8ue170006Ev, symObjAddr: 0xA5BC, symBinAddr: 0x100026F3C, symSize: 0x24 }
  - { offsetInCU: 0x1057E, offset: 0x9701D, size: 0x8, addend: 0x0, symName: __ZNSt3__116allocator_traitsINS_9allocatorINS_11__tree_nodeINS_12__value_typeIiNS_4pairIi10TEXT_COLOREEEEPvEEEEE9constructB8ue170006IS6_JEvEEvRSA_PT_DpOT0_, symObjAddr: 0xA5E0, symBinAddr: 0x100026F60, symSize: 0x2C }
  - { offsetInCU: 0x105C0, offset: 0x9705F, size: 0x8, addend: 0x0, symName: __ZNSt3__19allocatorINS_11__tree_nodeINS_12__value_typeIiNS_4pairIi10TEXT_COLOREEEEPvEEE8allocateB8ue170006Em, symObjAddr: 0xA60C, symBinAddr: 0x100026F8C, symSize: 0x8C }
  - { offsetInCU: 0x105FE, offset: 0x9709D, size: 0x8, addend: 0x0, symName: __ZNSt3__116allocator_traitsINS_9allocatorINS_11__tree_nodeINS_12__value_typeIiNS_4pairIi10TEXT_COLOREEEEPvEEEEE8max_sizeB8ue170006ISA_vEEmRKSA_, symObjAddr: 0xA698, symBinAddr: 0x100027018, symSize: 0x24 }
  - { offsetInCU: 0x1062C, offset: 0x970CB, size: 0x8, addend: 0x0, symName: __ZNKSt3__19allocatorINS_11__tree_nodeINS_12__value_typeIiNS_4pairIi10TEXT_COLOREEEEPvEEE8max_sizeB8ue170006Ev, symObjAddr: 0xA6BC, symBinAddr: 0x10002703C, symSize: 0x18 }
  - { offsetInCU: 0x10652, offset: 0x970F1, size: 0x8, addend: 0x0, symName: __ZNSt3__121__map_node_destructorINS_9allocatorINS_11__tree_nodeINS_12__value_typeIiNS_4pairIi10TEXT_COLOREEEEPvEEEEEC2B8ue170006ERSA_, symObjAddr: 0xA6D4, symBinAddr: 0x100027054, symSize: 0x28 }
  - { offsetInCU: 0x1068B, offset: 0x9712A, size: 0x8, addend: 0x0, symName: __ZNSt3__110unique_ptrINS_11__tree_nodeINS_12__value_typeIiNS_4pairIi10TEXT_COLOREEEEPvEENS_21__map_node_destructorINS_9allocatorIS8_EEEEEC2B8ue170006ILb1EvEEPS8_NS_16__dependent_typeINS_27__unique_ptr_deleter_sfinaeISC_EEXT_EE20__good_rval_ref_typeE, symObjAddr: 0xA6FC, symBinAddr: 0x10002707C, symSize: 0x5C }
  - { offsetInCU: 0x106DC, offset: 0x9717B, size: 0x8, addend: 0x0, symName: __ZNSt3__117__compressed_pairIPNS_11__tree_nodeINS_12__value_typeIiNS_4pairIi10TEXT_COLOREEEEPvEENS_21__map_node_destructorINS_9allocatorIS8_EEEEEC1B8ue170006IRS9_SD_EEOT_OT0_, symObjAddr: 0xA758, symBinAddr: 0x1000270D8, symSize: 0x3C }
  - { offsetInCU: 0x10734, offset: 0x971D3, size: 0x8, addend: 0x0, symName: __ZNSt3__117__compressed_pairIPNS_11__tree_nodeINS_12__value_typeIiNS_4pairIi10TEXT_COLOREEEEPvEENS_21__map_node_destructorINS_9allocatorIS8_EEEEEC2B8ue170006IRS9_SD_EEOT_OT0_, symObjAddr: 0xA794, symBinAddr: 0x100027114, symSize: 0x48 }
  - { offsetInCU: 0x1078C, offset: 0x9722B, size: 0x8, addend: 0x0, symName: __ZNSt3__122__compressed_pair_elemIPNS_11__tree_nodeINS_12__value_typeIiNS_4pairIi10TEXT_COLOREEEEPvEELi0ELb0EEC2B8ue170006IRS9_vEEOT_, symObjAddr: 0xA7DC, symBinAddr: 0x10002715C, symSize: 0x24 }
  - { offsetInCU: 0x107CE, offset: 0x9726D, size: 0x8, addend: 0x0, symName: __ZNSt3__122__compressed_pair_elemINS_21__map_node_destructorINS_9allocatorINS_11__tree_nodeINS_12__value_typeIiNS_4pairIi10TEXT_COLOREEEEPvEEEEEELi1ELb0EEC2B8ue170006ISC_vEEOT_, symObjAddr: 0xA800, symBinAddr: 0x100027180, symSize: 0x24 }
  - { offsetInCU: 0x10810, offset: 0x972AF, size: 0x8, addend: 0x0, symName: __ZNSt3__19allocatorINS_11__tree_nodeINS_12__value_typeIiNS_4pairIi10TEXT_COLOREEEEPvEEE9constructB8ue170006IKiJRSB_EEEvPT_DpOT0_, symObjAddr: 0xA824, symBinAddr: 0x1000271A4, symSize: 0x28 }
  - { offsetInCU: 0x10866, offset: 0x97305, size: 0x8, addend: 0x0, symName: __ZNKSt3__117__compressed_pairIPNS_11__tree_nodeINS_12__value_typeIiNS_4pairIi10TEXT_COLOREEEEPvEENS_21__map_node_destructorINS_9allocatorIS8_EEEEE5firstB8ue170006Ev, symObjAddr: 0xA84C, symBinAddr: 0x1000271CC, symSize: 0x24 }
  - { offsetInCU: 0x1088C, offset: 0x9732B, size: 0x8, addend: 0x0, symName: __ZNKSt3__122__compressed_pair_elemIPNS_11__tree_nodeINS_12__value_typeIiNS_4pairIi10TEXT_COLOREEEEPvEELi0ELb0EE5__getB8ue170006Ev, symObjAddr: 0xA870, symBinAddr: 0x1000271F0, symSize: 0x14 }
  - { offsetInCU: 0x108B2, offset: 0x97351, size: 0x8, addend: 0x0, symName: __ZNSt3__117__compressed_pairIPNS_11__tree_nodeINS_12__value_typeIiNS_4pairIi10TEXT_COLOREEEEPvEENS_21__map_node_destructorINS_9allocatorIS8_EEEEE6secondB8ue170006Ev, symObjAddr: 0xA884, symBinAddr: 0x100027204, symSize: 0x28 }
  - { offsetInCU: 0x108D8, offset: 0x97377, size: 0x8, addend: 0x0, symName: __ZNSt3__122__compressed_pair_elemINS_21__map_node_destructorINS_9allocatorINS_11__tree_nodeINS_12__value_typeIiNS_4pairIi10TEXT_COLOREEEEPvEEEEEELi1ELb0EE5__getB8ue170006Ev, symObjAddr: 0xA8AC, symBinAddr: 0x10002722C, symSize: 0x14 }
  - { offsetInCU: 0x108FE, offset: 0x9739D, size: 0x8, addend: 0x0, symName: __ZNSt3__19allocatorINS_11__tree_nodeINS_12__value_typeIiNS_4pairIi10TEXT_COLOREEEEPvEEE9constructB8ue170006IS5_JEEEvPT_DpOT0_, symObjAddr: 0xA8C0, symBinAddr: 0x100027240, symSize: 0x28 }
  - { offsetInCU: 0x10940, offset: 0x973DF, size: 0x8, addend: 0x0, symName: __ZNSt3__14pairIi10TEXT_COLOREC1B8ue170006Ev, symObjAddr: 0xA8E8, symBinAddr: 0x100027268, symSize: 0x2C }
  - { offsetInCU: 0x1096A, offset: 0x97409, size: 0x8, addend: 0x0, symName: __ZNSt3__14pairIi10TEXT_COLOREC2B8ue170006Ev, symObjAddr: 0xA914, symBinAddr: 0x100027294, symSize: 0x1C }
  - { offsetInCU: 0x10994, offset: 0x97433, size: 0x8, addend: 0x0, symName: __ZNSt3__16__treeINS_12__value_typeIiNS_4pairIi10TEXT_COLOREEEENS_19__map_value_compareIiS5_NS_4lessIiEELb1EEENS_9allocatorIS5_EEE4sizeB8ue170006Ev, symObjAddr: 0xA930, symBinAddr: 0x1000272B0, symSize: 0x28 }
  - { offsetInCU: 0x109BA, offset: 0x97459, size: 0x8, addend: 0x0, symName: __ZNSt3__117__compressed_pairImNS_19__map_value_compareIiNS_12__value_typeIiNS_4pairIi10TEXT_COLOREEEENS_4lessIiEELb1EEEE5firstB8ue170006Ev, symObjAddr: 0xA958, symBinAddr: 0x1000272D8, symSize: 0x24 }
  - { offsetInCU: 0x109E0, offset: 0x9747F, size: 0x8, addend: 0x0, symName: __ZNSt3__117__compressed_pairIPNS_11__tree_nodeINS_12__value_typeIiNS_4pairIi10TEXT_COLOREEEEPvEENS_21__map_node_destructorINS_9allocatorIS8_EEEEE5firstB8ue170006Ev, symObjAddr: 0xA97C, symBinAddr: 0x1000272FC, symSize: 0x24 }
  - { offsetInCU: 0x10A06, offset: 0x974A5, size: 0x8, addend: 0x0, symName: __ZNSt3__122__compressed_pair_elemIPNS_11__tree_nodeINS_12__value_typeIiNS_4pairIi10TEXT_COLOREEEEPvEELi0ELb0EE5__getB8ue170006Ev, symObjAddr: 0xA9A0, symBinAddr: 0x100027320, symSize: 0x14 }
  - { offsetInCU: 0x10A2C, offset: 0x974CB, size: 0x8, addend: 0x0, symName: __ZNSt3__110unique_ptrINS_11__tree_nodeINS_12__value_typeIiNS_4pairIi10TEXT_COLOREEEEPvEENS_21__map_node_destructorINS_9allocatorIS8_EEEEED2B8ue170006Ev, symObjAddr: 0xA9B4, symBinAddr: 0x100027334, symSize: 0x30 }
  - { offsetInCU: 0x10A56, offset: 0x974F5, size: 0x8, addend: 0x0, symName: __ZNSt3__110unique_ptrINS_11__tree_nodeINS_12__value_typeIiNS_4pairIi10TEXT_COLOREEEEPvEENS_21__map_node_destructorINS_9allocatorIS8_EEEEE5resetB8ue170006EPS8_, symObjAddr: 0xA9E4, symBinAddr: 0x100027364, symSize: 0x78 }
  - { offsetInCU: 0x10A9A, offset: 0x97539, size: 0x8, addend: 0x0, symName: __ZNSt3__121__map_node_destructorINS_9allocatorINS_11__tree_nodeINS_12__value_typeIiNS_4pairIi10TEXT_COLOREEEEPvEEEEEclB8ue170006EPS9_, symObjAddr: 0xAA5C, symBinAddr: 0x1000273DC, symSize: 0xE4 }
  - { offsetInCU: 0x10ACF, offset: 0x9756E, size: 0x8, addend: 0x0, symName: __ZNSt3__116allocator_traitsINS_9allocatorINS_11__tree_nodeINS_12__value_typeIiNS_4pairIi10TEXT_COLOREEEEPvEEEEE7destroyB8ue170006IS6_vvEEvRSA_PT_, symObjAddr: 0xAB40, symBinAddr: 0x1000274C0, symSize: 0x14 }
  - { offsetInCU: 0x10B09, offset: 0x975A8, size: 0x8, addend: 0x0, symName: __ZNSt3__116allocator_traitsINS_9allocatorINS_11__tree_nodeINS_12__value_typeIiNS_4pairIi10TEXT_COLOREEEEPvEEEEE7destroyB8ue170006IKivvEEvRSA_PT_, symObjAddr: 0xAB54, symBinAddr: 0x1000274D4, symSize: 0x14 }
  - { offsetInCU: 0x10B43, offset: 0x975E2, size: 0x8, addend: 0x0, symName: __ZNSt3__16__treeINS_12__value_typeIiNS_4pairIi10TEXT_COLOREEEENS_19__map_value_compareIiS5_NS_4lessIiEELb1EEENS_9allocatorIS5_EEE14__erase_uniqueIiEEmRKT_, symObjAddr: 0xAB68, symBinAddr: 0x1000274E8, symSize: 0xA0 }
  - { offsetInCU: 0x10B91, offset: 0x97630, size: 0x8, addend: 0x0, symName: __ZNSt3__16__treeINS_12__value_typeIiNS_4pairIi10TEXT_COLOREEEENS_19__map_value_compareIiS5_NS_4lessIiEELb1EEENS_9allocatorIS5_EEE5eraseENS_21__tree_const_iteratorIS5_PNS_11__tree_nodeIS5_PvEElEE, symObjAddr: 0xAC08, symBinAddr: 0x100027588, symSize: 0x98 }
  - { offsetInCU: 0x10BF4, offset: 0x97693, size: 0x8, addend: 0x0, symName: __ZNSt3__121__tree_const_iteratorINS_12__value_typeIiNS_4pairIi10TEXT_COLOREEEEPNS_11__tree_nodeIS5_PvEElEC1B8ue170006ENS_15__tree_iteratorIS5_S9_lEE, symObjAddr: 0xACA0, symBinAddr: 0x100027620, symSize: 0x34 }
  - { offsetInCU: 0x10C2D, offset: 0x976CC, size: 0x8, addend: 0x0, symName: __ZNKSt3__121__tree_const_iteratorINS_12__value_typeIiNS_4pairIi10TEXT_COLOREEEEPNS_11__tree_nodeIS5_PvEElE8__get_npB8ue170006Ev, symObjAddr: 0xACD4, symBinAddr: 0x100027654, symSize: 0x18 }
  - { offsetInCU: 0x10C53, offset: 0x976F2, size: 0x8, addend: 0x0, symName: __ZNSt3__16__treeINS_12__value_typeIiNS_4pairIi10TEXT_COLOREEEENS_19__map_value_compareIiS5_NS_4lessIiEELb1EEENS_9allocatorIS5_EEE21__remove_node_pointerEPNS_11__tree_nodeIS5_PvEE, symObjAddr: 0xACEC, symBinAddr: 0x10002766C, symSize: 0xC8 }
  - { offsetInCU: 0x10C98, offset: 0x97737, size: 0x8, addend: 0x0, symName: __ZNKSt3__121__tree_const_iteratorINS_12__value_typeIiNS_4pairIi10TEXT_COLOREEEEPNS_11__tree_nodeIS5_PvEElEdeB8ue170006Ev, symObjAddr: 0xADB4, symBinAddr: 0x100027734, symSize: 0x28 }
  - { offsetInCU: 0x10CBE, offset: 0x9775D, size: 0x8, addend: 0x0, symName: __ZNSt3__115__tree_iteratorINS_12__value_typeIiNS_4pairIi10TEXT_COLOREEEEPNS_11__tree_nodeIS5_PvEElEC1B8ue170006ES9_, symObjAddr: 0xADDC, symBinAddr: 0x10002775C, symSize: 0x34 }
  - { offsetInCU: 0x10CF7, offset: 0x97796, size: 0x8, addend: 0x0, symName: __ZNSt3__115__tree_iteratorINS_12__value_typeIiNS_4pairIi10TEXT_COLOREEEEPNS_11__tree_nodeIS5_PvEElEppB8ue170006Ev, symObjAddr: 0xAE10, symBinAddr: 0x100027790, symSize: 0x38 }
  - { offsetInCU: 0x10D1D, offset: 0x977BC, size: 0x8, addend: 0x0, symName: __ZNSt3__115__tree_iteratorINS_12__value_typeIiNS_4pairIi10TEXT_COLOREEEEPNS_11__tree_nodeIS5_PvEElEC2B8ue170006ES9_, symObjAddr: 0xB528, symBinAddr: 0x1000277C8, symSize: 0x20 }
  - { offsetInCU: 0x10D56, offset: 0x977F5, size: 0x8, addend: 0x0, symName: __ZNSt3__121__tree_const_iteratorINS_12__value_typeIiNS_4pairIi10TEXT_COLOREEEEPNS_11__tree_nodeIS5_PvEElEC2B8ue170006ENS_15__tree_iteratorIS5_S9_lEE, symObjAddr: 0xB688, symBinAddr: 0x1000277E8, symSize: 0x20 }
  - { offsetInCU: 0x495E, offset: 0x9C35B, size: 0x8, addend: 0x0, symName: __ZN23ECConsoleUISearchButtonC2EiiiiRKNSt3__112basic_stringIcNS0_11char_traitsIcEENS0_9allocatorIcEEEE, symObjAddr: 0x0, symBinAddr: 0x100027808, symSize: 0xAC }
  - { offsetInCU: 0x49D0, offset: 0x9C3CD, size: 0x8, addend: 0x0, symName: __ZN23ECConsoleUISearchButtonC1EiiiiRKNSt3__112basic_stringIcNS0_11char_traitsIcEENS0_9allocatorIcEEEE, symObjAddr: 0x130, symBinAddr: 0x1000278B4, symSize: 0x54 }
  - { offsetInCU: 0x4A42, offset: 0x9C43F, size: 0x8, addend: 0x0, symName: __ZNK23ECConsoleUISearchButton12GetTextAtRowEi, symObjAddr: 0x184, symBinAddr: 0x100027908, symSize: 0x414 }
  - { offsetInCU: 0x4AEC, offset: 0x9C4E9, size: 0x8, addend: 0x0, symName: __ZNK23ECConsoleUISearchButton20GetHighlightPositionERiS0_, symObjAddr: 0x728, symBinAddr: 0x100027D1C, symSize: 0x1C }
  - { offsetInCU: 0x4B30, offset: 0x9C52D, size: 0x8, addend: 0x0, symName: __ZN23ECConsoleUISearchButton11HdlKeyEnterEv, symObjAddr: 0x744, symBinAddr: 0x100027D38, symSize: 0x10 }
  - { offsetInCU: 0x4B58, offset: 0x9C555, size: 0x8, addend: 0x0, symName: __ZN23ECConsoleUISearchButtonD1Ev, symObjAddr: 0x754, symBinAddr: 0x100027D48, symSize: 0x2C }
  - { offsetInCU: 0x4B84, offset: 0x9C581, size: 0x8, addend: 0x0, symName: __ZN23ECConsoleUISearchButtonD0Ev, symObjAddr: 0x780, symBinAddr: 0x100027D74, symSize: 0x58 }
  - { offsetInCU: 0x4BB0, offset: 0x9C5AD, size: 0x8, addend: 0x0, symName: __ZNK23ECConsoleUISearchButton14IsHandlingKeysEv, symObjAddr: 0x7D8, symBinAddr: 0x100027DCC, symSize: 0x18 }
  - { offsetInCU: 0x4BD6, offset: 0x9C5D3, size: 0x8, addend: 0x0, symName: __ZNK23ECConsoleUISearchButton6GetYULEv, symObjAddr: 0x820, symBinAddr: 0x100027DE4, symSize: 0x28 }
  - { offsetInCU: 0x4BFC, offset: 0x9C5F9, size: 0x8, addend: 0x0, symName: __ZNK23ECConsoleUISearchButton6GetYLREv, symObjAddr: 0x848, symBinAddr: 0x100027E0C, symSize: 0x28 }
  - { offsetInCU: 0x4C22, offset: 0x9C61F, size: 0x8, addend: 0x0, symName: __ZNK23ECConsoleUISearchButton9GetHeightEv, symObjAddr: 0x870, symBinAddr: 0x100027E34, symSize: 0x58 }
  - { offsetInCU: 0x4C48, offset: 0x9C645, size: 0x8, addend: 0x0, symName: __ZN23ECConsoleUISearchButtonD2Ev, symObjAddr: 0x90C, symBinAddr: 0x100027E8C, symSize: 0x78 }
...
